
display.elf:     file format elf32-littlearm

Sections:
Idx Name          Size      VMA       LMA       File off  Algn
  0 .isr_vector   0000010c  08000000  08000000  00010000  2**0
                  CONTENTS, ALLOC, LOAD, READONLY, DATA
  1 .text         00006ca0  08000110  08000110  00010110  2**3
                  CONTENTS, ALLOC, LOAD, READONLY, CODE
  2 .rodata       00000dc4  08006db0  08006db0  00016db0  2**2
                  CONTENTS, ALLOC, LOAD, READONLY, DATA
  3 .ARM.extab    00000000  08007b74  08007b74  00020088  2**0
                  CONTENTS
  4 .ARM          00000000  08007b74  08007b74  00020088  2**0
                  CONTENTS
  5 .preinit_array 00000000  08007b74  08007b74  00020088  2**0
                  CONTENTS, ALLOC, LOAD, DATA
  6 .init_array   00000004  08007b74  08007b74  00017b74  2**2
                  CONTENTS, ALLOC, LOAD, DATA
  7 .fini_array   00000004  08007b78  08007b78  00017b78  2**2
                  CONTENTS, ALLOC, LOAD, DATA
  8 .data         00000088  20000000  08007b7c  00020000  2**2
                  CONTENTS, ALLOC, LOAD, DATA
  9 .bss          000005d0  20000088  08007c04  00020088  2**2
                  ALLOC
 10 ._user_heap_stack 00000600  20000658  08007c04  00020658  2**0
                  ALLOC
 11 .ARM.attributes 00000029  00000000  00000000  00020088  2**0
                  CONTENTS, READONLY
 12 .debug_info   000106d9  00000000  00000000  000200b1  2**0
                  CONTENTS, READONLY, DEBUGGING, OCTETS
 13 .debug_abbrev 0000243d  00000000  00000000  0003078a  2**0
                  CONTENTS, READONLY, DEBUGGING, OCTETS
 14 .debug_aranges 00000f38  00000000  00000000  00032bc8  2**3
                  CONTENTS, READONLY, DEBUGGING, OCTETS
 15 .debug_ranges 00000e58  00000000  00000000  00033b00  2**3
                  CONTENTS, READONLY, DEBUGGING, OCTETS
 16 .debug_macro  000186c7  00000000  00000000  00034958  2**0
                  CONTENTS, READONLY, DEBUGGING, OCTETS
 17 .debug_line   00011750  00000000  00000000  0004d01f  2**0
                  CONTENTS, READONLY, DEBUGGING, OCTETS
 18 .debug_str    0008f999  00000000  00000000  0005e76f  2**0
                  CONTENTS, READONLY, DEBUGGING, OCTETS
 19 .comment      00000053  00000000  00000000  000ee108  2**0
                  CONTENTS, READONLY
 20 .debug_frame  000044c0  00000000  00000000  000ee15c  2**2
                  CONTENTS, READONLY, DEBUGGING, OCTETS

Disassembly of section .text:

08000110 <__do_global_dtors_aux>:
 8000110:	b510      	push	{r4, lr}
 8000112:	4c05      	ldr	r4, [pc, #20]	; (8000128 <__do_global_dtors_aux+0x18>)
 8000114:	7823      	ldrb	r3, [r4, #0]
 8000116:	b933      	cbnz	r3, 8000126 <__do_global_dtors_aux+0x16>
 8000118:	4b04      	ldr	r3, [pc, #16]	; (800012c <__do_global_dtors_aux+0x1c>)
 800011a:	b113      	cbz	r3, 8000122 <__do_global_dtors_aux+0x12>
 800011c:	4804      	ldr	r0, [pc, #16]	; (8000130 <__do_global_dtors_aux+0x20>)
 800011e:	f3af 8000 	nop.w
 8000122:	2301      	movs	r3, #1
 8000124:	7023      	strb	r3, [r4, #0]
 8000126:	bd10      	pop	{r4, pc}
 8000128:	20000088 	.word	0x20000088
 800012c:	00000000 	.word	0x00000000
 8000130:	08006d98 	.word	0x08006d98

08000134 <frame_dummy>:
 8000134:	b508      	push	{r3, lr}
 8000136:	4b03      	ldr	r3, [pc, #12]	; (8000144 <frame_dummy+0x10>)
 8000138:	b11b      	cbz	r3, 8000142 <frame_dummy+0xe>
 800013a:	4903      	ldr	r1, [pc, #12]	; (8000148 <frame_dummy+0x14>)
 800013c:	4803      	ldr	r0, [pc, #12]	; (800014c <frame_dummy+0x18>)
 800013e:	f3af 8000 	nop.w
 8000142:	bd08      	pop	{r3, pc}
 8000144:	00000000 	.word	0x00000000
 8000148:	2000008c 	.word	0x2000008c
 800014c:	08006d98 	.word	0x08006d98

08000150 <__aeabi_drsub>:
 8000150:	f081 4100 	eor.w	r1, r1, #2147483648	; 0x80000000
 8000154:	e002      	b.n	800015c <__adddf3>
 8000156:	bf00      	nop

08000158 <__aeabi_dsub>:
 8000158:	f083 4300 	eor.w	r3, r3, #2147483648	; 0x80000000

0800015c <__adddf3>:
 800015c:	b530      	push	{r4, r5, lr}
 800015e:	ea4f 0441 	mov.w	r4, r1, lsl #1
 8000162:	ea4f 0543 	mov.w	r5, r3, lsl #1
 8000166:	ea94 0f05 	teq	r4, r5
 800016a:	bf08      	it	eq
 800016c:	ea90 0f02 	teqeq	r0, r2
 8000170:	bf1f      	itttt	ne
 8000172:	ea54 0c00 	orrsne.w	ip, r4, r0
 8000176:	ea55 0c02 	orrsne.w	ip, r5, r2
 800017a:	ea7f 5c64 	mvnsne.w	ip, r4, asr #21
 800017e:	ea7f 5c65 	mvnsne.w	ip, r5, asr #21
 8000182:	f000 80e2 	beq.w	800034a <__adddf3+0x1ee>
 8000186:	ea4f 5454 	mov.w	r4, r4, lsr #21
 800018a:	ebd4 5555 	rsbs	r5, r4, r5, lsr #21
 800018e:	bfb8      	it	lt
 8000190:	426d      	neglt	r5, r5
 8000192:	dd0c      	ble.n	80001ae <__adddf3+0x52>
 8000194:	442c      	add	r4, r5
 8000196:	ea80 0202 	eor.w	r2, r0, r2
 800019a:	ea81 0303 	eor.w	r3, r1, r3
 800019e:	ea82 0000 	eor.w	r0, r2, r0
 80001a2:	ea83 0101 	eor.w	r1, r3, r1
 80001a6:	ea80 0202 	eor.w	r2, r0, r2
 80001aa:	ea81 0303 	eor.w	r3, r1, r3
 80001ae:	2d36      	cmp	r5, #54	; 0x36
 80001b0:	bf88      	it	hi
 80001b2:	bd30      	pophi	{r4, r5, pc}
 80001b4:	f011 4f00 	tst.w	r1, #2147483648	; 0x80000000
 80001b8:	ea4f 3101 	mov.w	r1, r1, lsl #12
 80001bc:	f44f 1c80 	mov.w	ip, #1048576	; 0x100000
 80001c0:	ea4c 3111 	orr.w	r1, ip, r1, lsr #12
 80001c4:	d002      	beq.n	80001cc <__adddf3+0x70>
 80001c6:	4240      	negs	r0, r0
 80001c8:	eb61 0141 	sbc.w	r1, r1, r1, lsl #1
 80001cc:	f013 4f00 	tst.w	r3, #2147483648	; 0x80000000
 80001d0:	ea4f 3303 	mov.w	r3, r3, lsl #12
 80001d4:	ea4c 3313 	orr.w	r3, ip, r3, lsr #12
 80001d8:	d002      	beq.n	80001e0 <__adddf3+0x84>
 80001da:	4252      	negs	r2, r2
 80001dc:	eb63 0343 	sbc.w	r3, r3, r3, lsl #1
 80001e0:	ea94 0f05 	teq	r4, r5
 80001e4:	f000 80a7 	beq.w	8000336 <__adddf3+0x1da>
 80001e8:	f1a4 0401 	sub.w	r4, r4, #1
 80001ec:	f1d5 0e20 	rsbs	lr, r5, #32
 80001f0:	db0d      	blt.n	800020e <__adddf3+0xb2>
 80001f2:	fa02 fc0e 	lsl.w	ip, r2, lr
 80001f6:	fa22 f205 	lsr.w	r2, r2, r5
 80001fa:	1880      	adds	r0, r0, r2
 80001fc:	f141 0100 	adc.w	r1, r1, #0
 8000200:	fa03 f20e 	lsl.w	r2, r3, lr
 8000204:	1880      	adds	r0, r0, r2
 8000206:	fa43 f305 	asr.w	r3, r3, r5
 800020a:	4159      	adcs	r1, r3
 800020c:	e00e      	b.n	800022c <__adddf3+0xd0>
 800020e:	f1a5 0520 	sub.w	r5, r5, #32
 8000212:	f10e 0e20 	add.w	lr, lr, #32
 8000216:	2a01      	cmp	r2, #1
 8000218:	fa03 fc0e 	lsl.w	ip, r3, lr
 800021c:	bf28      	it	cs
 800021e:	f04c 0c02 	orrcs.w	ip, ip, #2
 8000222:	fa43 f305 	asr.w	r3, r3, r5
 8000226:	18c0      	adds	r0, r0, r3
 8000228:	eb51 71e3 	adcs.w	r1, r1, r3, asr #31
 800022c:	f001 4500 	and.w	r5, r1, #2147483648	; 0x80000000
 8000230:	d507      	bpl.n	8000242 <__adddf3+0xe6>
 8000232:	f04f 0e00 	mov.w	lr, #0
 8000236:	f1dc 0c00 	rsbs	ip, ip, #0
 800023a:	eb7e 0000 	sbcs.w	r0, lr, r0
 800023e:	eb6e 0101 	sbc.w	r1, lr, r1
 8000242:	f5b1 1f80 	cmp.w	r1, #1048576	; 0x100000
 8000246:	d31b      	bcc.n	8000280 <__adddf3+0x124>
 8000248:	f5b1 1f00 	cmp.w	r1, #2097152	; 0x200000
 800024c:	d30c      	bcc.n	8000268 <__adddf3+0x10c>
 800024e:	0849      	lsrs	r1, r1, #1
 8000250:	ea5f 0030 	movs.w	r0, r0, rrx
 8000254:	ea4f 0c3c 	mov.w	ip, ip, rrx
 8000258:	f104 0401 	add.w	r4, r4, #1
 800025c:	ea4f 5244 	mov.w	r2, r4, lsl #21
 8000260:	f512 0f80 	cmn.w	r2, #4194304	; 0x400000
 8000264:	f080 809a 	bcs.w	800039c <__adddf3+0x240>
 8000268:	f1bc 4f00 	cmp.w	ip, #2147483648	; 0x80000000
 800026c:	bf08      	it	eq
 800026e:	ea5f 0c50 	movseq.w	ip, r0, lsr #1
 8000272:	f150 0000 	adcs.w	r0, r0, #0
 8000276:	eb41 5104 	adc.w	r1, r1, r4, lsl #20
 800027a:	ea41 0105 	orr.w	r1, r1, r5
 800027e:	bd30      	pop	{r4, r5, pc}
 8000280:	ea5f 0c4c 	movs.w	ip, ip, lsl #1
 8000284:	4140      	adcs	r0, r0
 8000286:	eb41 0101 	adc.w	r1, r1, r1
 800028a:	3c01      	subs	r4, #1
 800028c:	bf28      	it	cs
 800028e:	f5b1 1f80 	cmpcs.w	r1, #1048576	; 0x100000
 8000292:	d2e9      	bcs.n	8000268 <__adddf3+0x10c>
 8000294:	f091 0f00 	teq	r1, #0
 8000298:	bf04      	itt	eq
 800029a:	4601      	moveq	r1, r0
 800029c:	2000      	moveq	r0, #0
 800029e:	fab1 f381 	clz	r3, r1
 80002a2:	bf08      	it	eq
 80002a4:	3320      	addeq	r3, #32
 80002a6:	f1a3 030b 	sub.w	r3, r3, #11
 80002aa:	f1b3 0220 	subs.w	r2, r3, #32
 80002ae:	da0c      	bge.n	80002ca <__adddf3+0x16e>
 80002b0:	320c      	adds	r2, #12
 80002b2:	dd08      	ble.n	80002c6 <__adddf3+0x16a>
 80002b4:	f102 0c14 	add.w	ip, r2, #20
 80002b8:	f1c2 020c 	rsb	r2, r2, #12
 80002bc:	fa01 f00c 	lsl.w	r0, r1, ip
 80002c0:	fa21 f102 	lsr.w	r1, r1, r2
 80002c4:	e00c      	b.n	80002e0 <__adddf3+0x184>
 80002c6:	f102 0214 	add.w	r2, r2, #20
 80002ca:	bfd8      	it	le
 80002cc:	f1c2 0c20 	rsble	ip, r2, #32
 80002d0:	fa01 f102 	lsl.w	r1, r1, r2
 80002d4:	fa20 fc0c 	lsr.w	ip, r0, ip
 80002d8:	bfdc      	itt	le
 80002da:	ea41 010c 	orrle.w	r1, r1, ip
 80002de:	4090      	lslle	r0, r2
 80002e0:	1ae4      	subs	r4, r4, r3
 80002e2:	bfa2      	ittt	ge
 80002e4:	eb01 5104 	addge.w	r1, r1, r4, lsl #20
 80002e8:	4329      	orrge	r1, r5
 80002ea:	bd30      	popge	{r4, r5, pc}
 80002ec:	ea6f 0404 	mvn.w	r4, r4
 80002f0:	3c1f      	subs	r4, #31
 80002f2:	da1c      	bge.n	800032e <__adddf3+0x1d2>
 80002f4:	340c      	adds	r4, #12
 80002f6:	dc0e      	bgt.n	8000316 <__adddf3+0x1ba>
 80002f8:	f104 0414 	add.w	r4, r4, #20
 80002fc:	f1c4 0220 	rsb	r2, r4, #32
 8000300:	fa20 f004 	lsr.w	r0, r0, r4
 8000304:	fa01 f302 	lsl.w	r3, r1, r2
 8000308:	ea40 0003 	orr.w	r0, r0, r3
 800030c:	fa21 f304 	lsr.w	r3, r1, r4
 8000310:	ea45 0103 	orr.w	r1, r5, r3
 8000314:	bd30      	pop	{r4, r5, pc}
 8000316:	f1c4 040c 	rsb	r4, r4, #12
 800031a:	f1c4 0220 	rsb	r2, r4, #32
 800031e:	fa20 f002 	lsr.w	r0, r0, r2
 8000322:	fa01 f304 	lsl.w	r3, r1, r4
 8000326:	ea40 0003 	orr.w	r0, r0, r3
 800032a:	4629      	mov	r1, r5
 800032c:	bd30      	pop	{r4, r5, pc}
 800032e:	fa21 f004 	lsr.w	r0, r1, r4
 8000332:	4629      	mov	r1, r5
 8000334:	bd30      	pop	{r4, r5, pc}
 8000336:	f094 0f00 	teq	r4, #0
 800033a:	f483 1380 	eor.w	r3, r3, #1048576	; 0x100000
 800033e:	bf06      	itte	eq
 8000340:	f481 1180 	eoreq.w	r1, r1, #1048576	; 0x100000
 8000344:	3401      	addeq	r4, #1
 8000346:	3d01      	subne	r5, #1
 8000348:	e74e      	b.n	80001e8 <__adddf3+0x8c>
 800034a:	ea7f 5c64 	mvns.w	ip, r4, asr #21
 800034e:	bf18      	it	ne
 8000350:	ea7f 5c65 	mvnsne.w	ip, r5, asr #21
 8000354:	d029      	beq.n	80003aa <__adddf3+0x24e>
 8000356:	ea94 0f05 	teq	r4, r5
 800035a:	bf08      	it	eq
 800035c:	ea90 0f02 	teqeq	r0, r2
 8000360:	d005      	beq.n	800036e <__adddf3+0x212>
 8000362:	ea54 0c00 	orrs.w	ip, r4, r0
 8000366:	bf04      	itt	eq
 8000368:	4619      	moveq	r1, r3
 800036a:	4610      	moveq	r0, r2
 800036c:	bd30      	pop	{r4, r5, pc}
 800036e:	ea91 0f03 	teq	r1, r3
 8000372:	bf1e      	ittt	ne
 8000374:	2100      	movne	r1, #0
 8000376:	2000      	movne	r0, #0
 8000378:	bd30      	popne	{r4, r5, pc}
 800037a:	ea5f 5c54 	movs.w	ip, r4, lsr #21
 800037e:	d105      	bne.n	800038c <__adddf3+0x230>
 8000380:	0040      	lsls	r0, r0, #1
 8000382:	4149      	adcs	r1, r1
 8000384:	bf28      	it	cs
 8000386:	f041 4100 	orrcs.w	r1, r1, #2147483648	; 0x80000000
 800038a:	bd30      	pop	{r4, r5, pc}
 800038c:	f514 0480 	adds.w	r4, r4, #4194304	; 0x400000
 8000390:	bf3c      	itt	cc
 8000392:	f501 1180 	addcc.w	r1, r1, #1048576	; 0x100000
 8000396:	bd30      	popcc	{r4, r5, pc}
 8000398:	f001 4500 	and.w	r5, r1, #2147483648	; 0x80000000
 800039c:	f045 41fe 	orr.w	r1, r5, #2130706432	; 0x7f000000
 80003a0:	f441 0170 	orr.w	r1, r1, #15728640	; 0xf00000
 80003a4:	f04f 0000 	mov.w	r0, #0
 80003a8:	bd30      	pop	{r4, r5, pc}
 80003aa:	ea7f 5c64 	mvns.w	ip, r4, asr #21
 80003ae:	bf1a      	itte	ne
 80003b0:	4619      	movne	r1, r3
 80003b2:	4610      	movne	r0, r2
 80003b4:	ea7f 5c65 	mvnseq.w	ip, r5, asr #21
 80003b8:	bf1c      	itt	ne
 80003ba:	460b      	movne	r3, r1
 80003bc:	4602      	movne	r2, r0
 80003be:	ea50 3401 	orrs.w	r4, r0, r1, lsl #12
 80003c2:	bf06      	itte	eq
 80003c4:	ea52 3503 	orrseq.w	r5, r2, r3, lsl #12
 80003c8:	ea91 0f03 	teqeq	r1, r3
 80003cc:	f441 2100 	orrne.w	r1, r1, #524288	; 0x80000
 80003d0:	bd30      	pop	{r4, r5, pc}
 80003d2:	bf00      	nop

080003d4 <__aeabi_ui2d>:
 80003d4:	f090 0f00 	teq	r0, #0
 80003d8:	bf04      	itt	eq
 80003da:	2100      	moveq	r1, #0
 80003dc:	4770      	bxeq	lr
 80003de:	b530      	push	{r4, r5, lr}
 80003e0:	f44f 6480 	mov.w	r4, #1024	; 0x400
 80003e4:	f104 0432 	add.w	r4, r4, #50	; 0x32
 80003e8:	f04f 0500 	mov.w	r5, #0
 80003ec:	f04f 0100 	mov.w	r1, #0
 80003f0:	e750      	b.n	8000294 <__adddf3+0x138>
 80003f2:	bf00      	nop

080003f4 <__aeabi_i2d>:
 80003f4:	f090 0f00 	teq	r0, #0
 80003f8:	bf04      	itt	eq
 80003fa:	2100      	moveq	r1, #0
 80003fc:	4770      	bxeq	lr
 80003fe:	b530      	push	{r4, r5, lr}
 8000400:	f44f 6480 	mov.w	r4, #1024	; 0x400
 8000404:	f104 0432 	add.w	r4, r4, #50	; 0x32
 8000408:	f010 4500 	ands.w	r5, r0, #2147483648	; 0x80000000
 800040c:	bf48      	it	mi
 800040e:	4240      	negmi	r0, r0
 8000410:	f04f 0100 	mov.w	r1, #0
 8000414:	e73e      	b.n	8000294 <__adddf3+0x138>
 8000416:	bf00      	nop

08000418 <__aeabi_f2d>:
 8000418:	0042      	lsls	r2, r0, #1
 800041a:	ea4f 01e2 	mov.w	r1, r2, asr #3
 800041e:	ea4f 0131 	mov.w	r1, r1, rrx
 8000422:	ea4f 7002 	mov.w	r0, r2, lsl #28
 8000426:	bf1f      	itttt	ne
 8000428:	f012 437f 	andsne.w	r3, r2, #4278190080	; 0xff000000
 800042c:	f093 4f7f 	teqne	r3, #4278190080	; 0xff000000
 8000430:	f081 5160 	eorne.w	r1, r1, #939524096	; 0x38000000
 8000434:	4770      	bxne	lr
 8000436:	f032 427f 	bics.w	r2, r2, #4278190080	; 0xff000000
 800043a:	bf08      	it	eq
 800043c:	4770      	bxeq	lr
 800043e:	f093 4f7f 	teq	r3, #4278190080	; 0xff000000
 8000442:	bf04      	itt	eq
 8000444:	f441 2100 	orreq.w	r1, r1, #524288	; 0x80000
 8000448:	4770      	bxeq	lr
 800044a:	b530      	push	{r4, r5, lr}
 800044c:	f44f 7460 	mov.w	r4, #896	; 0x380
 8000450:	f001 4500 	and.w	r5, r1, #2147483648	; 0x80000000
 8000454:	f021 4100 	bic.w	r1, r1, #2147483648	; 0x80000000
 8000458:	e71c      	b.n	8000294 <__adddf3+0x138>
 800045a:	bf00      	nop

0800045c <__aeabi_ul2d>:
 800045c:	ea50 0201 	orrs.w	r2, r0, r1
 8000460:	bf08      	it	eq
 8000462:	4770      	bxeq	lr
 8000464:	b530      	push	{r4, r5, lr}
 8000466:	f04f 0500 	mov.w	r5, #0
 800046a:	e00a      	b.n	8000482 <__aeabi_l2d+0x16>

0800046c <__aeabi_l2d>:
 800046c:	ea50 0201 	orrs.w	r2, r0, r1
 8000470:	bf08      	it	eq
 8000472:	4770      	bxeq	lr
 8000474:	b530      	push	{r4, r5, lr}
 8000476:	f011 4500 	ands.w	r5, r1, #2147483648	; 0x80000000
 800047a:	d502      	bpl.n	8000482 <__aeabi_l2d+0x16>
 800047c:	4240      	negs	r0, r0
 800047e:	eb61 0141 	sbc.w	r1, r1, r1, lsl #1
 8000482:	f44f 6480 	mov.w	r4, #1024	; 0x400
 8000486:	f104 0432 	add.w	r4, r4, #50	; 0x32
 800048a:	ea5f 5c91 	movs.w	ip, r1, lsr #22
 800048e:	f43f aed8 	beq.w	8000242 <__adddf3+0xe6>
 8000492:	f04f 0203 	mov.w	r2, #3
 8000496:	ea5f 0cdc 	movs.w	ip, ip, lsr #3
 800049a:	bf18      	it	ne
 800049c:	3203      	addne	r2, #3
 800049e:	ea5f 0cdc 	movs.w	ip, ip, lsr #3
 80004a2:	bf18      	it	ne
 80004a4:	3203      	addne	r2, #3
 80004a6:	eb02 02dc 	add.w	r2, r2, ip, lsr #3
 80004aa:	f1c2 0320 	rsb	r3, r2, #32
 80004ae:	fa00 fc03 	lsl.w	ip, r0, r3
 80004b2:	fa20 f002 	lsr.w	r0, r0, r2
 80004b6:	fa01 fe03 	lsl.w	lr, r1, r3
 80004ba:	ea40 000e 	orr.w	r0, r0, lr
 80004be:	fa21 f102 	lsr.w	r1, r1, r2
 80004c2:	4414      	add	r4, r2
 80004c4:	e6bd      	b.n	8000242 <__adddf3+0xe6>
 80004c6:	bf00      	nop

080004c8 <__aeabi_dmul>:
 80004c8:	b570      	push	{r4, r5, r6, lr}
 80004ca:	f04f 0cff 	mov.w	ip, #255	; 0xff
 80004ce:	f44c 6ce0 	orr.w	ip, ip, #1792	; 0x700
 80004d2:	ea1c 5411 	ands.w	r4, ip, r1, lsr #20
 80004d6:	bf1d      	ittte	ne
 80004d8:	ea1c 5513 	andsne.w	r5, ip, r3, lsr #20
 80004dc:	ea94 0f0c 	teqne	r4, ip
 80004e0:	ea95 0f0c 	teqne	r5, ip
 80004e4:	f000 f8de 	bleq	80006a4 <__aeabi_dmul+0x1dc>
 80004e8:	442c      	add	r4, r5
 80004ea:	ea81 0603 	eor.w	r6, r1, r3
 80004ee:	ea21 514c 	bic.w	r1, r1, ip, lsl #21
 80004f2:	ea23 534c 	bic.w	r3, r3, ip, lsl #21
 80004f6:	ea50 3501 	orrs.w	r5, r0, r1, lsl #12
 80004fa:	bf18      	it	ne
 80004fc:	ea52 3503 	orrsne.w	r5, r2, r3, lsl #12
 8000500:	f441 1180 	orr.w	r1, r1, #1048576	; 0x100000
 8000504:	f443 1380 	orr.w	r3, r3, #1048576	; 0x100000
 8000508:	d038      	beq.n	800057c <__aeabi_dmul+0xb4>
 800050a:	fba0 ce02 	umull	ip, lr, r0, r2
 800050e:	f04f 0500 	mov.w	r5, #0
 8000512:	fbe1 e502 	umlal	lr, r5, r1, r2
 8000516:	f006 4200 	and.w	r2, r6, #2147483648	; 0x80000000
 800051a:	fbe0 e503 	umlal	lr, r5, r0, r3
 800051e:	f04f 0600 	mov.w	r6, #0
 8000522:	fbe1 5603 	umlal	r5, r6, r1, r3
 8000526:	f09c 0f00 	teq	ip, #0
 800052a:	bf18      	it	ne
 800052c:	f04e 0e01 	orrne.w	lr, lr, #1
 8000530:	f1a4 04ff 	sub.w	r4, r4, #255	; 0xff
 8000534:	f5b6 7f00 	cmp.w	r6, #512	; 0x200
 8000538:	f564 7440 	sbc.w	r4, r4, #768	; 0x300
 800053c:	d204      	bcs.n	8000548 <__aeabi_dmul+0x80>
 800053e:	ea5f 0e4e 	movs.w	lr, lr, lsl #1
 8000542:	416d      	adcs	r5, r5
 8000544:	eb46 0606 	adc.w	r6, r6, r6
 8000548:	ea42 21c6 	orr.w	r1, r2, r6, lsl #11
 800054c:	ea41 5155 	orr.w	r1, r1, r5, lsr #21
 8000550:	ea4f 20c5 	mov.w	r0, r5, lsl #11
 8000554:	ea40 505e 	orr.w	r0, r0, lr, lsr #21
 8000558:	ea4f 2ece 	mov.w	lr, lr, lsl #11
 800055c:	f1b4 0cfd 	subs.w	ip, r4, #253	; 0xfd
 8000560:	bf88      	it	hi
 8000562:	f5bc 6fe0 	cmphi.w	ip, #1792	; 0x700
 8000566:	d81e      	bhi.n	80005a6 <__aeabi_dmul+0xde>
 8000568:	f1be 4f00 	cmp.w	lr, #2147483648	; 0x80000000
 800056c:	bf08      	it	eq
 800056e:	ea5f 0e50 	movseq.w	lr, r0, lsr #1
 8000572:	f150 0000 	adcs.w	r0, r0, #0
 8000576:	eb41 5104 	adc.w	r1, r1, r4, lsl #20
 800057a:	bd70      	pop	{r4, r5, r6, pc}
 800057c:	f006 4600 	and.w	r6, r6, #2147483648	; 0x80000000
 8000580:	ea46 0101 	orr.w	r1, r6, r1
 8000584:	ea40 0002 	orr.w	r0, r0, r2
 8000588:	ea81 0103 	eor.w	r1, r1, r3
 800058c:	ebb4 045c 	subs.w	r4, r4, ip, lsr #1
 8000590:	bfc2      	ittt	gt
 8000592:	ebd4 050c 	rsbsgt	r5, r4, ip
 8000596:	ea41 5104 	orrgt.w	r1, r1, r4, lsl #20
 800059a:	bd70      	popgt	{r4, r5, r6, pc}
 800059c:	f441 1180 	orr.w	r1, r1, #1048576	; 0x100000
 80005a0:	f04f 0e00 	mov.w	lr, #0
 80005a4:	3c01      	subs	r4, #1
 80005a6:	f300 80ab 	bgt.w	8000700 <__aeabi_dmul+0x238>
 80005aa:	f114 0f36 	cmn.w	r4, #54	; 0x36
 80005ae:	bfde      	ittt	le
 80005b0:	2000      	movle	r0, #0
 80005b2:	f001 4100 	andle.w	r1, r1, #2147483648	; 0x80000000
 80005b6:	bd70      	pople	{r4, r5, r6, pc}
 80005b8:	f1c4 0400 	rsb	r4, r4, #0
 80005bc:	3c20      	subs	r4, #32
 80005be:	da35      	bge.n	800062c <__aeabi_dmul+0x164>
 80005c0:	340c      	adds	r4, #12
 80005c2:	dc1b      	bgt.n	80005fc <__aeabi_dmul+0x134>
 80005c4:	f104 0414 	add.w	r4, r4, #20
 80005c8:	f1c4 0520 	rsb	r5, r4, #32
 80005cc:	fa00 f305 	lsl.w	r3, r0, r5
 80005d0:	fa20 f004 	lsr.w	r0, r0, r4
 80005d4:	fa01 f205 	lsl.w	r2, r1, r5
 80005d8:	ea40 0002 	orr.w	r0, r0, r2
 80005dc:	f001 4200 	and.w	r2, r1, #2147483648	; 0x80000000
 80005e0:	f021 4100 	bic.w	r1, r1, #2147483648	; 0x80000000
 80005e4:	eb10 70d3 	adds.w	r0, r0, r3, lsr #31
 80005e8:	fa21 f604 	lsr.w	r6, r1, r4
 80005ec:	eb42 0106 	adc.w	r1, r2, r6
 80005f0:	ea5e 0e43 	orrs.w	lr, lr, r3, lsl #1
 80005f4:	bf08      	it	eq
 80005f6:	ea20 70d3 	biceq.w	r0, r0, r3, lsr #31
 80005fa:	bd70      	pop	{r4, r5, r6, pc}
 80005fc:	f1c4 040c 	rsb	r4, r4, #12
 8000600:	f1c4 0520 	rsb	r5, r4, #32
 8000604:	fa00 f304 	lsl.w	r3, r0, r4
 8000608:	fa20 f005 	lsr.w	r0, r0, r5
 800060c:	fa01 f204 	lsl.w	r2, r1, r4
 8000610:	ea40 0002 	orr.w	r0, r0, r2
 8000614:	f001 4100 	and.w	r1, r1, #2147483648	; 0x80000000
 8000618:	eb10 70d3 	adds.w	r0, r0, r3, lsr #31
 800061c:	f141 0100 	adc.w	r1, r1, #0
 8000620:	ea5e 0e43 	orrs.w	lr, lr, r3, lsl #1
 8000624:	bf08      	it	eq
 8000626:	ea20 70d3 	biceq.w	r0, r0, r3, lsr #31
 800062a:	bd70      	pop	{r4, r5, r6, pc}
 800062c:	f1c4 0520 	rsb	r5, r4, #32
 8000630:	fa00 f205 	lsl.w	r2, r0, r5
 8000634:	ea4e 0e02 	orr.w	lr, lr, r2
 8000638:	fa20 f304 	lsr.w	r3, r0, r4
 800063c:	fa01 f205 	lsl.w	r2, r1, r5
 8000640:	ea43 0302 	orr.w	r3, r3, r2
 8000644:	fa21 f004 	lsr.w	r0, r1, r4
 8000648:	f001 4100 	and.w	r1, r1, #2147483648	; 0x80000000
 800064c:	fa21 f204 	lsr.w	r2, r1, r4
 8000650:	ea20 0002 	bic.w	r0, r0, r2
 8000654:	eb00 70d3 	add.w	r0, r0, r3, lsr #31
 8000658:	ea5e 0e43 	orrs.w	lr, lr, r3, lsl #1
 800065c:	bf08      	it	eq
 800065e:	ea20 70d3 	biceq.w	r0, r0, r3, lsr #31
 8000662:	bd70      	pop	{r4, r5, r6, pc}
 8000664:	f094 0f00 	teq	r4, #0
 8000668:	d10f      	bne.n	800068a <__aeabi_dmul+0x1c2>
 800066a:	f001 4600 	and.w	r6, r1, #2147483648	; 0x80000000
 800066e:	0040      	lsls	r0, r0, #1
 8000670:	eb41 0101 	adc.w	r1, r1, r1
 8000674:	f411 1f80 	tst.w	r1, #1048576	; 0x100000
 8000678:	bf08      	it	eq
 800067a:	3c01      	subeq	r4, #1
 800067c:	d0f7      	beq.n	800066e <__aeabi_dmul+0x1a6>
 800067e:	ea41 0106 	orr.w	r1, r1, r6
 8000682:	f095 0f00 	teq	r5, #0
 8000686:	bf18      	it	ne
 8000688:	4770      	bxne	lr
 800068a:	f003 4600 	and.w	r6, r3, #2147483648	; 0x80000000
 800068e:	0052      	lsls	r2, r2, #1
 8000690:	eb43 0303 	adc.w	r3, r3, r3
 8000694:	f413 1f80 	tst.w	r3, #1048576	; 0x100000
 8000698:	bf08      	it	eq
 800069a:	3d01      	subeq	r5, #1
 800069c:	d0f7      	beq.n	800068e <__aeabi_dmul+0x1c6>
 800069e:	ea43 0306 	orr.w	r3, r3, r6
 80006a2:	4770      	bx	lr
 80006a4:	ea94 0f0c 	teq	r4, ip
 80006a8:	ea0c 5513 	and.w	r5, ip, r3, lsr #20
 80006ac:	bf18      	it	ne
 80006ae:	ea95 0f0c 	teqne	r5, ip
 80006b2:	d00c      	beq.n	80006ce <__aeabi_dmul+0x206>
 80006b4:	ea50 0641 	orrs.w	r6, r0, r1, lsl #1
 80006b8:	bf18      	it	ne
 80006ba:	ea52 0643 	orrsne.w	r6, r2, r3, lsl #1
 80006be:	d1d1      	bne.n	8000664 <__aeabi_dmul+0x19c>
 80006c0:	ea81 0103 	eor.w	r1, r1, r3
 80006c4:	f001 4100 	and.w	r1, r1, #2147483648	; 0x80000000
 80006c8:	f04f 0000 	mov.w	r0, #0
 80006cc:	bd70      	pop	{r4, r5, r6, pc}
 80006ce:	ea50 0641 	orrs.w	r6, r0, r1, lsl #1
 80006d2:	bf06      	itte	eq
 80006d4:	4610      	moveq	r0, r2
 80006d6:	4619      	moveq	r1, r3
 80006d8:	ea52 0643 	orrsne.w	r6, r2, r3, lsl #1
 80006dc:	d019      	beq.n	8000712 <__aeabi_dmul+0x24a>
 80006de:	ea94 0f0c 	teq	r4, ip
 80006e2:	d102      	bne.n	80006ea <__aeabi_dmul+0x222>
 80006e4:	ea50 3601 	orrs.w	r6, r0, r1, lsl #12
 80006e8:	d113      	bne.n	8000712 <__aeabi_dmul+0x24a>
 80006ea:	ea95 0f0c 	teq	r5, ip
 80006ee:	d105      	bne.n	80006fc <__aeabi_dmul+0x234>
 80006f0:	ea52 3603 	orrs.w	r6, r2, r3, lsl #12
 80006f4:	bf1c      	itt	ne
 80006f6:	4610      	movne	r0, r2
 80006f8:	4619      	movne	r1, r3
 80006fa:	d10a      	bne.n	8000712 <__aeabi_dmul+0x24a>
 80006fc:	ea81 0103 	eor.w	r1, r1, r3
 8000700:	f001 4100 	and.w	r1, r1, #2147483648	; 0x80000000
 8000704:	f041 41fe 	orr.w	r1, r1, #2130706432	; 0x7f000000
 8000708:	f441 0170 	orr.w	r1, r1, #15728640	; 0xf00000
 800070c:	f04f 0000 	mov.w	r0, #0
 8000710:	bd70      	pop	{r4, r5, r6, pc}
 8000712:	f041 41fe 	orr.w	r1, r1, #2130706432	; 0x7f000000
 8000716:	f441 0178 	orr.w	r1, r1, #16252928	; 0xf80000
 800071a:	bd70      	pop	{r4, r5, r6, pc}

0800071c <__aeabi_ddiv>:
 800071c:	b570      	push	{r4, r5, r6, lr}
 800071e:	f04f 0cff 	mov.w	ip, #255	; 0xff
 8000722:	f44c 6ce0 	orr.w	ip, ip, #1792	; 0x700
 8000726:	ea1c 5411 	ands.w	r4, ip, r1, lsr #20
 800072a:	bf1d      	ittte	ne
 800072c:	ea1c 5513 	andsne.w	r5, ip, r3, lsr #20
 8000730:	ea94 0f0c 	teqne	r4, ip
 8000734:	ea95 0f0c 	teqne	r5, ip
 8000738:	f000 f8a7 	bleq	800088a <__aeabi_ddiv+0x16e>
 800073c:	eba4 0405 	sub.w	r4, r4, r5
 8000740:	ea81 0e03 	eor.w	lr, r1, r3
 8000744:	ea52 3503 	orrs.w	r5, r2, r3, lsl #12
 8000748:	ea4f 3101 	mov.w	r1, r1, lsl #12
 800074c:	f000 8088 	beq.w	8000860 <__aeabi_ddiv+0x144>
 8000750:	ea4f 3303 	mov.w	r3, r3, lsl #12
 8000754:	f04f 5580 	mov.w	r5, #268435456	; 0x10000000
 8000758:	ea45 1313 	orr.w	r3, r5, r3, lsr #4
 800075c:	ea43 6312 	orr.w	r3, r3, r2, lsr #24
 8000760:	ea4f 2202 	mov.w	r2, r2, lsl #8
 8000764:	ea45 1511 	orr.w	r5, r5, r1, lsr #4
 8000768:	ea45 6510 	orr.w	r5, r5, r0, lsr #24
 800076c:	ea4f 2600 	mov.w	r6, r0, lsl #8
 8000770:	f00e 4100 	and.w	r1, lr, #2147483648	; 0x80000000
 8000774:	429d      	cmp	r5, r3
 8000776:	bf08      	it	eq
 8000778:	4296      	cmpeq	r6, r2
 800077a:	f144 04fd 	adc.w	r4, r4, #253	; 0xfd
 800077e:	f504 7440 	add.w	r4, r4, #768	; 0x300
 8000782:	d202      	bcs.n	800078a <__aeabi_ddiv+0x6e>
 8000784:	085b      	lsrs	r3, r3, #1
 8000786:	ea4f 0232 	mov.w	r2, r2, rrx
 800078a:	1ab6      	subs	r6, r6, r2
 800078c:	eb65 0503 	sbc.w	r5, r5, r3
 8000790:	085b      	lsrs	r3, r3, #1
 8000792:	ea4f 0232 	mov.w	r2, r2, rrx
 8000796:	f44f 1080 	mov.w	r0, #1048576	; 0x100000
 800079a:	f44f 2c00 	mov.w	ip, #524288	; 0x80000
 800079e:	ebb6 0e02 	subs.w	lr, r6, r2
 80007a2:	eb75 0e03 	sbcs.w	lr, r5, r3
 80007a6:	bf22      	ittt	cs
 80007a8:	1ab6      	subcs	r6, r6, r2
 80007aa:	4675      	movcs	r5, lr
 80007ac:	ea40 000c 	orrcs.w	r0, r0, ip
 80007b0:	085b      	lsrs	r3, r3, #1
 80007b2:	ea4f 0232 	mov.w	r2, r2, rrx
 80007b6:	ebb6 0e02 	subs.w	lr, r6, r2
 80007ba:	eb75 0e03 	sbcs.w	lr, r5, r3
 80007be:	bf22      	ittt	cs
 80007c0:	1ab6      	subcs	r6, r6, r2
 80007c2:	4675      	movcs	r5, lr
 80007c4:	ea40 005c 	orrcs.w	r0, r0, ip, lsr #1
 80007c8:	085b      	lsrs	r3, r3, #1
 80007ca:	ea4f 0232 	mov.w	r2, r2, rrx
 80007ce:	ebb6 0e02 	subs.w	lr, r6, r2
 80007d2:	eb75 0e03 	sbcs.w	lr, r5, r3
 80007d6:	bf22      	ittt	cs
 80007d8:	1ab6      	subcs	r6, r6, r2
 80007da:	4675      	movcs	r5, lr
 80007dc:	ea40 009c 	orrcs.w	r0, r0, ip, lsr #2
 80007e0:	085b      	lsrs	r3, r3, #1
 80007e2:	ea4f 0232 	mov.w	r2, r2, rrx
 80007e6:	ebb6 0e02 	subs.w	lr, r6, r2
 80007ea:	eb75 0e03 	sbcs.w	lr, r5, r3
 80007ee:	bf22      	ittt	cs
 80007f0:	1ab6      	subcs	r6, r6, r2
 80007f2:	4675      	movcs	r5, lr
 80007f4:	ea40 00dc 	orrcs.w	r0, r0, ip, lsr #3
 80007f8:	ea55 0e06 	orrs.w	lr, r5, r6
 80007fc:	d018      	beq.n	8000830 <__aeabi_ddiv+0x114>
 80007fe:	ea4f 1505 	mov.w	r5, r5, lsl #4
 8000802:	ea45 7516 	orr.w	r5, r5, r6, lsr #28
 8000806:	ea4f 1606 	mov.w	r6, r6, lsl #4
 800080a:	ea4f 03c3 	mov.w	r3, r3, lsl #3
 800080e:	ea43 7352 	orr.w	r3, r3, r2, lsr #29
 8000812:	ea4f 02c2 	mov.w	r2, r2, lsl #3
 8000816:	ea5f 1c1c 	movs.w	ip, ip, lsr #4
 800081a:	d1c0      	bne.n	800079e <__aeabi_ddiv+0x82>
 800081c:	f411 1f80 	tst.w	r1, #1048576	; 0x100000
 8000820:	d10b      	bne.n	800083a <__aeabi_ddiv+0x11e>
 8000822:	ea41 0100 	orr.w	r1, r1, r0
 8000826:	f04f 0000 	mov.w	r0, #0
 800082a:	f04f 4c00 	mov.w	ip, #2147483648	; 0x80000000
 800082e:	e7b6      	b.n	800079e <__aeabi_ddiv+0x82>
 8000830:	f411 1f80 	tst.w	r1, #1048576	; 0x100000
 8000834:	bf04      	itt	eq
 8000836:	4301      	orreq	r1, r0
 8000838:	2000      	moveq	r0, #0
 800083a:	f1b4 0cfd 	subs.w	ip, r4, #253	; 0xfd
 800083e:	bf88      	it	hi
 8000840:	f5bc 6fe0 	cmphi.w	ip, #1792	; 0x700
 8000844:	f63f aeaf 	bhi.w	80005a6 <__aeabi_dmul+0xde>
 8000848:	ebb5 0c03 	subs.w	ip, r5, r3
 800084c:	bf04      	itt	eq
 800084e:	ebb6 0c02 	subseq.w	ip, r6, r2
 8000852:	ea5f 0c50 	movseq.w	ip, r0, lsr #1
 8000856:	f150 0000 	adcs.w	r0, r0, #0
 800085a:	eb41 5104 	adc.w	r1, r1, r4, lsl #20
 800085e:	bd70      	pop	{r4, r5, r6, pc}
 8000860:	f00e 4e00 	and.w	lr, lr, #2147483648	; 0x80000000
 8000864:	ea4e 3111 	orr.w	r1, lr, r1, lsr #12
 8000868:	eb14 045c 	adds.w	r4, r4, ip, lsr #1
 800086c:	bfc2      	ittt	gt
 800086e:	ebd4 050c 	rsbsgt	r5, r4, ip
 8000872:	ea41 5104 	orrgt.w	r1, r1, r4, lsl #20
 8000876:	bd70      	popgt	{r4, r5, r6, pc}
 8000878:	f441 1180 	orr.w	r1, r1, #1048576	; 0x100000
 800087c:	f04f 0e00 	mov.w	lr, #0
 8000880:	3c01      	subs	r4, #1
 8000882:	e690      	b.n	80005a6 <__aeabi_dmul+0xde>
 8000884:	ea45 0e06 	orr.w	lr, r5, r6
 8000888:	e68d      	b.n	80005a6 <__aeabi_dmul+0xde>
 800088a:	ea0c 5513 	and.w	r5, ip, r3, lsr #20
 800088e:	ea94 0f0c 	teq	r4, ip
 8000892:	bf08      	it	eq
 8000894:	ea95 0f0c 	teqeq	r5, ip
 8000898:	f43f af3b 	beq.w	8000712 <__aeabi_dmul+0x24a>
 800089c:	ea94 0f0c 	teq	r4, ip
 80008a0:	d10a      	bne.n	80008b8 <__aeabi_ddiv+0x19c>
 80008a2:	ea50 3401 	orrs.w	r4, r0, r1, lsl #12
 80008a6:	f47f af34 	bne.w	8000712 <__aeabi_dmul+0x24a>
 80008aa:	ea95 0f0c 	teq	r5, ip
 80008ae:	f47f af25 	bne.w	80006fc <__aeabi_dmul+0x234>
 80008b2:	4610      	mov	r0, r2
 80008b4:	4619      	mov	r1, r3
 80008b6:	e72c      	b.n	8000712 <__aeabi_dmul+0x24a>
 80008b8:	ea95 0f0c 	teq	r5, ip
 80008bc:	d106      	bne.n	80008cc <__aeabi_ddiv+0x1b0>
 80008be:	ea52 3503 	orrs.w	r5, r2, r3, lsl #12
 80008c2:	f43f aefd 	beq.w	80006c0 <__aeabi_dmul+0x1f8>
 80008c6:	4610      	mov	r0, r2
 80008c8:	4619      	mov	r1, r3
 80008ca:	e722      	b.n	8000712 <__aeabi_dmul+0x24a>
 80008cc:	ea50 0641 	orrs.w	r6, r0, r1, lsl #1
 80008d0:	bf18      	it	ne
 80008d2:	ea52 0643 	orrsne.w	r6, r2, r3, lsl #1
 80008d6:	f47f aec5 	bne.w	8000664 <__aeabi_dmul+0x19c>
 80008da:	ea50 0441 	orrs.w	r4, r0, r1, lsl #1
 80008de:	f47f af0d 	bne.w	80006fc <__aeabi_dmul+0x234>
 80008e2:	ea52 0543 	orrs.w	r5, r2, r3, lsl #1
 80008e6:	f47f aeeb 	bne.w	80006c0 <__aeabi_dmul+0x1f8>
 80008ea:	e712      	b.n	8000712 <__aeabi_dmul+0x24a>

080008ec <__gedf2>:
 80008ec:	f04f 3cff 	mov.w	ip, #4294967295
 80008f0:	e006      	b.n	8000900 <__cmpdf2+0x4>
 80008f2:	bf00      	nop

080008f4 <__ledf2>:
 80008f4:	f04f 0c01 	mov.w	ip, #1
 80008f8:	e002      	b.n	8000900 <__cmpdf2+0x4>
 80008fa:	bf00      	nop

080008fc <__cmpdf2>:
 80008fc:	f04f 0c01 	mov.w	ip, #1
 8000900:	f84d cd04 	str.w	ip, [sp, #-4]!
 8000904:	ea4f 0c41 	mov.w	ip, r1, lsl #1
 8000908:	ea7f 5c6c 	mvns.w	ip, ip, asr #21
 800090c:	ea4f 0c43 	mov.w	ip, r3, lsl #1
 8000910:	bf18      	it	ne
 8000912:	ea7f 5c6c 	mvnsne.w	ip, ip, asr #21
 8000916:	d01b      	beq.n	8000950 <__cmpdf2+0x54>
 8000918:	b001      	add	sp, #4
 800091a:	ea50 0c41 	orrs.w	ip, r0, r1, lsl #1
 800091e:	bf0c      	ite	eq
 8000920:	ea52 0c43 	orrseq.w	ip, r2, r3, lsl #1
 8000924:	ea91 0f03 	teqne	r1, r3
 8000928:	bf02      	ittt	eq
 800092a:	ea90 0f02 	teqeq	r0, r2
 800092e:	2000      	moveq	r0, #0
 8000930:	4770      	bxeq	lr
 8000932:	f110 0f00 	cmn.w	r0, #0
 8000936:	ea91 0f03 	teq	r1, r3
 800093a:	bf58      	it	pl
 800093c:	4299      	cmppl	r1, r3
 800093e:	bf08      	it	eq
 8000940:	4290      	cmpeq	r0, r2
 8000942:	bf2c      	ite	cs
 8000944:	17d8      	asrcs	r0, r3, #31
 8000946:	ea6f 70e3 	mvncc.w	r0, r3, asr #31
 800094a:	f040 0001 	orr.w	r0, r0, #1
 800094e:	4770      	bx	lr
 8000950:	ea4f 0c41 	mov.w	ip, r1, lsl #1
 8000954:	ea7f 5c6c 	mvns.w	ip, ip, asr #21
 8000958:	d102      	bne.n	8000960 <__cmpdf2+0x64>
 800095a:	ea50 3c01 	orrs.w	ip, r0, r1, lsl #12
 800095e:	d107      	bne.n	8000970 <__cmpdf2+0x74>
 8000960:	ea4f 0c43 	mov.w	ip, r3, lsl #1
 8000964:	ea7f 5c6c 	mvns.w	ip, ip, asr #21
 8000968:	d1d6      	bne.n	8000918 <__cmpdf2+0x1c>
 800096a:	ea52 3c03 	orrs.w	ip, r2, r3, lsl #12
 800096e:	d0d3      	beq.n	8000918 <__cmpdf2+0x1c>
 8000970:	f85d 0b04 	ldr.w	r0, [sp], #4
 8000974:	4770      	bx	lr
 8000976:	bf00      	nop

08000978 <__aeabi_cdrcmple>:
 8000978:	4684      	mov	ip, r0
 800097a:	4610      	mov	r0, r2
 800097c:	4662      	mov	r2, ip
 800097e:	468c      	mov	ip, r1
 8000980:	4619      	mov	r1, r3
 8000982:	4663      	mov	r3, ip
 8000984:	e000      	b.n	8000988 <__aeabi_cdcmpeq>
 8000986:	bf00      	nop

08000988 <__aeabi_cdcmpeq>:
 8000988:	b501      	push	{r0, lr}
 800098a:	f7ff ffb7 	bl	80008fc <__cmpdf2>
 800098e:	2800      	cmp	r0, #0
 8000990:	bf48      	it	mi
 8000992:	f110 0f00 	cmnmi.w	r0, #0
 8000996:	bd01      	pop	{r0, pc}

08000998 <__aeabi_dcmpeq>:
 8000998:	f84d ed08 	str.w	lr, [sp, #-8]!
 800099c:	f7ff fff4 	bl	8000988 <__aeabi_cdcmpeq>
 80009a0:	bf0c      	ite	eq
 80009a2:	2001      	moveq	r0, #1
 80009a4:	2000      	movne	r0, #0
 80009a6:	f85d fb08 	ldr.w	pc, [sp], #8
 80009aa:	bf00      	nop

080009ac <__aeabi_dcmplt>:
 80009ac:	f84d ed08 	str.w	lr, [sp, #-8]!
 80009b0:	f7ff ffea 	bl	8000988 <__aeabi_cdcmpeq>
 80009b4:	bf34      	ite	cc
 80009b6:	2001      	movcc	r0, #1
 80009b8:	2000      	movcs	r0, #0
 80009ba:	f85d fb08 	ldr.w	pc, [sp], #8
 80009be:	bf00      	nop

080009c0 <__aeabi_dcmple>:
 80009c0:	f84d ed08 	str.w	lr, [sp, #-8]!
 80009c4:	f7ff ffe0 	bl	8000988 <__aeabi_cdcmpeq>
 80009c8:	bf94      	ite	ls
 80009ca:	2001      	movls	r0, #1
 80009cc:	2000      	movhi	r0, #0
 80009ce:	f85d fb08 	ldr.w	pc, [sp], #8
 80009d2:	bf00      	nop

080009d4 <__aeabi_dcmpge>:
 80009d4:	f84d ed08 	str.w	lr, [sp, #-8]!
 80009d8:	f7ff ffce 	bl	8000978 <__aeabi_cdrcmple>
 80009dc:	bf94      	ite	ls
 80009de:	2001      	movls	r0, #1
 80009e0:	2000      	movhi	r0, #0
 80009e2:	f85d fb08 	ldr.w	pc, [sp], #8
 80009e6:	bf00      	nop

080009e8 <__aeabi_dcmpgt>:
 80009e8:	f84d ed08 	str.w	lr, [sp, #-8]!
 80009ec:	f7ff ffc4 	bl	8000978 <__aeabi_cdrcmple>
 80009f0:	bf34      	ite	cc
 80009f2:	2001      	movcc	r0, #1
 80009f4:	2000      	movcs	r0, #0
 80009f6:	f85d fb08 	ldr.w	pc, [sp], #8
 80009fa:	bf00      	nop

080009fc <__aeabi_dcmpun>:
 80009fc:	ea4f 0c41 	mov.w	ip, r1, lsl #1
 8000a00:	ea7f 5c6c 	mvns.w	ip, ip, asr #21
 8000a04:	d102      	bne.n	8000a0c <__aeabi_dcmpun+0x10>
 8000a06:	ea50 3c01 	orrs.w	ip, r0, r1, lsl #12
 8000a0a:	d10a      	bne.n	8000a22 <__aeabi_dcmpun+0x26>
 8000a0c:	ea4f 0c43 	mov.w	ip, r3, lsl #1
 8000a10:	ea7f 5c6c 	mvns.w	ip, ip, asr #21
 8000a14:	d102      	bne.n	8000a1c <__aeabi_dcmpun+0x20>
 8000a16:	ea52 3c03 	orrs.w	ip, r2, r3, lsl #12
 8000a1a:	d102      	bne.n	8000a22 <__aeabi_dcmpun+0x26>
 8000a1c:	f04f 0000 	mov.w	r0, #0
 8000a20:	4770      	bx	lr
 8000a22:	f04f 0001 	mov.w	r0, #1
 8000a26:	4770      	bx	lr

08000a28 <__aeabi_d2f>:
 8000a28:	ea4f 0241 	mov.w	r2, r1, lsl #1
 8000a2c:	f1b2 43e0 	subs.w	r3, r2, #1879048192	; 0x70000000
 8000a30:	bf24      	itt	cs
 8000a32:	f5b3 1c00 	subscs.w	ip, r3, #2097152	; 0x200000
 8000a36:	f1dc 5cfe 	rsbscs	ip, ip, #532676608	; 0x1fc00000
 8000a3a:	d90d      	bls.n	8000a58 <__aeabi_d2f+0x30>
 8000a3c:	f001 4c00 	and.w	ip, r1, #2147483648	; 0x80000000
 8000a40:	ea4f 02c0 	mov.w	r2, r0, lsl #3
 8000a44:	ea4c 7050 	orr.w	r0, ip, r0, lsr #29
 8000a48:	f1b2 4f00 	cmp.w	r2, #2147483648	; 0x80000000
 8000a4c:	eb40 0083 	adc.w	r0, r0, r3, lsl #2
 8000a50:	bf08      	it	eq
 8000a52:	f020 0001 	biceq.w	r0, r0, #1
 8000a56:	4770      	bx	lr
 8000a58:	f011 4f80 	tst.w	r1, #1073741824	; 0x40000000
 8000a5c:	d121      	bne.n	8000aa2 <__aeabi_d2f+0x7a>
 8000a5e:	f113 7238 	adds.w	r2, r3, #48234496	; 0x2e00000
 8000a62:	bfbc      	itt	lt
 8000a64:	f001 4000 	andlt.w	r0, r1, #2147483648	; 0x80000000
 8000a68:	4770      	bxlt	lr
 8000a6a:	f441 1180 	orr.w	r1, r1, #1048576	; 0x100000
 8000a6e:	ea4f 5252 	mov.w	r2, r2, lsr #21
 8000a72:	f1c2 0218 	rsb	r2, r2, #24
 8000a76:	f1c2 0c20 	rsb	ip, r2, #32
 8000a7a:	fa10 f30c 	lsls.w	r3, r0, ip
 8000a7e:	fa20 f002 	lsr.w	r0, r0, r2
 8000a82:	bf18      	it	ne
 8000a84:	f040 0001 	orrne.w	r0, r0, #1
 8000a88:	ea4f 23c1 	mov.w	r3, r1, lsl #11
 8000a8c:	ea4f 23d3 	mov.w	r3, r3, lsr #11
 8000a90:	fa03 fc0c 	lsl.w	ip, r3, ip
 8000a94:	ea40 000c 	orr.w	r0, r0, ip
 8000a98:	fa23 f302 	lsr.w	r3, r3, r2
 8000a9c:	ea4f 0343 	mov.w	r3, r3, lsl #1
 8000aa0:	e7cc      	b.n	8000a3c <__aeabi_d2f+0x14>
 8000aa2:	ea7f 5362 	mvns.w	r3, r2, asr #21
 8000aa6:	d107      	bne.n	8000ab8 <__aeabi_d2f+0x90>
 8000aa8:	ea50 3301 	orrs.w	r3, r0, r1, lsl #12
 8000aac:	bf1e      	ittt	ne
 8000aae:	f04f 40fe 	movne.w	r0, #2130706432	; 0x7f000000
 8000ab2:	f440 0040 	orrne.w	r0, r0, #12582912	; 0xc00000
 8000ab6:	4770      	bxne	lr
 8000ab8:	f001 4000 	and.w	r0, r1, #2147483648	; 0x80000000
 8000abc:	f040 40fe 	orr.w	r0, r0, #2130706432	; 0x7f000000
 8000ac0:	f440 0000 	orr.w	r0, r0, #8388608	; 0x800000
 8000ac4:	4770      	bx	lr
 8000ac6:	bf00      	nop

08000ac8 <__aeabi_frsub>:
 8000ac8:	f080 4000 	eor.w	r0, r0, #2147483648	; 0x80000000
 8000acc:	e002      	b.n	8000ad4 <__addsf3>
 8000ace:	bf00      	nop

08000ad0 <__aeabi_fsub>:
 8000ad0:	f081 4100 	eor.w	r1, r1, #2147483648	; 0x80000000

08000ad4 <__addsf3>:
 8000ad4:	0042      	lsls	r2, r0, #1
 8000ad6:	bf1f      	itttt	ne
 8000ad8:	ea5f 0341 	movsne.w	r3, r1, lsl #1
 8000adc:	ea92 0f03 	teqne	r2, r3
 8000ae0:	ea7f 6c22 	mvnsne.w	ip, r2, asr #24
 8000ae4:	ea7f 6c23 	mvnsne.w	ip, r3, asr #24
 8000ae8:	d06a      	beq.n	8000bc0 <__addsf3+0xec>
 8000aea:	ea4f 6212 	mov.w	r2, r2, lsr #24
 8000aee:	ebd2 6313 	rsbs	r3, r2, r3, lsr #24
 8000af2:	bfc1      	itttt	gt
 8000af4:	18d2      	addgt	r2, r2, r3
 8000af6:	4041      	eorgt	r1, r0
 8000af8:	4048      	eorgt	r0, r1
 8000afa:	4041      	eorgt	r1, r0
 8000afc:	bfb8      	it	lt
 8000afe:	425b      	neglt	r3, r3
 8000b00:	2b19      	cmp	r3, #25
 8000b02:	bf88      	it	hi
 8000b04:	4770      	bxhi	lr
 8000b06:	f010 4f00 	tst.w	r0, #2147483648	; 0x80000000
 8000b0a:	f440 0000 	orr.w	r0, r0, #8388608	; 0x800000
 8000b0e:	f020 407f 	bic.w	r0, r0, #4278190080	; 0xff000000
 8000b12:	bf18      	it	ne
 8000b14:	4240      	negne	r0, r0
 8000b16:	f011 4f00 	tst.w	r1, #2147483648	; 0x80000000
 8000b1a:	f441 0100 	orr.w	r1, r1, #8388608	; 0x800000
 8000b1e:	f021 417f 	bic.w	r1, r1, #4278190080	; 0xff000000
 8000b22:	bf18      	it	ne
 8000b24:	4249      	negne	r1, r1
 8000b26:	ea92 0f03 	teq	r2, r3
 8000b2a:	d03f      	beq.n	8000bac <__addsf3+0xd8>
 8000b2c:	f1a2 0201 	sub.w	r2, r2, #1
 8000b30:	fa41 fc03 	asr.w	ip, r1, r3
 8000b34:	eb10 000c 	adds.w	r0, r0, ip
 8000b38:	f1c3 0320 	rsb	r3, r3, #32
 8000b3c:	fa01 f103 	lsl.w	r1, r1, r3
 8000b40:	f000 4300 	and.w	r3, r0, #2147483648	; 0x80000000
 8000b44:	d502      	bpl.n	8000b4c <__addsf3+0x78>
 8000b46:	4249      	negs	r1, r1
 8000b48:	eb60 0040 	sbc.w	r0, r0, r0, lsl #1
 8000b4c:	f5b0 0f00 	cmp.w	r0, #8388608	; 0x800000
 8000b50:	d313      	bcc.n	8000b7a <__addsf3+0xa6>
 8000b52:	f1b0 7f80 	cmp.w	r0, #16777216	; 0x1000000
 8000b56:	d306      	bcc.n	8000b66 <__addsf3+0x92>
 8000b58:	0840      	lsrs	r0, r0, #1
 8000b5a:	ea4f 0131 	mov.w	r1, r1, rrx
 8000b5e:	f102 0201 	add.w	r2, r2, #1
 8000b62:	2afe      	cmp	r2, #254	; 0xfe
 8000b64:	d251      	bcs.n	8000c0a <__addsf3+0x136>
 8000b66:	f1b1 4f00 	cmp.w	r1, #2147483648	; 0x80000000
 8000b6a:	eb40 50c2 	adc.w	r0, r0, r2, lsl #23
 8000b6e:	bf08      	it	eq
 8000b70:	f020 0001 	biceq.w	r0, r0, #1
 8000b74:	ea40 0003 	orr.w	r0, r0, r3
 8000b78:	4770      	bx	lr
 8000b7a:	0049      	lsls	r1, r1, #1
 8000b7c:	eb40 0000 	adc.w	r0, r0, r0
 8000b80:	3a01      	subs	r2, #1
 8000b82:	bf28      	it	cs
 8000b84:	f5b0 0f00 	cmpcs.w	r0, #8388608	; 0x800000
 8000b88:	d2ed      	bcs.n	8000b66 <__addsf3+0x92>
 8000b8a:	fab0 fc80 	clz	ip, r0
 8000b8e:	f1ac 0c08 	sub.w	ip, ip, #8
 8000b92:	ebb2 020c 	subs.w	r2, r2, ip
 8000b96:	fa00 f00c 	lsl.w	r0, r0, ip
 8000b9a:	bfaa      	itet	ge
 8000b9c:	eb00 50c2 	addge.w	r0, r0, r2, lsl #23
 8000ba0:	4252      	neglt	r2, r2
 8000ba2:	4318      	orrge	r0, r3
 8000ba4:	bfbc      	itt	lt
 8000ba6:	40d0      	lsrlt	r0, r2
 8000ba8:	4318      	orrlt	r0, r3
 8000baa:	4770      	bx	lr
 8000bac:	f092 0f00 	teq	r2, #0
 8000bb0:	f481 0100 	eor.w	r1, r1, #8388608	; 0x800000
 8000bb4:	bf06      	itte	eq
 8000bb6:	f480 0000 	eoreq.w	r0, r0, #8388608	; 0x800000
 8000bba:	3201      	addeq	r2, #1
 8000bbc:	3b01      	subne	r3, #1
 8000bbe:	e7b5      	b.n	8000b2c <__addsf3+0x58>
 8000bc0:	ea4f 0341 	mov.w	r3, r1, lsl #1
 8000bc4:	ea7f 6c22 	mvns.w	ip, r2, asr #24
 8000bc8:	bf18      	it	ne
 8000bca:	ea7f 6c23 	mvnsne.w	ip, r3, asr #24
 8000bce:	d021      	beq.n	8000c14 <__addsf3+0x140>
 8000bd0:	ea92 0f03 	teq	r2, r3
 8000bd4:	d004      	beq.n	8000be0 <__addsf3+0x10c>
 8000bd6:	f092 0f00 	teq	r2, #0
 8000bda:	bf08      	it	eq
 8000bdc:	4608      	moveq	r0, r1
 8000bde:	4770      	bx	lr
 8000be0:	ea90 0f01 	teq	r0, r1
 8000be4:	bf1c      	itt	ne
 8000be6:	2000      	movne	r0, #0
 8000be8:	4770      	bxne	lr
 8000bea:	f012 4f7f 	tst.w	r2, #4278190080	; 0xff000000
 8000bee:	d104      	bne.n	8000bfa <__addsf3+0x126>
 8000bf0:	0040      	lsls	r0, r0, #1
 8000bf2:	bf28      	it	cs
 8000bf4:	f040 4000 	orrcs.w	r0, r0, #2147483648	; 0x80000000
 8000bf8:	4770      	bx	lr
 8000bfa:	f112 7200 	adds.w	r2, r2, #33554432	; 0x2000000
 8000bfe:	bf3c      	itt	cc
 8000c00:	f500 0000 	addcc.w	r0, r0, #8388608	; 0x800000
 8000c04:	4770      	bxcc	lr
 8000c06:	f000 4300 	and.w	r3, r0, #2147483648	; 0x80000000
 8000c0a:	f043 40fe 	orr.w	r0, r3, #2130706432	; 0x7f000000
 8000c0e:	f440 0000 	orr.w	r0, r0, #8388608	; 0x800000
 8000c12:	4770      	bx	lr
 8000c14:	ea7f 6222 	mvns.w	r2, r2, asr #24
 8000c18:	bf16      	itet	ne
 8000c1a:	4608      	movne	r0, r1
 8000c1c:	ea7f 6323 	mvnseq.w	r3, r3, asr #24
 8000c20:	4601      	movne	r1, r0
 8000c22:	0242      	lsls	r2, r0, #9
 8000c24:	bf06      	itte	eq
 8000c26:	ea5f 2341 	movseq.w	r3, r1, lsl #9
 8000c2a:	ea90 0f01 	teqeq	r0, r1
 8000c2e:	f440 0080 	orrne.w	r0, r0, #4194304	; 0x400000
 8000c32:	4770      	bx	lr

08000c34 <__aeabi_ui2f>:
 8000c34:	f04f 0300 	mov.w	r3, #0
 8000c38:	e004      	b.n	8000c44 <__aeabi_i2f+0x8>
 8000c3a:	bf00      	nop

08000c3c <__aeabi_i2f>:
 8000c3c:	f010 4300 	ands.w	r3, r0, #2147483648	; 0x80000000
 8000c40:	bf48      	it	mi
 8000c42:	4240      	negmi	r0, r0
 8000c44:	ea5f 0c00 	movs.w	ip, r0
 8000c48:	bf08      	it	eq
 8000c4a:	4770      	bxeq	lr
 8000c4c:	f043 4396 	orr.w	r3, r3, #1258291200	; 0x4b000000
 8000c50:	4601      	mov	r1, r0
 8000c52:	f04f 0000 	mov.w	r0, #0
 8000c56:	e01c      	b.n	8000c92 <__aeabi_l2f+0x2a>

08000c58 <__aeabi_ul2f>:
 8000c58:	ea50 0201 	orrs.w	r2, r0, r1
 8000c5c:	bf08      	it	eq
 8000c5e:	4770      	bxeq	lr
 8000c60:	f04f 0300 	mov.w	r3, #0
 8000c64:	e00a      	b.n	8000c7c <__aeabi_l2f+0x14>
 8000c66:	bf00      	nop

08000c68 <__aeabi_l2f>:
 8000c68:	ea50 0201 	orrs.w	r2, r0, r1
 8000c6c:	bf08      	it	eq
 8000c6e:	4770      	bxeq	lr
 8000c70:	f011 4300 	ands.w	r3, r1, #2147483648	; 0x80000000
 8000c74:	d502      	bpl.n	8000c7c <__aeabi_l2f+0x14>
 8000c76:	4240      	negs	r0, r0
 8000c78:	eb61 0141 	sbc.w	r1, r1, r1, lsl #1
 8000c7c:	ea5f 0c01 	movs.w	ip, r1
 8000c80:	bf02      	ittt	eq
 8000c82:	4684      	moveq	ip, r0
 8000c84:	4601      	moveq	r1, r0
 8000c86:	2000      	moveq	r0, #0
 8000c88:	f043 43b6 	orr.w	r3, r3, #1526726656	; 0x5b000000
 8000c8c:	bf08      	it	eq
 8000c8e:	f1a3 5380 	subeq.w	r3, r3, #268435456	; 0x10000000
 8000c92:	f5a3 0300 	sub.w	r3, r3, #8388608	; 0x800000
 8000c96:	fabc f28c 	clz	r2, ip
 8000c9a:	3a08      	subs	r2, #8
 8000c9c:	eba3 53c2 	sub.w	r3, r3, r2, lsl #23
 8000ca0:	db10      	blt.n	8000cc4 <__aeabi_l2f+0x5c>
 8000ca2:	fa01 fc02 	lsl.w	ip, r1, r2
 8000ca6:	4463      	add	r3, ip
 8000ca8:	fa00 fc02 	lsl.w	ip, r0, r2
 8000cac:	f1c2 0220 	rsb	r2, r2, #32
 8000cb0:	f1bc 4f00 	cmp.w	ip, #2147483648	; 0x80000000
 8000cb4:	fa20 f202 	lsr.w	r2, r0, r2
 8000cb8:	eb43 0002 	adc.w	r0, r3, r2
 8000cbc:	bf08      	it	eq
 8000cbe:	f020 0001 	biceq.w	r0, r0, #1
 8000cc2:	4770      	bx	lr
 8000cc4:	f102 0220 	add.w	r2, r2, #32
 8000cc8:	fa01 fc02 	lsl.w	ip, r1, r2
 8000ccc:	f1c2 0220 	rsb	r2, r2, #32
 8000cd0:	ea50 004c 	orrs.w	r0, r0, ip, lsl #1
 8000cd4:	fa21 f202 	lsr.w	r2, r1, r2
 8000cd8:	eb43 0002 	adc.w	r0, r3, r2
 8000cdc:	bf08      	it	eq
 8000cde:	ea20 70dc 	biceq.w	r0, r0, ip, lsr #31
 8000ce2:	4770      	bx	lr

08000ce4 <__aeabi_fmul>:
 8000ce4:	f04f 0cff 	mov.w	ip, #255	; 0xff
 8000ce8:	ea1c 52d0 	ands.w	r2, ip, r0, lsr #23
 8000cec:	bf1e      	ittt	ne
 8000cee:	ea1c 53d1 	andsne.w	r3, ip, r1, lsr #23
 8000cf2:	ea92 0f0c 	teqne	r2, ip
 8000cf6:	ea93 0f0c 	teqne	r3, ip
 8000cfa:	d06f      	beq.n	8000ddc <__aeabi_fmul+0xf8>
 8000cfc:	441a      	add	r2, r3
 8000cfe:	ea80 0c01 	eor.w	ip, r0, r1
 8000d02:	0240      	lsls	r0, r0, #9
 8000d04:	bf18      	it	ne
 8000d06:	ea5f 2141 	movsne.w	r1, r1, lsl #9
 8000d0a:	d01e      	beq.n	8000d4a <__aeabi_fmul+0x66>
 8000d0c:	f04f 6300 	mov.w	r3, #134217728	; 0x8000000
 8000d10:	ea43 1050 	orr.w	r0, r3, r0, lsr #5
 8000d14:	ea43 1151 	orr.w	r1, r3, r1, lsr #5
 8000d18:	fba0 3101 	umull	r3, r1, r0, r1
 8000d1c:	f00c 4000 	and.w	r0, ip, #2147483648	; 0x80000000
 8000d20:	f5b1 0f00 	cmp.w	r1, #8388608	; 0x800000
 8000d24:	bf3e      	ittt	cc
 8000d26:	0049      	lslcc	r1, r1, #1
 8000d28:	ea41 71d3 	orrcc.w	r1, r1, r3, lsr #31
 8000d2c:	005b      	lslcc	r3, r3, #1
 8000d2e:	ea40 0001 	orr.w	r0, r0, r1
 8000d32:	f162 027f 	sbc.w	r2, r2, #127	; 0x7f
 8000d36:	2afd      	cmp	r2, #253	; 0xfd
 8000d38:	d81d      	bhi.n	8000d76 <__aeabi_fmul+0x92>
 8000d3a:	f1b3 4f00 	cmp.w	r3, #2147483648	; 0x80000000
 8000d3e:	eb40 50c2 	adc.w	r0, r0, r2, lsl #23
 8000d42:	bf08      	it	eq
 8000d44:	f020 0001 	biceq.w	r0, r0, #1
 8000d48:	4770      	bx	lr
 8000d4a:	f090 0f00 	teq	r0, #0
 8000d4e:	f00c 4c00 	and.w	ip, ip, #2147483648	; 0x80000000
 8000d52:	bf08      	it	eq
 8000d54:	0249      	lsleq	r1, r1, #9
 8000d56:	ea4c 2050 	orr.w	r0, ip, r0, lsr #9
 8000d5a:	ea40 2051 	orr.w	r0, r0, r1, lsr #9
 8000d5e:	3a7f      	subs	r2, #127	; 0x7f
 8000d60:	bfc2      	ittt	gt
 8000d62:	f1d2 03ff 	rsbsgt	r3, r2, #255	; 0xff
 8000d66:	ea40 50c2 	orrgt.w	r0, r0, r2, lsl #23
 8000d6a:	4770      	bxgt	lr
 8000d6c:	f440 0000 	orr.w	r0, r0, #8388608	; 0x800000
 8000d70:	f04f 0300 	mov.w	r3, #0
 8000d74:	3a01      	subs	r2, #1
 8000d76:	dc5d      	bgt.n	8000e34 <__aeabi_fmul+0x150>
 8000d78:	f112 0f19 	cmn.w	r2, #25
 8000d7c:	bfdc      	itt	le
 8000d7e:	f000 4000 	andle.w	r0, r0, #2147483648	; 0x80000000
 8000d82:	4770      	bxle	lr
 8000d84:	f1c2 0200 	rsb	r2, r2, #0
 8000d88:	0041      	lsls	r1, r0, #1
 8000d8a:	fa21 f102 	lsr.w	r1, r1, r2
 8000d8e:	f1c2 0220 	rsb	r2, r2, #32
 8000d92:	fa00 fc02 	lsl.w	ip, r0, r2
 8000d96:	ea5f 0031 	movs.w	r0, r1, rrx
 8000d9a:	f140 0000 	adc.w	r0, r0, #0
 8000d9e:	ea53 034c 	orrs.w	r3, r3, ip, lsl #1
 8000da2:	bf08      	it	eq
 8000da4:	ea20 70dc 	biceq.w	r0, r0, ip, lsr #31
 8000da8:	4770      	bx	lr
 8000daa:	f092 0f00 	teq	r2, #0
 8000dae:	f000 4c00 	and.w	ip, r0, #2147483648	; 0x80000000
 8000db2:	bf02      	ittt	eq
 8000db4:	0040      	lsleq	r0, r0, #1
 8000db6:	f410 0f00 	tsteq.w	r0, #8388608	; 0x800000
 8000dba:	3a01      	subeq	r2, #1
 8000dbc:	d0f9      	beq.n	8000db2 <__aeabi_fmul+0xce>
 8000dbe:	ea40 000c 	orr.w	r0, r0, ip
 8000dc2:	f093 0f00 	teq	r3, #0
 8000dc6:	f001 4c00 	and.w	ip, r1, #2147483648	; 0x80000000
 8000dca:	bf02      	ittt	eq
 8000dcc:	0049      	lsleq	r1, r1, #1
 8000dce:	f411 0f00 	tsteq.w	r1, #8388608	; 0x800000
 8000dd2:	3b01      	subeq	r3, #1
 8000dd4:	d0f9      	beq.n	8000dca <__aeabi_fmul+0xe6>
 8000dd6:	ea41 010c 	orr.w	r1, r1, ip
 8000dda:	e78f      	b.n	8000cfc <__aeabi_fmul+0x18>
 8000ddc:	ea0c 53d1 	and.w	r3, ip, r1, lsr #23
 8000de0:	ea92 0f0c 	teq	r2, ip
 8000de4:	bf18      	it	ne
 8000de6:	ea93 0f0c 	teqne	r3, ip
 8000dea:	d00a      	beq.n	8000e02 <__aeabi_fmul+0x11e>
 8000dec:	f030 4c00 	bics.w	ip, r0, #2147483648	; 0x80000000
 8000df0:	bf18      	it	ne
 8000df2:	f031 4c00 	bicsne.w	ip, r1, #2147483648	; 0x80000000
 8000df6:	d1d8      	bne.n	8000daa <__aeabi_fmul+0xc6>
 8000df8:	ea80 0001 	eor.w	r0, r0, r1
 8000dfc:	f000 4000 	and.w	r0, r0, #2147483648	; 0x80000000
 8000e00:	4770      	bx	lr
 8000e02:	f090 0f00 	teq	r0, #0
 8000e06:	bf17      	itett	ne
 8000e08:	f090 4f00 	teqne	r0, #2147483648	; 0x80000000
 8000e0c:	4608      	moveq	r0, r1
 8000e0e:	f091 0f00 	teqne	r1, #0
 8000e12:	f091 4f00 	teqne	r1, #2147483648	; 0x80000000
 8000e16:	d014      	beq.n	8000e42 <__aeabi_fmul+0x15e>
 8000e18:	ea92 0f0c 	teq	r2, ip
 8000e1c:	d101      	bne.n	8000e22 <__aeabi_fmul+0x13e>
 8000e1e:	0242      	lsls	r2, r0, #9
 8000e20:	d10f      	bne.n	8000e42 <__aeabi_fmul+0x15e>
 8000e22:	ea93 0f0c 	teq	r3, ip
 8000e26:	d103      	bne.n	8000e30 <__aeabi_fmul+0x14c>
 8000e28:	024b      	lsls	r3, r1, #9
 8000e2a:	bf18      	it	ne
 8000e2c:	4608      	movne	r0, r1
 8000e2e:	d108      	bne.n	8000e42 <__aeabi_fmul+0x15e>
 8000e30:	ea80 0001 	eor.w	r0, r0, r1
 8000e34:	f000 4000 	and.w	r0, r0, #2147483648	; 0x80000000
 8000e38:	f040 40fe 	orr.w	r0, r0, #2130706432	; 0x7f000000
 8000e3c:	f440 0000 	orr.w	r0, r0, #8388608	; 0x800000
 8000e40:	4770      	bx	lr
 8000e42:	f040 40fe 	orr.w	r0, r0, #2130706432	; 0x7f000000
 8000e46:	f440 0040 	orr.w	r0, r0, #12582912	; 0xc00000
 8000e4a:	4770      	bx	lr

08000e4c <__aeabi_fdiv>:
 8000e4c:	f04f 0cff 	mov.w	ip, #255	; 0xff
 8000e50:	ea1c 52d0 	ands.w	r2, ip, r0, lsr #23
 8000e54:	bf1e      	ittt	ne
 8000e56:	ea1c 53d1 	andsne.w	r3, ip, r1, lsr #23
 8000e5a:	ea92 0f0c 	teqne	r2, ip
 8000e5e:	ea93 0f0c 	teqne	r3, ip
 8000e62:	d069      	beq.n	8000f38 <__aeabi_fdiv+0xec>
 8000e64:	eba2 0203 	sub.w	r2, r2, r3
 8000e68:	ea80 0c01 	eor.w	ip, r0, r1
 8000e6c:	0249      	lsls	r1, r1, #9
 8000e6e:	ea4f 2040 	mov.w	r0, r0, lsl #9
 8000e72:	d037      	beq.n	8000ee4 <__aeabi_fdiv+0x98>
 8000e74:	f04f 5380 	mov.w	r3, #268435456	; 0x10000000
 8000e78:	ea43 1111 	orr.w	r1, r3, r1, lsr #4
 8000e7c:	ea43 1310 	orr.w	r3, r3, r0, lsr #4
 8000e80:	f00c 4000 	and.w	r0, ip, #2147483648	; 0x80000000
 8000e84:	428b      	cmp	r3, r1
 8000e86:	bf38      	it	cc
 8000e88:	005b      	lslcc	r3, r3, #1
 8000e8a:	f142 027d 	adc.w	r2, r2, #125	; 0x7d
 8000e8e:	f44f 0c00 	mov.w	ip, #8388608	; 0x800000
 8000e92:	428b      	cmp	r3, r1
 8000e94:	bf24      	itt	cs
 8000e96:	1a5b      	subcs	r3, r3, r1
 8000e98:	ea40 000c 	orrcs.w	r0, r0, ip
 8000e9c:	ebb3 0f51 	cmp.w	r3, r1, lsr #1
 8000ea0:	bf24      	itt	cs
 8000ea2:	eba3 0351 	subcs.w	r3, r3, r1, lsr #1
 8000ea6:	ea40 005c 	orrcs.w	r0, r0, ip, lsr #1
 8000eaa:	ebb3 0f91 	cmp.w	r3, r1, lsr #2
 8000eae:	bf24      	itt	cs
 8000eb0:	eba3 0391 	subcs.w	r3, r3, r1, lsr #2
 8000eb4:	ea40 009c 	orrcs.w	r0, r0, ip, lsr #2
 8000eb8:	ebb3 0fd1 	cmp.w	r3, r1, lsr #3
 8000ebc:	bf24      	itt	cs
 8000ebe:	eba3 03d1 	subcs.w	r3, r3, r1, lsr #3
 8000ec2:	ea40 00dc 	orrcs.w	r0, r0, ip, lsr #3
 8000ec6:	011b      	lsls	r3, r3, #4
 8000ec8:	bf18      	it	ne
 8000eca:	ea5f 1c1c 	movsne.w	ip, ip, lsr #4
 8000ece:	d1e0      	bne.n	8000e92 <__aeabi_fdiv+0x46>
 8000ed0:	2afd      	cmp	r2, #253	; 0xfd
 8000ed2:	f63f af50 	bhi.w	8000d76 <__aeabi_fmul+0x92>
 8000ed6:	428b      	cmp	r3, r1
 8000ed8:	eb40 50c2 	adc.w	r0, r0, r2, lsl #23
 8000edc:	bf08      	it	eq
 8000ede:	f020 0001 	biceq.w	r0, r0, #1
 8000ee2:	4770      	bx	lr
 8000ee4:	f00c 4c00 	and.w	ip, ip, #2147483648	; 0x80000000
 8000ee8:	ea4c 2050 	orr.w	r0, ip, r0, lsr #9
 8000eec:	327f      	adds	r2, #127	; 0x7f
 8000eee:	bfc2      	ittt	gt
 8000ef0:	f1d2 03ff 	rsbsgt	r3, r2, #255	; 0xff
 8000ef4:	ea40 50c2 	orrgt.w	r0, r0, r2, lsl #23
 8000ef8:	4770      	bxgt	lr
 8000efa:	f440 0000 	orr.w	r0, r0, #8388608	; 0x800000
 8000efe:	f04f 0300 	mov.w	r3, #0
 8000f02:	3a01      	subs	r2, #1
 8000f04:	e737      	b.n	8000d76 <__aeabi_fmul+0x92>
 8000f06:	f092 0f00 	teq	r2, #0
 8000f0a:	f000 4c00 	and.w	ip, r0, #2147483648	; 0x80000000
 8000f0e:	bf02      	ittt	eq
 8000f10:	0040      	lsleq	r0, r0, #1
 8000f12:	f410 0f00 	tsteq.w	r0, #8388608	; 0x800000
 8000f16:	3a01      	subeq	r2, #1
 8000f18:	d0f9      	beq.n	8000f0e <__aeabi_fdiv+0xc2>
 8000f1a:	ea40 000c 	orr.w	r0, r0, ip
 8000f1e:	f093 0f00 	teq	r3, #0
 8000f22:	f001 4c00 	and.w	ip, r1, #2147483648	; 0x80000000
 8000f26:	bf02      	ittt	eq
 8000f28:	0049      	lsleq	r1, r1, #1
 8000f2a:	f411 0f00 	tsteq.w	r1, #8388608	; 0x800000
 8000f2e:	3b01      	subeq	r3, #1
 8000f30:	d0f9      	beq.n	8000f26 <__aeabi_fdiv+0xda>
 8000f32:	ea41 010c 	orr.w	r1, r1, ip
 8000f36:	e795      	b.n	8000e64 <__aeabi_fdiv+0x18>
 8000f38:	ea0c 53d1 	and.w	r3, ip, r1, lsr #23
 8000f3c:	ea92 0f0c 	teq	r2, ip
 8000f40:	d108      	bne.n	8000f54 <__aeabi_fdiv+0x108>
 8000f42:	0242      	lsls	r2, r0, #9
 8000f44:	f47f af7d 	bne.w	8000e42 <__aeabi_fmul+0x15e>
 8000f48:	ea93 0f0c 	teq	r3, ip
 8000f4c:	f47f af70 	bne.w	8000e30 <__aeabi_fmul+0x14c>
 8000f50:	4608      	mov	r0, r1
 8000f52:	e776      	b.n	8000e42 <__aeabi_fmul+0x15e>
 8000f54:	ea93 0f0c 	teq	r3, ip
 8000f58:	d104      	bne.n	8000f64 <__aeabi_fdiv+0x118>
 8000f5a:	024b      	lsls	r3, r1, #9
 8000f5c:	f43f af4c 	beq.w	8000df8 <__aeabi_fmul+0x114>
 8000f60:	4608      	mov	r0, r1
 8000f62:	e76e      	b.n	8000e42 <__aeabi_fmul+0x15e>
 8000f64:	f030 4c00 	bics.w	ip, r0, #2147483648	; 0x80000000
 8000f68:	bf18      	it	ne
 8000f6a:	f031 4c00 	bicsne.w	ip, r1, #2147483648	; 0x80000000
 8000f6e:	d1ca      	bne.n	8000f06 <__aeabi_fdiv+0xba>
 8000f70:	f030 4200 	bics.w	r2, r0, #2147483648	; 0x80000000
 8000f74:	f47f af5c 	bne.w	8000e30 <__aeabi_fmul+0x14c>
 8000f78:	f031 4300 	bics.w	r3, r1, #2147483648	; 0x80000000
 8000f7c:	f47f af3c 	bne.w	8000df8 <__aeabi_fmul+0x114>
 8000f80:	e75f      	b.n	8000e42 <__aeabi_fmul+0x15e>
 8000f82:	bf00      	nop

08000f84 <__gesf2>:
 8000f84:	f04f 3cff 	mov.w	ip, #4294967295
 8000f88:	e006      	b.n	8000f98 <__cmpsf2+0x4>
 8000f8a:	bf00      	nop

08000f8c <__lesf2>:
 8000f8c:	f04f 0c01 	mov.w	ip, #1
 8000f90:	e002      	b.n	8000f98 <__cmpsf2+0x4>
 8000f92:	bf00      	nop

08000f94 <__cmpsf2>:
 8000f94:	f04f 0c01 	mov.w	ip, #1
 8000f98:	f84d cd04 	str.w	ip, [sp, #-4]!
 8000f9c:	ea4f 0240 	mov.w	r2, r0, lsl #1
 8000fa0:	ea4f 0341 	mov.w	r3, r1, lsl #1
 8000fa4:	ea7f 6c22 	mvns.w	ip, r2, asr #24
 8000fa8:	bf18      	it	ne
 8000faa:	ea7f 6c23 	mvnsne.w	ip, r3, asr #24
 8000fae:	d011      	beq.n	8000fd4 <__cmpsf2+0x40>
 8000fb0:	b001      	add	sp, #4
 8000fb2:	ea52 0c53 	orrs.w	ip, r2, r3, lsr #1
 8000fb6:	bf18      	it	ne
 8000fb8:	ea90 0f01 	teqne	r0, r1
 8000fbc:	bf58      	it	pl
 8000fbe:	ebb2 0003 	subspl.w	r0, r2, r3
 8000fc2:	bf88      	it	hi
 8000fc4:	17c8      	asrhi	r0, r1, #31
 8000fc6:	bf38      	it	cc
 8000fc8:	ea6f 70e1 	mvncc.w	r0, r1, asr #31
 8000fcc:	bf18      	it	ne
 8000fce:	f040 0001 	orrne.w	r0, r0, #1
 8000fd2:	4770      	bx	lr
 8000fd4:	ea7f 6c22 	mvns.w	ip, r2, asr #24
 8000fd8:	d102      	bne.n	8000fe0 <__cmpsf2+0x4c>
 8000fda:	ea5f 2c40 	movs.w	ip, r0, lsl #9
 8000fde:	d105      	bne.n	8000fec <__cmpsf2+0x58>
 8000fe0:	ea7f 6c23 	mvns.w	ip, r3, asr #24
 8000fe4:	d1e4      	bne.n	8000fb0 <__cmpsf2+0x1c>
 8000fe6:	ea5f 2c41 	movs.w	ip, r1, lsl #9
 8000fea:	d0e1      	beq.n	8000fb0 <__cmpsf2+0x1c>
 8000fec:	f85d 0b04 	ldr.w	r0, [sp], #4
 8000ff0:	4770      	bx	lr
 8000ff2:	bf00      	nop

08000ff4 <__aeabi_cfrcmple>:
 8000ff4:	4684      	mov	ip, r0
 8000ff6:	4608      	mov	r0, r1
 8000ff8:	4661      	mov	r1, ip
 8000ffa:	e7ff      	b.n	8000ffc <__aeabi_cfcmpeq>

08000ffc <__aeabi_cfcmpeq>:
 8000ffc:	b50f      	push	{r0, r1, r2, r3, lr}
 8000ffe:	f7ff ffc9 	bl	8000f94 <__cmpsf2>
 8001002:	2800      	cmp	r0, #0
 8001004:	bf48      	it	mi
 8001006:	f110 0f00 	cmnmi.w	r0, #0
 800100a:	bd0f      	pop	{r0, r1, r2, r3, pc}

0800100c <__aeabi_fcmpeq>:
 800100c:	f84d ed08 	str.w	lr, [sp, #-8]!
 8001010:	f7ff fff4 	bl	8000ffc <__aeabi_cfcmpeq>
 8001014:	bf0c      	ite	eq
 8001016:	2001      	moveq	r0, #1
 8001018:	2000      	movne	r0, #0
 800101a:	f85d fb08 	ldr.w	pc, [sp], #8
 800101e:	bf00      	nop

08001020 <__aeabi_fcmplt>:
 8001020:	f84d ed08 	str.w	lr, [sp, #-8]!
 8001024:	f7ff ffea 	bl	8000ffc <__aeabi_cfcmpeq>
 8001028:	bf34      	ite	cc
 800102a:	2001      	movcc	r0, #1
 800102c:	2000      	movcs	r0, #0
 800102e:	f85d fb08 	ldr.w	pc, [sp], #8
 8001032:	bf00      	nop

08001034 <__aeabi_fcmple>:
 8001034:	f84d ed08 	str.w	lr, [sp, #-8]!
 8001038:	f7ff ffe0 	bl	8000ffc <__aeabi_cfcmpeq>
 800103c:	bf94      	ite	ls
 800103e:	2001      	movls	r0, #1
 8001040:	2000      	movhi	r0, #0
 8001042:	f85d fb08 	ldr.w	pc, [sp], #8
 8001046:	bf00      	nop

08001048 <__aeabi_fcmpge>:
 8001048:	f84d ed08 	str.w	lr, [sp, #-8]!
 800104c:	f7ff ffd2 	bl	8000ff4 <__aeabi_cfrcmple>
 8001050:	bf94      	ite	ls
 8001052:	2001      	movls	r0, #1
 8001054:	2000      	movhi	r0, #0
 8001056:	f85d fb08 	ldr.w	pc, [sp], #8
 800105a:	bf00      	nop

0800105c <__aeabi_fcmpgt>:
 800105c:	f84d ed08 	str.w	lr, [sp, #-8]!
 8001060:	f7ff ffc8 	bl	8000ff4 <__aeabi_cfrcmple>
 8001064:	bf34      	ite	cc
 8001066:	2001      	movcc	r0, #1
 8001068:	2000      	movcs	r0, #0
 800106a:	f85d fb08 	ldr.w	pc, [sp], #8
 800106e:	bf00      	nop

08001070 <__aeabi_f2uiz>:
 8001070:	0042      	lsls	r2, r0, #1
 8001072:	d20e      	bcs.n	8001092 <__aeabi_f2uiz+0x22>
 8001074:	f1b2 4ffe 	cmp.w	r2, #2130706432	; 0x7f000000
 8001078:	d30b      	bcc.n	8001092 <__aeabi_f2uiz+0x22>
 800107a:	f04f 039e 	mov.w	r3, #158	; 0x9e
 800107e:	ebb3 6212 	subs.w	r2, r3, r2, lsr #24
 8001082:	d409      	bmi.n	8001098 <__aeabi_f2uiz+0x28>
 8001084:	ea4f 2300 	mov.w	r3, r0, lsl #8
 8001088:	f043 4300 	orr.w	r3, r3, #2147483648	; 0x80000000
 800108c:	fa23 f002 	lsr.w	r0, r3, r2
 8001090:	4770      	bx	lr
 8001092:	f04f 0000 	mov.w	r0, #0
 8001096:	4770      	bx	lr
 8001098:	f112 0f61 	cmn.w	r2, #97	; 0x61
 800109c:	d101      	bne.n	80010a2 <__aeabi_f2uiz+0x32>
 800109e:	0242      	lsls	r2, r0, #9
 80010a0:	d102      	bne.n	80010a8 <__aeabi_f2uiz+0x38>
 80010a2:	f04f 30ff 	mov.w	r0, #4294967295
 80010a6:	4770      	bx	lr
 80010a8:	f04f 0000 	mov.w	r0, #0
 80010ac:	4770      	bx	lr
 80010ae:	bf00      	nop

080010b0 <readbuttons>:


//vstupy

void readbuttons()	//pulling tlatek
{
 80010b0:	b580      	push	{r7, lr}
 80010b2:	af00      	add	r7, sp, #0
	if(debounce[0] == 0)
 80010b4:	4b7d      	ldr	r3, [pc, #500]	; (80012ac <readbuttons+0x1fc>)
 80010b6:	781b      	ldrb	r3, [r3, #0]
 80010b8:	2b00      	cmp	r3, #0
 80010ba:	d13c      	bne.n	8001136 <readbuttons+0x86>
	{
	  tlacitko[0] = HAL_GPIO_ReadPin(GPIOA, GPIO_PIN_4);
 80010bc:	2110      	movs	r1, #16
 80010be:	487c      	ldr	r0, [pc, #496]	; (80012b0 <readbuttons+0x200>)
 80010c0:	f003 fa32 	bl	8004528 <HAL_GPIO_ReadPin>
 80010c4:	4603      	mov	r3, r0
 80010c6:	461a      	mov	r2, r3
 80010c8:	4b7a      	ldr	r3, [pc, #488]	; (80012b4 <readbuttons+0x204>)
 80010ca:	701a      	strb	r2, [r3, #0]
	  if(tlacitko[0] != poslednistav[0])
 80010cc:	4b79      	ldr	r3, [pc, #484]	; (80012b4 <readbuttons+0x204>)
 80010ce:	781a      	ldrb	r2, [r3, #0]
 80010d0:	4b79      	ldr	r3, [pc, #484]	; (80012b8 <readbuttons+0x208>)
 80010d2:	781b      	ldrb	r3, [r3, #0]
 80010d4:	429a      	cmp	r2, r3
 80010d6:	d02e      	beq.n	8001136 <readbuttons+0x86>
	  {
		  poslednistav[0] = tlacitko[0];
 80010d8:	4b76      	ldr	r3, [pc, #472]	; (80012b4 <readbuttons+0x204>)
 80010da:	781a      	ldrb	r2, [r3, #0]
 80010dc:	4b76      	ldr	r3, [pc, #472]	; (80012b8 <readbuttons+0x208>)
 80010de:	701a      	strb	r2, [r3, #0]
		  if(tlacitko[0] == 0)
 80010e0:	4b74      	ldr	r3, [pc, #464]	; (80012b4 <readbuttons+0x204>)
 80010e2:	781b      	ldrb	r3, [r3, #0]
 80010e4:	2b00      	cmp	r3, #0
 80010e6:	d126      	bne.n	8001136 <readbuttons+0x86>
		  {
			setmodeflag = 500;
 80010e8:	4b74      	ldr	r3, [pc, #464]	; (80012bc <readbuttons+0x20c>)
 80010ea:	f44f 72fa 	mov.w	r2, #500	; 0x1f4
 80010ee:	801a      	strh	r2, [r3, #0]
			debounce[0] = 10;
 80010f0:	4b6e      	ldr	r3, [pc, #440]	; (80012ac <readbuttons+0x1fc>)
 80010f2:	220a      	movs	r2, #10
 80010f4:	701a      	strb	r2, [r3, #0]
			if(cursor == 0)
 80010f6:	4b72      	ldr	r3, [pc, #456]	; (80012c0 <readbuttons+0x210>)
 80010f8:	781b      	ldrb	r3, [r3, #0]
 80010fa:	2b00      	cmp	r3, #0
 80010fc:	d103      	bne.n	8001106 <readbuttons+0x56>
			{
				  cursor = 0x04;
 80010fe:	4b70      	ldr	r3, [pc, #448]	; (80012c0 <readbuttons+0x210>)
 8001100:	2204      	movs	r2, #4
 8001102:	701a      	strb	r2, [r3, #0]
 8001104:	e017      	b.n	8001136 <readbuttons+0x86>
			}else{
			  if(cursor>0x08)
 8001106:	4b6e      	ldr	r3, [pc, #440]	; (80012c0 <readbuttons+0x210>)
 8001108:	781b      	ldrb	r3, [r3, #0]
 800110a:	2b08      	cmp	r3, #8
 800110c:	d905      	bls.n	800111a <readbuttons+0x6a>
			  {
				  cursor = 0;
 800110e:	4b6c      	ldr	r3, [pc, #432]	; (80012c0 <readbuttons+0x210>)
 8001110:	2200      	movs	r2, #0
 8001112:	701a      	strb	r2, [r3, #0]
				  setmodeflag = 10;
 8001114:	4b69      	ldr	r3, [pc, #420]	; (80012bc <readbuttons+0x20c>)
 8001116:	220a      	movs	r2, #10
 8001118:	801a      	strh	r2, [r3, #0]
			  }
			  if((cursor>0)&&(cursor<0x10))
 800111a:	4b69      	ldr	r3, [pc, #420]	; (80012c0 <readbuttons+0x210>)
 800111c:	781b      	ldrb	r3, [r3, #0]
 800111e:	2b00      	cmp	r3, #0
 8001120:	d009      	beq.n	8001136 <readbuttons+0x86>
 8001122:	4b67      	ldr	r3, [pc, #412]	; (80012c0 <readbuttons+0x210>)
 8001124:	781b      	ldrb	r3, [r3, #0]
 8001126:	2b0f      	cmp	r3, #15
 8001128:	d805      	bhi.n	8001136 <readbuttons+0x86>
			  {
				  cursor = (cursor<<4);
 800112a:	4b65      	ldr	r3, [pc, #404]	; (80012c0 <readbuttons+0x210>)
 800112c:	781b      	ldrb	r3, [r3, #0]
 800112e:	011b      	lsls	r3, r3, #4
 8001130:	b2da      	uxtb	r2, r3
 8001132:	4b63      	ldr	r3, [pc, #396]	; (80012c0 <readbuttons+0x210>)
 8001134:	701a      	strb	r2, [r3, #0]
			  }
			}
		 }
	  }
	}
	if(debounce[1] == 0)
 8001136:	4b5d      	ldr	r3, [pc, #372]	; (80012ac <readbuttons+0x1fc>)
 8001138:	785b      	ldrb	r3, [r3, #1]
 800113a:	2b00      	cmp	r3, #0
 800113c:	d139      	bne.n	80011b2 <readbuttons+0x102>
	{
	  tlacitko[1] = HAL_GPIO_ReadPin(GPIOA, GPIO_PIN_5);
 800113e:	2120      	movs	r1, #32
 8001140:	485b      	ldr	r0, [pc, #364]	; (80012b0 <readbuttons+0x200>)
 8001142:	f003 f9f1 	bl	8004528 <HAL_GPIO_ReadPin>
 8001146:	4603      	mov	r3, r0
 8001148:	461a      	mov	r2, r3
 800114a:	4b5a      	ldr	r3, [pc, #360]	; (80012b4 <readbuttons+0x204>)
 800114c:	705a      	strb	r2, [r3, #1]
	  if(tlacitko[1] != poslednistav[1])
 800114e:	4b59      	ldr	r3, [pc, #356]	; (80012b4 <readbuttons+0x204>)
 8001150:	785a      	ldrb	r2, [r3, #1]
 8001152:	4b59      	ldr	r3, [pc, #356]	; (80012b8 <readbuttons+0x208>)
 8001154:	785b      	ldrb	r3, [r3, #1]
 8001156:	429a      	cmp	r2, r3
 8001158:	d02b      	beq.n	80011b2 <readbuttons+0x102>
	  {
		  poslednistav[1] = tlacitko[1];
 800115a:	4b56      	ldr	r3, [pc, #344]	; (80012b4 <readbuttons+0x204>)
 800115c:	785a      	ldrb	r2, [r3, #1]
 800115e:	4b56      	ldr	r3, [pc, #344]	; (80012b8 <readbuttons+0x208>)
 8001160:	705a      	strb	r2, [r3, #1]
		  if(tlacitko[1] == 0)
 8001162:	4b54      	ldr	r3, [pc, #336]	; (80012b4 <readbuttons+0x204>)
 8001164:	785b      	ldrb	r3, [r3, #1]
 8001166:	2b00      	cmp	r3, #0
 8001168:	d123      	bne.n	80011b2 <readbuttons+0x102>
		  {
			  setmodeflag = 500;
 800116a:	4b54      	ldr	r3, [pc, #336]	; (80012bc <readbuttons+0x20c>)
 800116c:	f44f 72fa 	mov.w	r2, #500	; 0x1f4
 8001170:	801a      	strh	r2, [r3, #0]
			  debounce[1] = 10;
 8001172:	4b4e      	ldr	r3, [pc, #312]	; (80012ac <readbuttons+0x1fc>)
 8001174:	220a      	movs	r2, #10
 8001176:	705a      	strb	r2, [r3, #1]
				if(cursor == 0)
 8001178:	4b51      	ldr	r3, [pc, #324]	; (80012c0 <readbuttons+0x210>)
 800117a:	781b      	ldrb	r3, [r3, #0]
 800117c:	2b00      	cmp	r3, #0
 800117e:	d103      	bne.n	8001188 <readbuttons+0xd8>
				{
					  cursor = 0x04;
 8001180:	4b4f      	ldr	r3, [pc, #316]	; (80012c0 <readbuttons+0x210>)
 8001182:	2204      	movs	r2, #4
 8001184:	701a      	strb	r2, [r3, #0]
 8001186:	e015      	b.n	80011b4 <readbuttons+0x104>
				}
				else
				{
					switch (cursor) {
 8001188:	4b4d      	ldr	r3, [pc, #308]	; (80012c0 <readbuttons+0x210>)
 800118a:	781b      	ldrb	r3, [r3, #0]
 800118c:	2b08      	cmp	r3, #8
 800118e:	d005      	beq.n	800119c <readbuttons+0xec>
 8001190:	2b80      	cmp	r3, #128	; 0x80
 8001192:	d107      	bne.n	80011a4 <readbuttons+0xf4>
						case 0x80:
							cursor = 0x10;
 8001194:	4b4a      	ldr	r3, [pc, #296]	; (80012c0 <readbuttons+0x210>)
 8001196:	2210      	movs	r2, #16
 8001198:	701a      	strb	r2, [r3, #0]
							break;
 800119a:	e00b      	b.n	80011b4 <readbuttons+0x104>
						case 0x08:
							cursor = 0x01;
 800119c:	4b48      	ldr	r3, [pc, #288]	; (80012c0 <readbuttons+0x210>)
 800119e:	2201      	movs	r2, #1
 80011a0:	701a      	strb	r2, [r3, #0]
							break;
 80011a2:	e007      	b.n	80011b4 <readbuttons+0x104>
						default:
							cursor *= 2;
 80011a4:	4b46      	ldr	r3, [pc, #280]	; (80012c0 <readbuttons+0x210>)
 80011a6:	781b      	ldrb	r3, [r3, #0]
 80011a8:	005b      	lsls	r3, r3, #1
 80011aa:	b2da      	uxtb	r2, r3
 80011ac:	4b44      	ldr	r3, [pc, #272]	; (80012c0 <readbuttons+0x210>)
 80011ae:	701a      	strb	r2, [r3, #0]
							break;
 80011b0:	e000      	b.n	80011b4 <readbuttons+0x104>
					}
				}
 80011b2:	bf00      	nop
		  }
	  }
	}
	if(debounce[2] == 0)
 80011b4:	4b3d      	ldr	r3, [pc, #244]	; (80012ac <readbuttons+0x1fc>)
 80011b6:	789b      	ldrb	r3, [r3, #2]
 80011b8:	2b00      	cmp	r3, #0
 80011ba:	d13a      	bne.n	8001232 <readbuttons+0x182>
	{
	  tlacitko[2] = HAL_GPIO_ReadPin(GPIOA, GPIO_PIN_6);
 80011bc:	2140      	movs	r1, #64	; 0x40
 80011be:	483c      	ldr	r0, [pc, #240]	; (80012b0 <readbuttons+0x200>)
 80011c0:	f003 f9b2 	bl	8004528 <HAL_GPIO_ReadPin>
 80011c4:	4603      	mov	r3, r0
 80011c6:	461a      	mov	r2, r3
 80011c8:	4b3a      	ldr	r3, [pc, #232]	; (80012b4 <readbuttons+0x204>)
 80011ca:	709a      	strb	r2, [r3, #2]
	  if(tlacitko[2] != poslednistav[2])
 80011cc:	4b39      	ldr	r3, [pc, #228]	; (80012b4 <readbuttons+0x204>)
 80011ce:	789a      	ldrb	r2, [r3, #2]
 80011d0:	4b39      	ldr	r3, [pc, #228]	; (80012b8 <readbuttons+0x208>)
 80011d2:	789b      	ldrb	r3, [r3, #2]
 80011d4:	429a      	cmp	r2, r3
 80011d6:	d02c      	beq.n	8001232 <readbuttons+0x182>
	  {
		  poslednistav[2] = tlacitko[2];
 80011d8:	4b36      	ldr	r3, [pc, #216]	; (80012b4 <readbuttons+0x204>)
 80011da:	789a      	ldrb	r2, [r3, #2]
 80011dc:	4b36      	ldr	r3, [pc, #216]	; (80012b8 <readbuttons+0x208>)
 80011de:	709a      	strb	r2, [r3, #2]
		  if(tlacitko[2] == 0)
 80011e0:	4b34      	ldr	r3, [pc, #208]	; (80012b4 <readbuttons+0x204>)
 80011e2:	789b      	ldrb	r3, [r3, #2]
 80011e4:	2b00      	cmp	r3, #0
 80011e6:	d124      	bne.n	8001232 <readbuttons+0x182>
		  {
			setmodeflag = 500;
 80011e8:	4b34      	ldr	r3, [pc, #208]	; (80012bc <readbuttons+0x20c>)
 80011ea:	f44f 72fa 	mov.w	r2, #500	; 0x1f4
 80011ee:	801a      	strh	r2, [r3, #0]
			debounce[2] = 10;
 80011f0:	4b2e      	ldr	r3, [pc, #184]	; (80012ac <readbuttons+0x1fc>)
 80011f2:	220a      	movs	r2, #10
 80011f4:	709a      	strb	r2, [r3, #2]
			if(cursor == 0)
 80011f6:	4b32      	ldr	r3, [pc, #200]	; (80012c0 <readbuttons+0x210>)
 80011f8:	781b      	ldrb	r3, [r3, #0]
 80011fa:	2b00      	cmp	r3, #0
 80011fc:	d103      	bne.n	8001206 <readbuttons+0x156>
			{
				  cursor = 0x04;
 80011fe:	4b30      	ldr	r3, [pc, #192]	; (80012c0 <readbuttons+0x210>)
 8001200:	2204      	movs	r2, #4
 8001202:	701a      	strb	r2, [r3, #0]
 8001204:	e016      	b.n	8001234 <readbuttons+0x184>
			}
			else
			{
				switch (cursor) {
 8001206:	4b2e      	ldr	r3, [pc, #184]	; (80012c0 <readbuttons+0x210>)
 8001208:	781b      	ldrb	r3, [r3, #0]
 800120a:	2b01      	cmp	r3, #1
 800120c:	d002      	beq.n	8001214 <readbuttons+0x164>
 800120e:	2b10      	cmp	r3, #16
 8001210:	d004      	beq.n	800121c <readbuttons+0x16c>
 8001212:	e007      	b.n	8001224 <readbuttons+0x174>
					case 0x01:
						cursor = 0x08;
 8001214:	4b2a      	ldr	r3, [pc, #168]	; (80012c0 <readbuttons+0x210>)
 8001216:	2208      	movs	r2, #8
 8001218:	701a      	strb	r2, [r3, #0]
						break;
 800121a:	e00b      	b.n	8001234 <readbuttons+0x184>
					case 0x10:
						cursor = 0x80;
 800121c:	4b28      	ldr	r3, [pc, #160]	; (80012c0 <readbuttons+0x210>)
 800121e:	2280      	movs	r2, #128	; 0x80
 8001220:	701a      	strb	r2, [r3, #0]
						break;
 8001222:	e007      	b.n	8001234 <readbuttons+0x184>
					default:
						cursor = cursor>>1;
 8001224:	4b26      	ldr	r3, [pc, #152]	; (80012c0 <readbuttons+0x210>)
 8001226:	781b      	ldrb	r3, [r3, #0]
 8001228:	085b      	lsrs	r3, r3, #1
 800122a:	b2da      	uxtb	r2, r3
 800122c:	4b24      	ldr	r3, [pc, #144]	; (80012c0 <readbuttons+0x210>)
 800122e:	701a      	strb	r2, [r3, #0]
						break;
 8001230:	e000      	b.n	8001234 <readbuttons+0x184>
				}

			}
 8001232:	bf00      	nop
		  }
	  }
	}
	if(debounce[3] == 0)
 8001234:	4b1d      	ldr	r3, [pc, #116]	; (80012ac <readbuttons+0x1fc>)
 8001236:	78db      	ldrb	r3, [r3, #3]
 8001238:	2b00      	cmp	r3, #0
 800123a:	d134      	bne.n	80012a6 <readbuttons+0x1f6>
	{
	  tlacitko[3] = HAL_GPIO_ReadPin(GPIOA, GPIO_PIN_7);
 800123c:	2180      	movs	r1, #128	; 0x80
 800123e:	481c      	ldr	r0, [pc, #112]	; (80012b0 <readbuttons+0x200>)
 8001240:	f003 f972 	bl	8004528 <HAL_GPIO_ReadPin>
 8001244:	4603      	mov	r3, r0
 8001246:	461a      	mov	r2, r3
 8001248:	4b1a      	ldr	r3, [pc, #104]	; (80012b4 <readbuttons+0x204>)
 800124a:	70da      	strb	r2, [r3, #3]
	  if(tlacitko[3] != poslednistav[3])
 800124c:	4b19      	ldr	r3, [pc, #100]	; (80012b4 <readbuttons+0x204>)
 800124e:	78da      	ldrb	r2, [r3, #3]
 8001250:	4b19      	ldr	r3, [pc, #100]	; (80012b8 <readbuttons+0x208>)
 8001252:	78db      	ldrb	r3, [r3, #3]
 8001254:	429a      	cmp	r2, r3
 8001256:	d026      	beq.n	80012a6 <readbuttons+0x1f6>
	  {
		  poslednistav[3] = tlacitko[3];
 8001258:	4b16      	ldr	r3, [pc, #88]	; (80012b4 <readbuttons+0x204>)
 800125a:	78da      	ldrb	r2, [r3, #3]
 800125c:	4b16      	ldr	r3, [pc, #88]	; (80012b8 <readbuttons+0x208>)
 800125e:	70da      	strb	r2, [r3, #3]
		  if(tlacitko[3] == 0)
 8001260:	4b14      	ldr	r3, [pc, #80]	; (80012b4 <readbuttons+0x204>)
 8001262:	78db      	ldrb	r3, [r3, #3]
 8001264:	2b00      	cmp	r3, #0
 8001266:	d11e      	bne.n	80012a6 <readbuttons+0x1f6>
		  {
			  if((setmodeflag > 0)||(menupage>0))
 8001268:	4b14      	ldr	r3, [pc, #80]	; (80012bc <readbuttons+0x20c>)
 800126a:	881b      	ldrh	r3, [r3, #0]
 800126c:	2b00      	cmp	r3, #0
 800126e:	d103      	bne.n	8001278 <readbuttons+0x1c8>
 8001270:	4b14      	ldr	r3, [pc, #80]	; (80012c4 <readbuttons+0x214>)
 8001272:	781b      	ldrb	r3, [r3, #0]
 8001274:	2b00      	cmp	r3, #0
 8001276:	d005      	beq.n	8001284 <readbuttons+0x1d4>
			  {
				  menupage++;
 8001278:	4b12      	ldr	r3, [pc, #72]	; (80012c4 <readbuttons+0x214>)
 800127a:	781b      	ldrb	r3, [r3, #0]
 800127c:	3301      	adds	r3, #1
 800127e:	b2da      	uxtb	r2, r3
 8001280:	4b10      	ldr	r3, [pc, #64]	; (80012c4 <readbuttons+0x214>)
 8001282:	701a      	strb	r2, [r3, #0]
			  }
			  setmodeflag = 500;
 8001284:	4b0d      	ldr	r3, [pc, #52]	; (80012bc <readbuttons+0x20c>)
 8001286:	f44f 72fa 	mov.w	r2, #500	; 0x1f4
 800128a:	801a      	strh	r2, [r3, #0]
			  debounce[3] = 10;
 800128c:	4b07      	ldr	r3, [pc, #28]	; (80012ac <readbuttons+0x1fc>)
 800128e:	220a      	movs	r2, #10
 8001290:	70da      	strb	r2, [r3, #3]
			  if(menupage>1)
 8001292:	4b0c      	ldr	r3, [pc, #48]	; (80012c4 <readbuttons+0x214>)
 8001294:	781b      	ldrb	r3, [r3, #0]
 8001296:	2b01      	cmp	r3, #1
 8001298:	d905      	bls.n	80012a6 <readbuttons+0x1f6>
			  {
				  menupage = 0;
 800129a:	4b0a      	ldr	r3, [pc, #40]	; (80012c4 <readbuttons+0x214>)
 800129c:	2200      	movs	r2, #0
 800129e:	701a      	strb	r2, [r3, #0]
				  setmodeflag = 10;
 80012a0:	4b06      	ldr	r3, [pc, #24]	; (80012bc <readbuttons+0x20c>)
 80012a2:	220a      	movs	r2, #10
 80012a4:	801a      	strh	r2, [r3, #0]
			  }
		  }
	  }
	}

}
 80012a6:	bf00      	nop
 80012a8:	bd80      	pop	{r7, pc}
 80012aa:	bf00      	nop
 80012ac:	2000057c 	.word	0x2000057c
 80012b0:	40010800 	.word	0x40010800
 80012b4:	200004d0 	.word	0x200004d0
 80012b8:	20000608 	.word	0x20000608
 80012bc:	200000b0 	.word	0x200000b0
 80012c0:	200000b2 	.word	0x200000b2
 80012c4:	200000b3 	.word	0x200000b3

080012c8 <trimm>:

//pomocn pevodn funkce

char* trimm(float f)
{
 80012c8:	b580      	push	{r7, lr}
 80012ca:	b084      	sub	sp, #16
 80012cc:	af00      	add	r7, sp, #0
 80012ce:	6078      	str	r0, [r7, #4]
	static char trimmed [4];

	f *= 100;
 80012d0:	4929      	ldr	r1, [pc, #164]	; (8001378 <trimm+0xb0>)
 80012d2:	6878      	ldr	r0, [r7, #4]
 80012d4:	f7ff fd06 	bl	8000ce4 <__aeabi_fmul>
 80012d8:	4603      	mov	r3, r0
 80012da:	607b      	str	r3, [r7, #4]
	uint16_t g = f;
 80012dc:	6878      	ldr	r0, [r7, #4]
 80012de:	f7ff fec7 	bl	8001070 <__aeabi_f2uiz>
 80012e2:	4603      	mov	r3, r0
 80012e4:	81bb      	strh	r3, [r7, #12]
	itoa(g, trimmed, 10);
 80012e6:	89bb      	ldrh	r3, [r7, #12]
 80012e8:	220a      	movs	r2, #10
 80012ea:	4924      	ldr	r1, [pc, #144]	; (800137c <trimm+0xb4>)
 80012ec:	4618      	mov	r0, r3
 80012ee:	f005 fb13 	bl	8006918 <itoa>

	if(g<10)
 80012f2:	89bb      	ldrh	r3, [r7, #12]
 80012f4:	2b09      	cmp	r3, #9
 80012f6:	d80c      	bhi.n	8001312 <trimm+0x4a>
	{
		trimmed[3] = trimmed[0];
 80012f8:	4b20      	ldr	r3, [pc, #128]	; (800137c <trimm+0xb4>)
 80012fa:	781a      	ldrb	r2, [r3, #0]
 80012fc:	4b1f      	ldr	r3, [pc, #124]	; (800137c <trimm+0xb4>)
 80012fe:	70da      	strb	r2, [r3, #3]
		trimmed[2] = '0';
 8001300:	4b1e      	ldr	r3, [pc, #120]	; (800137c <trimm+0xb4>)
 8001302:	2230      	movs	r2, #48	; 0x30
 8001304:	709a      	strb	r2, [r3, #2]
		trimmed[1] = '0';
 8001306:	4b1d      	ldr	r3, [pc, #116]	; (800137c <trimm+0xb4>)
 8001308:	2230      	movs	r2, #48	; 0x30
 800130a:	705a      	strb	r2, [r3, #1]
		trimmed[0] = ' ';
 800130c:	4b1b      	ldr	r3, [pc, #108]	; (800137c <trimm+0xb4>)
 800130e:	2220      	movs	r2, #32
 8001310:	701a      	strb	r2, [r3, #0]


	}
	if((g<100)&&(g>9))
 8001312:	89bb      	ldrh	r3, [r7, #12]
 8001314:	2b63      	cmp	r3, #99	; 0x63
 8001316:	d810      	bhi.n	800133a <trimm+0x72>
 8001318:	89bb      	ldrh	r3, [r7, #12]
 800131a:	2b09      	cmp	r3, #9
 800131c:	d90d      	bls.n	800133a <trimm+0x72>
	{
		trimmed[3] = trimmed[1];
 800131e:	4b17      	ldr	r3, [pc, #92]	; (800137c <trimm+0xb4>)
 8001320:	785a      	ldrb	r2, [r3, #1]
 8001322:	4b16      	ldr	r3, [pc, #88]	; (800137c <trimm+0xb4>)
 8001324:	70da      	strb	r2, [r3, #3]
		trimmed[2] = trimmed[0];
 8001326:	4b15      	ldr	r3, [pc, #84]	; (800137c <trimm+0xb4>)
 8001328:	781a      	ldrb	r2, [r3, #0]
 800132a:	4b14      	ldr	r3, [pc, #80]	; (800137c <trimm+0xb4>)
 800132c:	709a      	strb	r2, [r3, #2]
		trimmed[1] = '0';
 800132e:	4b13      	ldr	r3, [pc, #76]	; (800137c <trimm+0xb4>)
 8001330:	2230      	movs	r2, #48	; 0x30
 8001332:	705a      	strb	r2, [r3, #1]
		trimmed[0] = ' ';
 8001334:	4b11      	ldr	r3, [pc, #68]	; (800137c <trimm+0xb4>)
 8001336:	2220      	movs	r2, #32
 8001338:	701a      	strb	r2, [r3, #0]

	}
	if((g<1000)&&(g>99))
 800133a:	89bb      	ldrh	r3, [r7, #12]
 800133c:	f5b3 7f7a 	cmp.w	r3, #1000	; 0x3e8
 8001340:	d215      	bcs.n	800136e <trimm+0xa6>
 8001342:	89bb      	ldrh	r3, [r7, #12]
 8001344:	2b63      	cmp	r3, #99	; 0x63
 8001346:	d912      	bls.n	800136e <trimm+0xa6>
	{
		for(uint8_t i = 3; i>0; i--)
 8001348:	2303      	movs	r3, #3
 800134a:	73fb      	strb	r3, [r7, #15]
 800134c:	e009      	b.n	8001362 <trimm+0x9a>
		{
			trimmed[i] = trimmed[i-1];
 800134e:	7bfb      	ldrb	r3, [r7, #15]
 8001350:	1e5a      	subs	r2, r3, #1
 8001352:	7bfb      	ldrb	r3, [r7, #15]
 8001354:	4909      	ldr	r1, [pc, #36]	; (800137c <trimm+0xb4>)
 8001356:	5c89      	ldrb	r1, [r1, r2]
 8001358:	4a08      	ldr	r2, [pc, #32]	; (800137c <trimm+0xb4>)
 800135a:	54d1      	strb	r1, [r2, r3]
		for(uint8_t i = 3; i>0; i--)
 800135c:	7bfb      	ldrb	r3, [r7, #15]
 800135e:	3b01      	subs	r3, #1
 8001360:	73fb      	strb	r3, [r7, #15]
 8001362:	7bfb      	ldrb	r3, [r7, #15]
 8001364:	2b00      	cmp	r3, #0
 8001366:	d1f2      	bne.n	800134e <trimm+0x86>
		}
		trimmed[0] = ' ';
 8001368:	4b04      	ldr	r3, [pc, #16]	; (800137c <trimm+0xb4>)
 800136a:	2220      	movs	r2, #32
 800136c:	701a      	strb	r2, [r3, #0]

	}

	return trimmed;
 800136e:	4b03      	ldr	r3, [pc, #12]	; (800137c <trimm+0xb4>)
}
 8001370:	4618      	mov	r0, r3
 8001372:	3710      	adds	r7, #16
 8001374:	46bd      	mov	sp, r7
 8001376:	bd80      	pop	{r7, pc}
 8001378:	42c80000 	.word	0x42c80000
 800137c:	200000c4 	.word	0x200000c4

08001380 <ADCtoVoltage>:
float ADCtoVoltage(uint16_t ADCvalue)
{
 8001380:	b580      	push	{r7, lr}
 8001382:	b084      	sub	sp, #16
 8001384:	af00      	add	r7, sp, #0
 8001386:	4603      	mov	r3, r0
 8001388:	80fb      	strh	r3, [r7, #6]
	float voltage = 0;
 800138a:	f04f 0300 	mov.w	r3, #0
 800138e:	60fb      	str	r3, [r7, #12]
	voltage = ((ADCvalue*Uadc)/4095) + offset;
 8001390:	88fb      	ldrh	r3, [r7, #6]
 8001392:	4618      	mov	r0, r3
 8001394:	f7ff fc52 	bl	8000c3c <__aeabi_i2f>
 8001398:	4602      	mov	r2, r0
 800139a:	4b0d      	ldr	r3, [pc, #52]	; (80013d0 <ADCtoVoltage+0x50>)
 800139c:	681b      	ldr	r3, [r3, #0]
 800139e:	4619      	mov	r1, r3
 80013a0:	4610      	mov	r0, r2
 80013a2:	f7ff fc9f 	bl	8000ce4 <__aeabi_fmul>
 80013a6:	4603      	mov	r3, r0
 80013a8:	490a      	ldr	r1, [pc, #40]	; (80013d4 <ADCtoVoltage+0x54>)
 80013aa:	4618      	mov	r0, r3
 80013ac:	f7ff fd4e 	bl	8000e4c <__aeabi_fdiv>
 80013b0:	4603      	mov	r3, r0
 80013b2:	461a      	mov	r2, r3
 80013b4:	4b08      	ldr	r3, [pc, #32]	; (80013d8 <ADCtoVoltage+0x58>)
 80013b6:	681b      	ldr	r3, [r3, #0]
 80013b8:	4619      	mov	r1, r3
 80013ba:	4610      	mov	r0, r2
 80013bc:	f7ff fb8a 	bl	8000ad4 <__addsf3>
 80013c0:	4603      	mov	r3, r0
 80013c2:	60fb      	str	r3, [r7, #12]
	return voltage;
 80013c4:	68fb      	ldr	r3, [r7, #12]
}
 80013c6:	4618      	mov	r0, r3
 80013c8:	3710      	adds	r7, #16
 80013ca:	46bd      	mov	sp, r7
 80013cc:	bd80      	pop	{r7, pc}
 80013ce:	bf00      	nop
 80013d0:	20000010 	.word	0x20000010
 80013d4:	457ff000 	.word	0x457ff000
 80013d8:	200000bc 	.word	0x200000bc
 80013dc:	00000000 	.word	0x00000000

080013e0 <Voltagetoteperatur>:
float Voltagetoteperatur(float napeti)
{
 80013e0:	b580      	push	{r7, lr}
 80013e2:	b082      	sub	sp, #8
 80013e4:	af00      	add	r7, sp, #0
 80013e6:	6078      	str	r0, [r7, #4]
	  napeti = (Uadc/ napeti)-1;
 80013e8:	4b2b      	ldr	r3, [pc, #172]	; (8001498 <Voltagetoteperatur+0xb8>)
 80013ea:	681b      	ldr	r3, [r3, #0]
 80013ec:	6879      	ldr	r1, [r7, #4]
 80013ee:	4618      	mov	r0, r3
 80013f0:	f7ff fd2c 	bl	8000e4c <__aeabi_fdiv>
 80013f4:	4603      	mov	r3, r0
 80013f6:	f04f 517e 	mov.w	r1, #1065353216	; 0x3f800000
 80013fa:	4618      	mov	r0, r3
 80013fc:	f7ff fb68 	bl	8000ad0 <__aeabi_fsub>
 8001400:	4603      	mov	r3, r0
 8001402:	607b      	str	r3, [r7, #4]
	  napeti = 1/(((log(napeti))/3380)+(1/298.5));
 8001404:	6878      	ldr	r0, [r7, #4]
 8001406:	f7ff f807 	bl	8000418 <__aeabi_f2d>
 800140a:	4602      	mov	r2, r0
 800140c:	460b      	mov	r3, r1
 800140e:	4610      	mov	r0, r2
 8001410:	4619      	mov	r1, r3
 8001412:	f005 facd 	bl	80069b0 <log>
 8001416:	a31a      	add	r3, pc, #104	; (adr r3, 8001480 <Voltagetoteperatur+0xa0>)
 8001418:	e9d3 2300 	ldrd	r2, r3, [r3]
 800141c:	f7ff f97e 	bl	800071c <__aeabi_ddiv>
 8001420:	4602      	mov	r2, r0
 8001422:	460b      	mov	r3, r1
 8001424:	4610      	mov	r0, r2
 8001426:	4619      	mov	r1, r3
 8001428:	a317      	add	r3, pc, #92	; (adr r3, 8001488 <Voltagetoteperatur+0xa8>)
 800142a:	e9d3 2300 	ldrd	r2, r3, [r3]
 800142e:	f7fe fe95 	bl	800015c <__adddf3>
 8001432:	4602      	mov	r2, r0
 8001434:	460b      	mov	r3, r1
 8001436:	f04f 0000 	mov.w	r0, #0
 800143a:	4918      	ldr	r1, [pc, #96]	; (800149c <Voltagetoteperatur+0xbc>)
 800143c:	f7ff f96e 	bl	800071c <__aeabi_ddiv>
 8001440:	4602      	mov	r2, r0
 8001442:	460b      	mov	r3, r1
 8001444:	4610      	mov	r0, r2
 8001446:	4619      	mov	r1, r3
 8001448:	f7ff faee 	bl	8000a28 <__aeabi_d2f>
 800144c:	4603      	mov	r3, r0
 800144e:	607b      	str	r3, [r7, #4]
	  napeti = napeti - 273.15; // K => C
 8001450:	6878      	ldr	r0, [r7, #4]
 8001452:	f7fe ffe1 	bl	8000418 <__aeabi_f2d>
 8001456:	a30e      	add	r3, pc, #56	; (adr r3, 8001490 <Voltagetoteperatur+0xb0>)
 8001458:	e9d3 2300 	ldrd	r2, r3, [r3]
 800145c:	f7fe fe7c 	bl	8000158 <__aeabi_dsub>
 8001460:	4602      	mov	r2, r0
 8001462:	460b      	mov	r3, r1
 8001464:	4610      	mov	r0, r2
 8001466:	4619      	mov	r1, r3
 8001468:	f7ff fade 	bl	8000a28 <__aeabi_d2f>
 800146c:	4603      	mov	r3, r0
 800146e:	607b      	str	r3, [r7, #4]
	  return napeti;
 8001470:	687b      	ldr	r3, [r7, #4]
}
 8001472:	4618      	mov	r0, r3
 8001474:	3708      	adds	r7, #8
 8001476:	46bd      	mov	sp, r7
 8001478:	bd80      	pop	{r7, pc}
 800147a:	bf00      	nop
 800147c:	f3af 8000 	nop.w
 8001480:	00000000 	.word	0x00000000
 8001484:	40aa6800 	.word	0x40aa6800
 8001488:	84ee6b34 	.word	0x84ee6b34
 800148c:	3f6b71a2 	.word	0x3f6b71a2
 8001490:	66666666 	.word	0x66666666
 8001494:	40711266 	.word	0x40711266
 8001498:	20000010 	.word	0x20000010
 800149c:	3ff00000 	.word	0x3ff00000

080014a0 <drawlogoC>:

//funkce vykreslovn displaje

void drawlogoC (uint8_t x, uint8_t y){
 80014a0:	b590      	push	{r4, r7, lr}
 80014a2:	b085      	sub	sp, #20
 80014a4:	af02      	add	r7, sp, #8
 80014a6:	4603      	mov	r3, r0
 80014a8:	460a      	mov	r2, r1
 80014aa:	71fb      	strb	r3, [r7, #7]
 80014ac:	4613      	mov	r3, r2
 80014ae:	71bb      	strb	r3, [r7, #6]
	  SSD1306_DrawLine((5+x), (y+5), (5+x), (y+11), 1);
 80014b0:	79fb      	ldrb	r3, [r7, #7]
 80014b2:	b29b      	uxth	r3, r3
 80014b4:	3305      	adds	r3, #5
 80014b6:	b298      	uxth	r0, r3
 80014b8:	79bb      	ldrb	r3, [r7, #6]
 80014ba:	b29b      	uxth	r3, r3
 80014bc:	3305      	adds	r3, #5
 80014be:	b299      	uxth	r1, r3
 80014c0:	79fb      	ldrb	r3, [r7, #7]
 80014c2:	b29b      	uxth	r3, r3
 80014c4:	3305      	adds	r3, #5
 80014c6:	b29a      	uxth	r2, r3
 80014c8:	79bb      	ldrb	r3, [r7, #6]
 80014ca:	b29b      	uxth	r3, r3
 80014cc:	330b      	adds	r3, #11
 80014ce:	b29b      	uxth	r3, r3
 80014d0:	2401      	movs	r4, #1
 80014d2:	9400      	str	r4, [sp, #0]
 80014d4:	f001 fb73 	bl	8002bbe <SSD1306_DrawLine>
	  SSD1306_DrawLine((6+x), (y+3), (6+x), (y+13), 1);
 80014d8:	79fb      	ldrb	r3, [r7, #7]
 80014da:	b29b      	uxth	r3, r3
 80014dc:	3306      	adds	r3, #6
 80014de:	b298      	uxth	r0, r3
 80014e0:	79bb      	ldrb	r3, [r7, #6]
 80014e2:	b29b      	uxth	r3, r3
 80014e4:	3303      	adds	r3, #3
 80014e6:	b299      	uxth	r1, r3
 80014e8:	79fb      	ldrb	r3, [r7, #7]
 80014ea:	b29b      	uxth	r3, r3
 80014ec:	3306      	adds	r3, #6
 80014ee:	b29a      	uxth	r2, r3
 80014f0:	79bb      	ldrb	r3, [r7, #6]
 80014f2:	b29b      	uxth	r3, r3
 80014f4:	330d      	adds	r3, #13
 80014f6:	b29b      	uxth	r3, r3
 80014f8:	2401      	movs	r4, #1
 80014fa:	9400      	str	r4, [sp, #0]
 80014fc:	f001 fb5f 	bl	8002bbe <SSD1306_DrawLine>
	  SSD1306_DrawLine((7+x), (y+3), (7+x), (y+5), 1);
 8001500:	79fb      	ldrb	r3, [r7, #7]
 8001502:	b29b      	uxth	r3, r3
 8001504:	3307      	adds	r3, #7
 8001506:	b298      	uxth	r0, r3
 8001508:	79bb      	ldrb	r3, [r7, #6]
 800150a:	b29b      	uxth	r3, r3
 800150c:	3303      	adds	r3, #3
 800150e:	b299      	uxth	r1, r3
 8001510:	79fb      	ldrb	r3, [r7, #7]
 8001512:	b29b      	uxth	r3, r3
 8001514:	3307      	adds	r3, #7
 8001516:	b29a      	uxth	r2, r3
 8001518:	79bb      	ldrb	r3, [r7, #6]
 800151a:	b29b      	uxth	r3, r3
 800151c:	3305      	adds	r3, #5
 800151e:	b29b      	uxth	r3, r3
 8001520:	2401      	movs	r4, #1
 8001522:	9400      	str	r4, [sp, #0]
 8001524:	f001 fb4b 	bl	8002bbe <SSD1306_DrawLine>
	  SSD1306_DrawLine((7+x), (y+11), (7+x), (y+13), 1);
 8001528:	79fb      	ldrb	r3, [r7, #7]
 800152a:	b29b      	uxth	r3, r3
 800152c:	3307      	adds	r3, #7
 800152e:	b298      	uxth	r0, r3
 8001530:	79bb      	ldrb	r3, [r7, #6]
 8001532:	b29b      	uxth	r3, r3
 8001534:	330b      	adds	r3, #11
 8001536:	b299      	uxth	r1, r3
 8001538:	79fb      	ldrb	r3, [r7, #7]
 800153a:	b29b      	uxth	r3, r3
 800153c:	3307      	adds	r3, #7
 800153e:	b29a      	uxth	r2, r3
 8001540:	79bb      	ldrb	r3, [r7, #6]
 8001542:	b29b      	uxth	r3, r3
 8001544:	330d      	adds	r3, #13
 8001546:	b29b      	uxth	r3, r3
 8001548:	2401      	movs	r4, #1
 800154a:	9400      	str	r4, [sp, #0]
 800154c:	f001 fb37 	bl	8002bbe <SSD1306_DrawLine>
	  SSD1306_DrawLine((8+x), (y+14), (10+x), (y+14), 1);
 8001550:	79fb      	ldrb	r3, [r7, #7]
 8001552:	b29b      	uxth	r3, r3
 8001554:	3308      	adds	r3, #8
 8001556:	b298      	uxth	r0, r3
 8001558:	79bb      	ldrb	r3, [r7, #6]
 800155a:	b29b      	uxth	r3, r3
 800155c:	330e      	adds	r3, #14
 800155e:	b299      	uxth	r1, r3
 8001560:	79fb      	ldrb	r3, [r7, #7]
 8001562:	b29b      	uxth	r3, r3
 8001564:	330a      	adds	r3, #10
 8001566:	b29a      	uxth	r2, r3
 8001568:	79bb      	ldrb	r3, [r7, #6]
 800156a:	b29b      	uxth	r3, r3
 800156c:	330e      	adds	r3, #14
 800156e:	b29b      	uxth	r3, r3
 8001570:	2401      	movs	r4, #1
 8001572:	9400      	str	r4, [sp, #0]
 8001574:	f001 fb23 	bl	8002bbe <SSD1306_DrawLine>
	  SSD1306_DrawLine((8+x), (y+13), (10+x), (y+13), 1);
 8001578:	79fb      	ldrb	r3, [r7, #7]
 800157a:	b29b      	uxth	r3, r3
 800157c:	3308      	adds	r3, #8
 800157e:	b298      	uxth	r0, r3
 8001580:	79bb      	ldrb	r3, [r7, #6]
 8001582:	b29b      	uxth	r3, r3
 8001584:	330d      	adds	r3, #13
 8001586:	b299      	uxth	r1, r3
 8001588:	79fb      	ldrb	r3, [r7, #7]
 800158a:	b29b      	uxth	r3, r3
 800158c:	330a      	adds	r3, #10
 800158e:	b29a      	uxth	r2, r3
 8001590:	79bb      	ldrb	r3, [r7, #6]
 8001592:	b29b      	uxth	r3, r3
 8001594:	330d      	adds	r3, #13
 8001596:	b29b      	uxth	r3, r3
 8001598:	2401      	movs	r4, #1
 800159a:	9400      	str	r4, [sp, #0]
 800159c:	f001 fb0f 	bl	8002bbe <SSD1306_DrawLine>
	  SSD1306_DrawLine((8+x), (y+2), (10+x), (y+2), 1);
 80015a0:	79fb      	ldrb	r3, [r7, #7]
 80015a2:	b29b      	uxth	r3, r3
 80015a4:	3308      	adds	r3, #8
 80015a6:	b298      	uxth	r0, r3
 80015a8:	79bb      	ldrb	r3, [r7, #6]
 80015aa:	b29b      	uxth	r3, r3
 80015ac:	3302      	adds	r3, #2
 80015ae:	b299      	uxth	r1, r3
 80015b0:	79fb      	ldrb	r3, [r7, #7]
 80015b2:	b29b      	uxth	r3, r3
 80015b4:	330a      	adds	r3, #10
 80015b6:	b29a      	uxth	r2, r3
 80015b8:	79bb      	ldrb	r3, [r7, #6]
 80015ba:	b29b      	uxth	r3, r3
 80015bc:	3302      	adds	r3, #2
 80015be:	b29b      	uxth	r3, r3
 80015c0:	2401      	movs	r4, #1
 80015c2:	9400      	str	r4, [sp, #0]
 80015c4:	f001 fafb 	bl	8002bbe <SSD1306_DrawLine>
	  SSD1306_DrawLine((8+x), (y+3), (10+x), (y+3), 1);
 80015c8:	79fb      	ldrb	r3, [r7, #7]
 80015ca:	b29b      	uxth	r3, r3
 80015cc:	3308      	adds	r3, #8
 80015ce:	b298      	uxth	r0, r3
 80015d0:	79bb      	ldrb	r3, [r7, #6]
 80015d2:	b29b      	uxth	r3, r3
 80015d4:	3303      	adds	r3, #3
 80015d6:	b299      	uxth	r1, r3
 80015d8:	79fb      	ldrb	r3, [r7, #7]
 80015da:	b29b      	uxth	r3, r3
 80015dc:	330a      	adds	r3, #10
 80015de:	b29a      	uxth	r2, r3
 80015e0:	79bb      	ldrb	r3, [r7, #6]
 80015e2:	b29b      	uxth	r3, r3
 80015e4:	3303      	adds	r3, #3
 80015e6:	b29b      	uxth	r3, r3
 80015e8:	2401      	movs	r4, #1
 80015ea:	9400      	str	r4, [sp, #0]
 80015ec:	f001 fae7 	bl	8002bbe <SSD1306_DrawLine>
	  SSD1306_DrawLine((11+x), (y+3), (11+x), (y+4), 1);
 80015f0:	79fb      	ldrb	r3, [r7, #7]
 80015f2:	b29b      	uxth	r3, r3
 80015f4:	330b      	adds	r3, #11
 80015f6:	b298      	uxth	r0, r3
 80015f8:	79bb      	ldrb	r3, [r7, #6]
 80015fa:	b29b      	uxth	r3, r3
 80015fc:	3303      	adds	r3, #3
 80015fe:	b299      	uxth	r1, r3
 8001600:	79fb      	ldrb	r3, [r7, #7]
 8001602:	b29b      	uxth	r3, r3
 8001604:	330b      	adds	r3, #11
 8001606:	b29a      	uxth	r2, r3
 8001608:	79bb      	ldrb	r3, [r7, #6]
 800160a:	b29b      	uxth	r3, r3
 800160c:	3304      	adds	r3, #4
 800160e:	b29b      	uxth	r3, r3
 8001610:	2401      	movs	r4, #1
 8001612:	9400      	str	r4, [sp, #0]
 8001614:	f001 fad3 	bl	8002bbe <SSD1306_DrawLine>
	  SSD1306_DrawLine((11+x), (y+13), (11+x), (y+12), 1);
 8001618:	79fb      	ldrb	r3, [r7, #7]
 800161a:	b29b      	uxth	r3, r3
 800161c:	330b      	adds	r3, #11
 800161e:	b298      	uxth	r0, r3
 8001620:	79bb      	ldrb	r3, [r7, #6]
 8001622:	b29b      	uxth	r3, r3
 8001624:	330d      	adds	r3, #13
 8001626:	b299      	uxth	r1, r3
 8001628:	79fb      	ldrb	r3, [r7, #7]
 800162a:	b29b      	uxth	r3, r3
 800162c:	330b      	adds	r3, #11
 800162e:	b29a      	uxth	r2, r3
 8001630:	79bb      	ldrb	r3, [r7, #6]
 8001632:	b29b      	uxth	r3, r3
 8001634:	330c      	adds	r3, #12
 8001636:	b29b      	uxth	r3, r3
 8001638:	2401      	movs	r4, #1
 800163a:	9400      	str	r4, [sp, #0]
 800163c:	f001 fabf 	bl	8002bbe <SSD1306_DrawLine>
	  SSD1306_DrawLine((12+x), (y+4), (12+x), (y+6), 1);
 8001640:	79fb      	ldrb	r3, [r7, #7]
 8001642:	b29b      	uxth	r3, r3
 8001644:	330c      	adds	r3, #12
 8001646:	b298      	uxth	r0, r3
 8001648:	79bb      	ldrb	r3, [r7, #6]
 800164a:	b29b      	uxth	r3, r3
 800164c:	3304      	adds	r3, #4
 800164e:	b299      	uxth	r1, r3
 8001650:	79fb      	ldrb	r3, [r7, #7]
 8001652:	b29b      	uxth	r3, r3
 8001654:	330c      	adds	r3, #12
 8001656:	b29a      	uxth	r2, r3
 8001658:	79bb      	ldrb	r3, [r7, #6]
 800165a:	b29b      	uxth	r3, r3
 800165c:	3306      	adds	r3, #6
 800165e:	b29b      	uxth	r3, r3
 8001660:	2401      	movs	r4, #1
 8001662:	9400      	str	r4, [sp, #0]
 8001664:	f001 faab 	bl	8002bbe <SSD1306_DrawLine>
	  SSD1306_DrawLine((12+x), (y+12), (12+x), (y+10), 1);
 8001668:	79fb      	ldrb	r3, [r7, #7]
 800166a:	b29b      	uxth	r3, r3
 800166c:	330c      	adds	r3, #12
 800166e:	b298      	uxth	r0, r3
 8001670:	79bb      	ldrb	r3, [r7, #6]
 8001672:	b29b      	uxth	r3, r3
 8001674:	330c      	adds	r3, #12
 8001676:	b299      	uxth	r1, r3
 8001678:	79fb      	ldrb	r3, [r7, #7]
 800167a:	b29b      	uxth	r3, r3
 800167c:	330c      	adds	r3, #12
 800167e:	b29a      	uxth	r2, r3
 8001680:	79bb      	ldrb	r3, [r7, #6]
 8001682:	b29b      	uxth	r3, r3
 8001684:	330a      	adds	r3, #10
 8001686:	b29b      	uxth	r3, r3
 8001688:	2401      	movs	r4, #1
 800168a:	9400      	str	r4, [sp, #0]
 800168c:	f001 fa97 	bl	8002bbe <SSD1306_DrawLine>
}
 8001690:	bf00      	nop
 8001692:	370c      	adds	r7, #12
 8001694:	46bd      	mov	sp, r7
 8001696:	bd90      	pop	{r4, r7, pc}

08001698 <drawmenu1>:
void drawmenu1(uint8_t cursorm1, uint8_t cvcc, float x, float y)
{
 8001698:	b590      	push	{r4, r7, lr}
 800169a:	b08b      	sub	sp, #44	; 0x2c
 800169c:	af02      	add	r7, sp, #8
 800169e:	60ba      	str	r2, [r7, #8]
 80016a0:	607b      	str	r3, [r7, #4]
 80016a2:	4603      	mov	r3, r0
 80016a4:	73fb      	strb	r3, [r7, #15]
 80016a6:	460b      	mov	r3, r1
 80016a8:	73bb      	strb	r3, [r7, #14]
	  SSD1306_Clear();
 80016aa:	f001 fb83 	bl	8002db4 <SSD1306_Clear>
	  cursorm1 = ~cursorm1;
 80016ae:	7bfb      	ldrb	r3, [r7, #15]
 80016b0:	43db      	mvns	r3, r3
 80016b2:	73fb      	strb	r3, [r7, #15]
	  char* mecha = trimm(y);
 80016b4:	6878      	ldr	r0, [r7, #4]
 80016b6:	f7ff fe07 	bl	80012c8 <trimm>
 80016ba:	61b8      	str	r0, [r7, #24]
	  SSD1306_GotoXY (26,3);
 80016bc:	2103      	movs	r1, #3
 80016be:	201a      	movs	r0, #26
 80016c0:	f001 f9c2 	bl	8002a48 <SSD1306_GotoXY>
	  SSD1306_Putc (mecha[0], &Font_11x18, ((cursorm1 & 0x08)>>3));
 80016c4:	69bb      	ldr	r3, [r7, #24]
 80016c6:	7818      	ldrb	r0, [r3, #0]
 80016c8:	7bfb      	ldrb	r3, [r7, #15]
 80016ca:	10db      	asrs	r3, r3, #3
 80016cc:	b2db      	uxtb	r3, r3
 80016ce:	f003 0301 	and.w	r3, r3, #1
 80016d2:	b2db      	uxtb	r3, r3
 80016d4:	461a      	mov	r2, r3
 80016d6:	4953      	ldr	r1, [pc, #332]	; (8001824 <drawmenu1+0x18c>)
 80016d8:	f001 f9cc 	bl	8002a74 <SSD1306_Putc>
	  SSD1306_GotoXY (37,3);
 80016dc:	2103      	movs	r1, #3
 80016de:	2025      	movs	r0, #37	; 0x25
 80016e0:	f001 f9b2 	bl	8002a48 <SSD1306_GotoXY>
	  SSD1306_Putc (mecha[1], &Font_11x18, ((cursorm1 & 0x04)>>2));
 80016e4:	69bb      	ldr	r3, [r7, #24]
 80016e6:	3301      	adds	r3, #1
 80016e8:	7818      	ldrb	r0, [r3, #0]
 80016ea:	7bfb      	ldrb	r3, [r7, #15]
 80016ec:	109b      	asrs	r3, r3, #2
 80016ee:	b2db      	uxtb	r3, r3
 80016f0:	f003 0301 	and.w	r3, r3, #1
 80016f4:	b2db      	uxtb	r3, r3
 80016f6:	461a      	mov	r2, r3
 80016f8:	494a      	ldr	r1, [pc, #296]	; (8001824 <drawmenu1+0x18c>)
 80016fa:	f001 f9bb 	bl	8002a74 <SSD1306_Putc>
	  SSD1306_GotoXY (48,3);
 80016fe:	2103      	movs	r1, #3
 8001700:	2030      	movs	r0, #48	; 0x30
 8001702:	f001 f9a1 	bl	8002a48 <SSD1306_GotoXY>
	  SSD1306_Putc(',', &Font_11x18, 1);
 8001706:	2201      	movs	r2, #1
 8001708:	4946      	ldr	r1, [pc, #280]	; (8001824 <drawmenu1+0x18c>)
 800170a:	202c      	movs	r0, #44	; 0x2c
 800170c:	f001 f9b2 	bl	8002a74 <SSD1306_Putc>
	  SSD1306_GotoXY (59,3);
 8001710:	2103      	movs	r1, #3
 8001712:	203b      	movs	r0, #59	; 0x3b
 8001714:	f001 f998 	bl	8002a48 <SSD1306_GotoXY>
	  SSD1306_Putc (mecha[2], &Font_11x18, ((cursorm1 & 0x02)>>1));
 8001718:	69bb      	ldr	r3, [r7, #24]
 800171a:	3302      	adds	r3, #2
 800171c:	7818      	ldrb	r0, [r3, #0]
 800171e:	7bfb      	ldrb	r3, [r7, #15]
 8001720:	105b      	asrs	r3, r3, #1
 8001722:	b2db      	uxtb	r3, r3
 8001724:	f003 0301 	and.w	r3, r3, #1
 8001728:	b2db      	uxtb	r3, r3
 800172a:	461a      	mov	r2, r3
 800172c:	493d      	ldr	r1, [pc, #244]	; (8001824 <drawmenu1+0x18c>)
 800172e:	f001 f9a1 	bl	8002a74 <SSD1306_Putc>
	  SSD1306_GotoXY (70,3);
 8001732:	2103      	movs	r1, #3
 8001734:	2046      	movs	r0, #70	; 0x46
 8001736:	f001 f987 	bl	8002a48 <SSD1306_GotoXY>
	  SSD1306_Putc (mecha[3], &Font_11x18, (cursorm1 & 0x01));
 800173a:	69bb      	ldr	r3, [r7, #24]
 800173c:	3303      	adds	r3, #3
 800173e:	7818      	ldrb	r0, [r3, #0]
 8001740:	7bfb      	ldrb	r3, [r7, #15]
 8001742:	f003 0301 	and.w	r3, r3, #1
 8001746:	b2db      	uxtb	r3, r3
 8001748:	461a      	mov	r2, r3
 800174a:	4936      	ldr	r1, [pc, #216]	; (8001824 <drawmenu1+0x18c>)
 800174c:	f001 f992 	bl	8002a74 <SSD1306_Putc>
	  SSD1306_GotoXY (107,3);
 8001750:	2103      	movs	r1, #3
 8001752:	206b      	movs	r0, #107	; 0x6b
 8001754:	f001 f978 	bl	8002a48 <SSD1306_GotoXY>
	  SSD1306_Putc('V', &Font_11x18, 1);
 8001758:	2201      	movs	r2, #1
 800175a:	4932      	ldr	r1, [pc, #200]	; (8001824 <drawmenu1+0x18c>)
 800175c:	2056      	movs	r0, #86	; 0x56
 800175e:	f001 f989 	bl	8002a74 <SSD1306_Putc>
	  char* proud = trimm(x);
 8001762:	68b8      	ldr	r0, [r7, #8]
 8001764:	f7ff fdb0 	bl	80012c8 <trimm>
 8001768:	6178      	str	r0, [r7, #20]
	  SSD1306_GotoXY (26,25);
 800176a:	2119      	movs	r1, #25
 800176c:	201a      	movs	r0, #26
 800176e:	f001 f96b 	bl	8002a48 <SSD1306_GotoXY>
	  SSD1306_Putc (proud[0], &Font_11x18, ((cursorm1 & 0x80)>>7));
 8001772:	697b      	ldr	r3, [r7, #20]
 8001774:	7818      	ldrb	r0, [r3, #0]
 8001776:	7bfb      	ldrb	r3, [r7, #15]
 8001778:	09db      	lsrs	r3, r3, #7
 800177a:	b2db      	uxtb	r3, r3
 800177c:	461a      	mov	r2, r3
 800177e:	4929      	ldr	r1, [pc, #164]	; (8001824 <drawmenu1+0x18c>)
 8001780:	f001 f978 	bl	8002a74 <SSD1306_Putc>
	  SSD1306_GotoXY (37,25);
 8001784:	2119      	movs	r1, #25
 8001786:	2025      	movs	r0, #37	; 0x25
 8001788:	f001 f95e 	bl	8002a48 <SSD1306_GotoXY>
	  SSD1306_Putc (proud[1], &Font_11x18, ((cursorm1 & 0x40)>>6));
 800178c:	697b      	ldr	r3, [r7, #20]
 800178e:	3301      	adds	r3, #1
 8001790:	7818      	ldrb	r0, [r3, #0]
 8001792:	7bfb      	ldrb	r3, [r7, #15]
 8001794:	119b      	asrs	r3, r3, #6
 8001796:	b2db      	uxtb	r3, r3
 8001798:	f003 0301 	and.w	r3, r3, #1
 800179c:	b2db      	uxtb	r3, r3
 800179e:	461a      	mov	r2, r3
 80017a0:	4920      	ldr	r1, [pc, #128]	; (8001824 <drawmenu1+0x18c>)
 80017a2:	f001 f967 	bl	8002a74 <SSD1306_Putc>
	  SSD1306_GotoXY (48,25);
 80017a6:	2119      	movs	r1, #25
 80017a8:	2030      	movs	r0, #48	; 0x30
 80017aa:	f001 f94d 	bl	8002a48 <SSD1306_GotoXY>
	  SSD1306_Putc(',', &Font_11x18, 1);
 80017ae:	2201      	movs	r2, #1
 80017b0:	491c      	ldr	r1, [pc, #112]	; (8001824 <drawmenu1+0x18c>)
 80017b2:	202c      	movs	r0, #44	; 0x2c
 80017b4:	f001 f95e 	bl	8002a74 <SSD1306_Putc>
	  SSD1306_GotoXY (59,25);
 80017b8:	2119      	movs	r1, #25
 80017ba:	203b      	movs	r0, #59	; 0x3b
 80017bc:	f001 f944 	bl	8002a48 <SSD1306_GotoXY>
	  SSD1306_Putc (proud[2], &Font_11x18, ((cursorm1 & 0x20)>>5));
 80017c0:	697b      	ldr	r3, [r7, #20]
 80017c2:	3302      	adds	r3, #2
 80017c4:	7818      	ldrb	r0, [r3, #0]
 80017c6:	7bfb      	ldrb	r3, [r7, #15]
 80017c8:	115b      	asrs	r3, r3, #5
 80017ca:	b2db      	uxtb	r3, r3
 80017cc:	f003 0301 	and.w	r3, r3, #1
 80017d0:	b2db      	uxtb	r3, r3
 80017d2:	461a      	mov	r2, r3
 80017d4:	4913      	ldr	r1, [pc, #76]	; (8001824 <drawmenu1+0x18c>)
 80017d6:	f001 f94d 	bl	8002a74 <SSD1306_Putc>
	  SSD1306_GotoXY (70,25);
 80017da:	2119      	movs	r1, #25
 80017dc:	2046      	movs	r0, #70	; 0x46
 80017de:	f001 f933 	bl	8002a48 <SSD1306_GotoXY>
	  SSD1306_Putc (proud[3], &Font_11x18, ((cursorm1 & 0x10)>>4));
 80017e2:	697b      	ldr	r3, [r7, #20]
 80017e4:	3303      	adds	r3, #3
 80017e6:	7818      	ldrb	r0, [r3, #0]
 80017e8:	7bfb      	ldrb	r3, [r7, #15]
 80017ea:	111b      	asrs	r3, r3, #4
 80017ec:	b2db      	uxtb	r3, r3
 80017ee:	f003 0301 	and.w	r3, r3, #1
 80017f2:	b2db      	uxtb	r3, r3
 80017f4:	461a      	mov	r2, r3
 80017f6:	490b      	ldr	r1, [pc, #44]	; (8001824 <drawmenu1+0x18c>)
 80017f8:	f001 f93c 	bl	8002a74 <SSD1306_Putc>
	  SSD1306_GotoXY (107,25);
 80017fc:	2119      	movs	r1, #25
 80017fe:	206b      	movs	r0, #107	; 0x6b
 8001800:	f001 f922 	bl	8002a48 <SSD1306_GotoXY>
	  SSD1306_Putc('A', &Font_11x18, 1);
 8001804:	2201      	movs	r2, #1
 8001806:	4907      	ldr	r1, [pc, #28]	; (8001824 <drawmenu1+0x18c>)
 8001808:	2041      	movs	r0, #65	; 0x41
 800180a:	f001 f933 	bl	8002a74 <SSD1306_Putc>
	  uint8_t xcvcc = 0;
 800180e:	2300      	movs	r3, #0
 8001810:	77fb      	strb	r3, [r7, #31]
	  uint8_t ycvcc = 0;
 8001812:	2300      	movs	r3, #0
 8001814:	77bb      	strb	r3, [r7, #30]
	  switch (cvcc) {
 8001816:	7bbb      	ldrb	r3, [r7, #14]
 8001818:	2b01      	cmp	r3, #1
 800181a:	d005      	beq.n	8001828 <drawmenu1+0x190>
 800181c:	2b02      	cmp	r3, #2
 800181e:	f000 80c5 	beq.w	80019ac <drawmenu1+0x314>
			  ycvcc = 45;
			  drawlogoC(xcvcc, ycvcc);
			  drawlogoC((xcvcc+10), ycvcc);
			break;
		default:
			break;
 8001822:	e0d6      	b.n	80019d2 <drawmenu1+0x33a>
 8001824:	20000000 	.word	0x20000000
			  xcvcc = 81;
 8001828:	2351      	movs	r3, #81	; 0x51
 800182a:	77fb      	strb	r3, [r7, #31]
			  ycvcc = 45;
 800182c:	232d      	movs	r3, #45	; 0x2d
 800182e:	77bb      	strb	r3, [r7, #30]
			  drawlogoC(92, ycvcc);
 8001830:	7fbb      	ldrb	r3, [r7, #30]
 8001832:	4619      	mov	r1, r3
 8001834:	205c      	movs	r0, #92	; 0x5c
 8001836:	f7ff fe33 	bl	80014a0 <drawlogoC>
			  SSD1306_DrawLine((5+xcvcc), (ycvcc+2), (5+xcvcc), (ycvcc+6), 1);
 800183a:	7ffb      	ldrb	r3, [r7, #31]
 800183c:	b29b      	uxth	r3, r3
 800183e:	3305      	adds	r3, #5
 8001840:	b298      	uxth	r0, r3
 8001842:	7fbb      	ldrb	r3, [r7, #30]
 8001844:	b29b      	uxth	r3, r3
 8001846:	3302      	adds	r3, #2
 8001848:	b299      	uxth	r1, r3
 800184a:	7ffb      	ldrb	r3, [r7, #31]
 800184c:	b29b      	uxth	r3, r3
 800184e:	3305      	adds	r3, #5
 8001850:	b29a      	uxth	r2, r3
 8001852:	7fbb      	ldrb	r3, [r7, #30]
 8001854:	b29b      	uxth	r3, r3
 8001856:	3306      	adds	r3, #6
 8001858:	b29b      	uxth	r3, r3
 800185a:	2401      	movs	r4, #1
 800185c:	9400      	str	r4, [sp, #0]
 800185e:	f001 f9ae 	bl	8002bbe <SSD1306_DrawLine>
			  SSD1306_DrawLine((13+xcvcc), (ycvcc+2), (13+xcvcc), (ycvcc+6), 1);
 8001862:	7ffb      	ldrb	r3, [r7, #31]
 8001864:	b29b      	uxth	r3, r3
 8001866:	330d      	adds	r3, #13
 8001868:	b298      	uxth	r0, r3
 800186a:	7fbb      	ldrb	r3, [r7, #30]
 800186c:	b29b      	uxth	r3, r3
 800186e:	3302      	adds	r3, #2
 8001870:	b299      	uxth	r1, r3
 8001872:	7ffb      	ldrb	r3, [r7, #31]
 8001874:	b29b      	uxth	r3, r3
 8001876:	330d      	adds	r3, #13
 8001878:	b29a      	uxth	r2, r3
 800187a:	7fbb      	ldrb	r3, [r7, #30]
 800187c:	b29b      	uxth	r3, r3
 800187e:	3306      	adds	r3, #6
 8001880:	b29b      	uxth	r3, r3
 8001882:	2401      	movs	r4, #1
 8001884:	9400      	str	r4, [sp, #0]
 8001886:	f001 f99a 	bl	8002bbe <SSD1306_DrawLine>
			  SSD1306_DrawLine((6+xcvcc), (ycvcc+2), (6+xcvcc), (ycvcc+11), 1);
 800188a:	7ffb      	ldrb	r3, [r7, #31]
 800188c:	b29b      	uxth	r3, r3
 800188e:	3306      	adds	r3, #6
 8001890:	b298      	uxth	r0, r3
 8001892:	7fbb      	ldrb	r3, [r7, #30]
 8001894:	b29b      	uxth	r3, r3
 8001896:	3302      	adds	r3, #2
 8001898:	b299      	uxth	r1, r3
 800189a:	7ffb      	ldrb	r3, [r7, #31]
 800189c:	b29b      	uxth	r3, r3
 800189e:	3306      	adds	r3, #6
 80018a0:	b29a      	uxth	r2, r3
 80018a2:	7fbb      	ldrb	r3, [r7, #30]
 80018a4:	b29b      	uxth	r3, r3
 80018a6:	330b      	adds	r3, #11
 80018a8:	b29b      	uxth	r3, r3
 80018aa:	2401      	movs	r4, #1
 80018ac:	9400      	str	r4, [sp, #0]
 80018ae:	f001 f986 	bl	8002bbe <SSD1306_DrawLine>
			  SSD1306_DrawLine((12+xcvcc), (ycvcc+2), (12+xcvcc), (ycvcc+11), 1);
 80018b2:	7ffb      	ldrb	r3, [r7, #31]
 80018b4:	b29b      	uxth	r3, r3
 80018b6:	330c      	adds	r3, #12
 80018b8:	b298      	uxth	r0, r3
 80018ba:	7fbb      	ldrb	r3, [r7, #30]
 80018bc:	b29b      	uxth	r3, r3
 80018be:	3302      	adds	r3, #2
 80018c0:	b299      	uxth	r1, r3
 80018c2:	7ffb      	ldrb	r3, [r7, #31]
 80018c4:	b29b      	uxth	r3, r3
 80018c6:	330c      	adds	r3, #12
 80018c8:	b29a      	uxth	r2, r3
 80018ca:	7fbb      	ldrb	r3, [r7, #30]
 80018cc:	b29b      	uxth	r3, r3
 80018ce:	330b      	adds	r3, #11
 80018d0:	b29b      	uxth	r3, r3
 80018d2:	2401      	movs	r4, #1
 80018d4:	9400      	str	r4, [sp, #0]
 80018d6:	f001 f972 	bl	8002bbe <SSD1306_DrawLine>
			  SSD1306_DrawLine((7+xcvcc), (ycvcc+6), (7+xcvcc), (ycvcc+13), 1);
 80018da:	7ffb      	ldrb	r3, [r7, #31]
 80018dc:	b29b      	uxth	r3, r3
 80018de:	3307      	adds	r3, #7
 80018e0:	b298      	uxth	r0, r3
 80018e2:	7fbb      	ldrb	r3, [r7, #30]
 80018e4:	b29b      	uxth	r3, r3
 80018e6:	3306      	adds	r3, #6
 80018e8:	b299      	uxth	r1, r3
 80018ea:	7ffb      	ldrb	r3, [r7, #31]
 80018ec:	b29b      	uxth	r3, r3
 80018ee:	3307      	adds	r3, #7
 80018f0:	b29a      	uxth	r2, r3
 80018f2:	7fbb      	ldrb	r3, [r7, #30]
 80018f4:	b29b      	uxth	r3, r3
 80018f6:	330d      	adds	r3, #13
 80018f8:	b29b      	uxth	r3, r3
 80018fa:	2401      	movs	r4, #1
 80018fc:	9400      	str	r4, [sp, #0]
 80018fe:	f001 f95e 	bl	8002bbe <SSD1306_DrawLine>
			  SSD1306_DrawLine((11+xcvcc), (ycvcc+6), (11+xcvcc), (ycvcc+13), 1);
 8001902:	7ffb      	ldrb	r3, [r7, #31]
 8001904:	b29b      	uxth	r3, r3
 8001906:	330b      	adds	r3, #11
 8001908:	b298      	uxth	r0, r3
 800190a:	7fbb      	ldrb	r3, [r7, #30]
 800190c:	b29b      	uxth	r3, r3
 800190e:	3306      	adds	r3, #6
 8001910:	b299      	uxth	r1, r3
 8001912:	7ffb      	ldrb	r3, [r7, #31]
 8001914:	b29b      	uxth	r3, r3
 8001916:	330b      	adds	r3, #11
 8001918:	b29a      	uxth	r2, r3
 800191a:	7fbb      	ldrb	r3, [r7, #30]
 800191c:	b29b      	uxth	r3, r3
 800191e:	330d      	adds	r3, #13
 8001920:	b29b      	uxth	r3, r3
 8001922:	2401      	movs	r4, #1
 8001924:	9400      	str	r4, [sp, #0]
 8001926:	f001 f94a 	bl	8002bbe <SSD1306_DrawLine>
			  SSD1306_DrawLine((8+xcvcc), (ycvcc+11), (8+xcvcc), (ycvcc+14), 1);
 800192a:	7ffb      	ldrb	r3, [r7, #31]
 800192c:	b29b      	uxth	r3, r3
 800192e:	3308      	adds	r3, #8
 8001930:	b298      	uxth	r0, r3
 8001932:	7fbb      	ldrb	r3, [r7, #30]
 8001934:	b29b      	uxth	r3, r3
 8001936:	330b      	adds	r3, #11
 8001938:	b299      	uxth	r1, r3
 800193a:	7ffb      	ldrb	r3, [r7, #31]
 800193c:	b29b      	uxth	r3, r3
 800193e:	3308      	adds	r3, #8
 8001940:	b29a      	uxth	r2, r3
 8001942:	7fbb      	ldrb	r3, [r7, #30]
 8001944:	b29b      	uxth	r3, r3
 8001946:	330e      	adds	r3, #14
 8001948:	b29b      	uxth	r3, r3
 800194a:	2401      	movs	r4, #1
 800194c:	9400      	str	r4, [sp, #0]
 800194e:	f001 f936 	bl	8002bbe <SSD1306_DrawLine>
			  SSD1306_DrawLine((10+xcvcc), (ycvcc+11), (10+xcvcc), (ycvcc+14), 1);
 8001952:	7ffb      	ldrb	r3, [r7, #31]
 8001954:	b29b      	uxth	r3, r3
 8001956:	330a      	adds	r3, #10
 8001958:	b298      	uxth	r0, r3
 800195a:	7fbb      	ldrb	r3, [r7, #30]
 800195c:	b29b      	uxth	r3, r3
 800195e:	330b      	adds	r3, #11
 8001960:	b299      	uxth	r1, r3
 8001962:	7ffb      	ldrb	r3, [r7, #31]
 8001964:	b29b      	uxth	r3, r3
 8001966:	330a      	adds	r3, #10
 8001968:	b29a      	uxth	r2, r3
 800196a:	7fbb      	ldrb	r3, [r7, #30]
 800196c:	b29b      	uxth	r3, r3
 800196e:	330e      	adds	r3, #14
 8001970:	b29b      	uxth	r3, r3
 8001972:	2401      	movs	r4, #1
 8001974:	9400      	str	r4, [sp, #0]
 8001976:	f001 f922 	bl	8002bbe <SSD1306_DrawLine>
			  SSD1306_DrawPixel((9+xcvcc), (ycvcc+13), 1);
 800197a:	7ffb      	ldrb	r3, [r7, #31]
 800197c:	b29b      	uxth	r3, r3
 800197e:	3309      	adds	r3, #9
 8001980:	b298      	uxth	r0, r3
 8001982:	7fbb      	ldrb	r3, [r7, #30]
 8001984:	b29b      	uxth	r3, r3
 8001986:	330d      	adds	r3, #13
 8001988:	b29b      	uxth	r3, r3
 800198a:	2201      	movs	r2, #1
 800198c:	4619      	mov	r1, r3
 800198e:	f000 fffd 	bl	800298c <SSD1306_DrawPixel>
			  SSD1306_DrawPixel((9+xcvcc), (ycvcc+14), 1);
 8001992:	7ffb      	ldrb	r3, [r7, #31]
 8001994:	b29b      	uxth	r3, r3
 8001996:	3309      	adds	r3, #9
 8001998:	b298      	uxth	r0, r3
 800199a:	7fbb      	ldrb	r3, [r7, #30]
 800199c:	b29b      	uxth	r3, r3
 800199e:	330e      	adds	r3, #14
 80019a0:	b29b      	uxth	r3, r3
 80019a2:	2201      	movs	r2, #1
 80019a4:	4619      	mov	r1, r3
 80019a6:	f000 fff1 	bl	800298c <SSD1306_DrawPixel>
			break;
 80019aa:	e012      	b.n	80019d2 <drawmenu1+0x33a>
			  xcvcc = 20;
 80019ac:	2314      	movs	r3, #20
 80019ae:	77fb      	strb	r3, [r7, #31]
			  ycvcc = 45;
 80019b0:	232d      	movs	r3, #45	; 0x2d
 80019b2:	77bb      	strb	r3, [r7, #30]
			  drawlogoC(xcvcc, ycvcc);
 80019b4:	7fba      	ldrb	r2, [r7, #30]
 80019b6:	7ffb      	ldrb	r3, [r7, #31]
 80019b8:	4611      	mov	r1, r2
 80019ba:	4618      	mov	r0, r3
 80019bc:	f7ff fd70 	bl	80014a0 <drawlogoC>
			  drawlogoC((xcvcc+10), ycvcc);
 80019c0:	7ffb      	ldrb	r3, [r7, #31]
 80019c2:	330a      	adds	r3, #10
 80019c4:	b2db      	uxtb	r3, r3
 80019c6:	7fba      	ldrb	r2, [r7, #30]
 80019c8:	4611      	mov	r1, r2
 80019ca:	4618      	mov	r0, r3
 80019cc:	f7ff fd68 	bl	80014a0 <drawlogoC>
			break;
 80019d0:	bf00      	nop
	}
	  if (cvcc) {
 80019d2:	7bbb      	ldrb	r3, [r7, #14]
 80019d4:	2b00      	cmp	r3, #0
 80019d6:	d077      	beq.n	8001ac8 <drawmenu1+0x430>
		  	  SSD1306_DrawLine((2+xcvcc), ycvcc , (25+xcvcc), ycvcc, 1);
 80019d8:	7ffb      	ldrb	r3, [r7, #31]
 80019da:	b29b      	uxth	r3, r3
 80019dc:	3302      	adds	r3, #2
 80019de:	b298      	uxth	r0, r3
 80019e0:	7fbb      	ldrb	r3, [r7, #30]
 80019e2:	b299      	uxth	r1, r3
 80019e4:	7ffb      	ldrb	r3, [r7, #31]
 80019e6:	b29b      	uxth	r3, r3
 80019e8:	3319      	adds	r3, #25
 80019ea:	b29a      	uxth	r2, r3
 80019ec:	7fbb      	ldrb	r3, [r7, #30]
 80019ee:	b29b      	uxth	r3, r3
 80019f0:	2401      	movs	r4, #1
 80019f2:	9400      	str	r4, [sp, #0]
 80019f4:	f001 f8e3 	bl	8002bbe <SSD1306_DrawLine>
		  	  SSD1306_DrawLine(xcvcc, (ycvcc+2), xcvcc, (ycvcc+15), 1);
 80019f8:	7ffb      	ldrb	r3, [r7, #31]
 80019fa:	b298      	uxth	r0, r3
 80019fc:	7fbb      	ldrb	r3, [r7, #30]
 80019fe:	b29b      	uxth	r3, r3
 8001a00:	3302      	adds	r3, #2
 8001a02:	b299      	uxth	r1, r3
 8001a04:	7ffb      	ldrb	r3, [r7, #31]
 8001a06:	b29a      	uxth	r2, r3
 8001a08:	7fbb      	ldrb	r3, [r7, #30]
 8001a0a:	b29b      	uxth	r3, r3
 8001a0c:	330f      	adds	r3, #15
 8001a0e:	b29b      	uxth	r3, r3
 8001a10:	2401      	movs	r4, #1
 8001a12:	9400      	str	r4, [sp, #0]
 8001a14:	f001 f8d3 	bl	8002bbe <SSD1306_DrawLine>
		  	  SSD1306_DrawLine((2+xcvcc), (ycvcc+17), (25+xcvcc), (ycvcc+17), 1);
 8001a18:	7ffb      	ldrb	r3, [r7, #31]
 8001a1a:	b29b      	uxth	r3, r3
 8001a1c:	3302      	adds	r3, #2
 8001a1e:	b298      	uxth	r0, r3
 8001a20:	7fbb      	ldrb	r3, [r7, #30]
 8001a22:	b29b      	uxth	r3, r3
 8001a24:	3311      	adds	r3, #17
 8001a26:	b299      	uxth	r1, r3
 8001a28:	7ffb      	ldrb	r3, [r7, #31]
 8001a2a:	b29b      	uxth	r3, r3
 8001a2c:	3319      	adds	r3, #25
 8001a2e:	b29a      	uxth	r2, r3
 8001a30:	7fbb      	ldrb	r3, [r7, #30]
 8001a32:	b29b      	uxth	r3, r3
 8001a34:	3311      	adds	r3, #17
 8001a36:	b29b      	uxth	r3, r3
 8001a38:	2401      	movs	r4, #1
 8001a3a:	9400      	str	r4, [sp, #0]
 8001a3c:	f001 f8bf 	bl	8002bbe <SSD1306_DrawLine>
		  	  SSD1306_DrawLine((27+xcvcc), (ycvcc+2), (27+xcvcc), (ycvcc+15), 1);
 8001a40:	7ffb      	ldrb	r3, [r7, #31]
 8001a42:	b29b      	uxth	r3, r3
 8001a44:	331b      	adds	r3, #27
 8001a46:	b298      	uxth	r0, r3
 8001a48:	7fbb      	ldrb	r3, [r7, #30]
 8001a4a:	b29b      	uxth	r3, r3
 8001a4c:	3302      	adds	r3, #2
 8001a4e:	b299      	uxth	r1, r3
 8001a50:	7ffb      	ldrb	r3, [r7, #31]
 8001a52:	b29b      	uxth	r3, r3
 8001a54:	331b      	adds	r3, #27
 8001a56:	b29a      	uxth	r2, r3
 8001a58:	7fbb      	ldrb	r3, [r7, #30]
 8001a5a:	b29b      	uxth	r3, r3
 8001a5c:	330f      	adds	r3, #15
 8001a5e:	b29b      	uxth	r3, r3
 8001a60:	2401      	movs	r4, #1
 8001a62:	9400      	str	r4, [sp, #0]
 8001a64:	f001 f8ab 	bl	8002bbe <SSD1306_DrawLine>
		  	  SSD1306_DrawPixel((1+xcvcc), (ycvcc+1), 1);
 8001a68:	7ffb      	ldrb	r3, [r7, #31]
 8001a6a:	b29b      	uxth	r3, r3
 8001a6c:	3301      	adds	r3, #1
 8001a6e:	b298      	uxth	r0, r3
 8001a70:	7fbb      	ldrb	r3, [r7, #30]
 8001a72:	b29b      	uxth	r3, r3
 8001a74:	3301      	adds	r3, #1
 8001a76:	b29b      	uxth	r3, r3
 8001a78:	2201      	movs	r2, #1
 8001a7a:	4619      	mov	r1, r3
 8001a7c:	f000 ff86 	bl	800298c <SSD1306_DrawPixel>
		  	  SSD1306_DrawPixel((1+xcvcc), (ycvcc+16), 1);
 8001a80:	7ffb      	ldrb	r3, [r7, #31]
 8001a82:	b29b      	uxth	r3, r3
 8001a84:	3301      	adds	r3, #1
 8001a86:	b298      	uxth	r0, r3
 8001a88:	7fbb      	ldrb	r3, [r7, #30]
 8001a8a:	b29b      	uxth	r3, r3
 8001a8c:	3310      	adds	r3, #16
 8001a8e:	b29b      	uxth	r3, r3
 8001a90:	2201      	movs	r2, #1
 8001a92:	4619      	mov	r1, r3
 8001a94:	f000 ff7a 	bl	800298c <SSD1306_DrawPixel>
		  	  SSD1306_DrawPixel((26+xcvcc), (ycvcc+1), 1);
 8001a98:	7ffb      	ldrb	r3, [r7, #31]
 8001a9a:	b29b      	uxth	r3, r3
 8001a9c:	331a      	adds	r3, #26
 8001a9e:	b298      	uxth	r0, r3
 8001aa0:	7fbb      	ldrb	r3, [r7, #30]
 8001aa2:	b29b      	uxth	r3, r3
 8001aa4:	3301      	adds	r3, #1
 8001aa6:	b29b      	uxth	r3, r3
 8001aa8:	2201      	movs	r2, #1
 8001aaa:	4619      	mov	r1, r3
 8001aac:	f000 ff6e 	bl	800298c <SSD1306_DrawPixel>
		  	  SSD1306_DrawPixel((26+xcvcc), (ycvcc+16), 1);
 8001ab0:	7ffb      	ldrb	r3, [r7, #31]
 8001ab2:	b29b      	uxth	r3, r3
 8001ab4:	331a      	adds	r3, #26
 8001ab6:	b298      	uxth	r0, r3
 8001ab8:	7fbb      	ldrb	r3, [r7, #30]
 8001aba:	b29b      	uxth	r3, r3
 8001abc:	3310      	adds	r3, #16
 8001abe:	b29b      	uxth	r3, r3
 8001ac0:	2201      	movs	r2, #1
 8001ac2:	4619      	mov	r1, r3
 8001ac4:	f000 ff62 	bl	800298c <SSD1306_DrawPixel>
	  }
	  SSD1306_UpdateScreen(); // update screen
 8001ac8:	f000 ff1a 	bl	8002900 <SSD1306_UpdateScreen>
}
 8001acc:	bf00      	nop
 8001ace:	3724      	adds	r7, #36	; 0x24
 8001ad0:	46bd      	mov	sp, r7
 8001ad2:	bd90      	pop	{r4, r7, pc}

08001ad4 <drawmenu2>:
void drawmenu2()
{
 8001ad4:	b580      	push	{r7, lr}
 8001ad6:	b084      	sub	sp, #16
 8001ad8:	af00      	add	r7, sp, #0
	uint16_t pz = 0;
 8001ada:	2300      	movs	r3, #0
 8001adc:	81fb      	strh	r3, [r7, #14]
	uint16_t temp = teplota;
 8001ade:	4b43      	ldr	r3, [pc, #268]	; (8001bec <drawmenu2+0x118>)
 8001ae0:	681b      	ldr	r3, [r3, #0]
 8001ae2:	4618      	mov	r0, r3
 8001ae4:	f7ff fac4 	bl	8001070 <__aeabi_f2uiz>
 8001ae8:	4603      	mov	r3, r0
 8001aea:	81bb      	strh	r3, [r7, #12]
	char pzc [2];
	char tempc [2];
	char ventc [2];
	itoa(temp, tempc, 10);
 8001aec:	89bb      	ldrh	r3, [r7, #12]
 8001aee:	1d39      	adds	r1, r7, #4
 8001af0:	220a      	movs	r2, #10
 8001af2:	4618      	mov	r0, r3
 8001af4:	f004 ff10 	bl	8006918 <itoa>
	itoa(ventilatorper, ventc, 10);
 8001af8:	4b3d      	ldr	r3, [pc, #244]	; (8001bf0 <drawmenu2+0x11c>)
 8001afa:	881b      	ldrh	r3, [r3, #0]
 8001afc:	4618      	mov	r0, r3
 8001afe:	463b      	mov	r3, r7
 8001b00:	220a      	movs	r2, #10
 8001b02:	4619      	mov	r1, r3
 8001b04:	f004 ff08 	bl	8006918 <itoa>
	pz = Im * Um;
 8001b08:	4b3a      	ldr	r3, [pc, #232]	; (8001bf4 <drawmenu2+0x120>)
 8001b0a:	681b      	ldr	r3, [r3, #0]
 8001b0c:	4a3a      	ldr	r2, [pc, #232]	; (8001bf8 <drawmenu2+0x124>)
 8001b0e:	6812      	ldr	r2, [r2, #0]
 8001b10:	4611      	mov	r1, r2
 8001b12:	4618      	mov	r0, r3
 8001b14:	f7ff f8e6 	bl	8000ce4 <__aeabi_fmul>
 8001b18:	4603      	mov	r3, r0
 8001b1a:	4618      	mov	r0, r3
 8001b1c:	f7ff faa8 	bl	8001070 <__aeabi_f2uiz>
 8001b20:	4603      	mov	r3, r0
 8001b22:	81fb      	strh	r3, [r7, #14]
	itoa(pz, pzc, 10);
 8001b24:	89fb      	ldrh	r3, [r7, #14]
 8001b26:	f107 0108 	add.w	r1, r7, #8
 8001b2a:	220a      	movs	r2, #10
 8001b2c:	4618      	mov	r0, r3
 8001b2e:	f004 fef3 	bl	8006918 <itoa>
	SSD1306_Clear();
 8001b32:	f001 f93f 	bl	8002db4 <SSD1306_Clear>
	SSD1306_GotoXY (10,3);
 8001b36:	2103      	movs	r1, #3
 8001b38:	200a      	movs	r0, #10
 8001b3a:	f000 ff85 	bl	8002a48 <SSD1306_GotoXY>
	SSD1306_Puts("Pz =", &Font_11x18, 1);
 8001b3e:	2201      	movs	r2, #1
 8001b40:	492e      	ldr	r1, [pc, #184]	; (8001bfc <drawmenu2+0x128>)
 8001b42:	482f      	ldr	r0, [pc, #188]	; (8001c00 <drawmenu2+0x12c>)
 8001b44:	f001 f816 	bl	8002b74 <SSD1306_Puts>
	SSD1306_GotoXY (65,3);
 8001b48:	2103      	movs	r1, #3
 8001b4a:	2041      	movs	r0, #65	; 0x41
 8001b4c:	f000 ff7c 	bl	8002a48 <SSD1306_GotoXY>
	SSD1306_Puts(pzc, &Font_11x18, 1);
 8001b50:	f107 0308 	add.w	r3, r7, #8
 8001b54:	2201      	movs	r2, #1
 8001b56:	4929      	ldr	r1, [pc, #164]	; (8001bfc <drawmenu2+0x128>)
 8001b58:	4618      	mov	r0, r3
 8001b5a:	f001 f80b 	bl	8002b74 <SSD1306_Puts>
	SSD1306_GotoXY (107,3);
 8001b5e:	2103      	movs	r1, #3
 8001b60:	206b      	movs	r0, #107	; 0x6b
 8001b62:	f000 ff71 	bl	8002a48 <SSD1306_GotoXY>
	SSD1306_Putc('W', &Font_11x18, 1);
 8001b66:	2201      	movs	r2, #1
 8001b68:	4924      	ldr	r1, [pc, #144]	; (8001bfc <drawmenu2+0x128>)
 8001b6a:	2057      	movs	r0, #87	; 0x57
 8001b6c:	f000 ff82 	bl	8002a74 <SSD1306_Putc>
	SSD1306_GotoXY (10,25);
 8001b70:	2119      	movs	r1, #25
 8001b72:	200a      	movs	r0, #10
 8001b74:	f000 ff68 	bl	8002a48 <SSD1306_GotoXY>
	SSD1306_Puts("tep=", &Font_11x18, 1);
 8001b78:	2201      	movs	r2, #1
 8001b7a:	4920      	ldr	r1, [pc, #128]	; (8001bfc <drawmenu2+0x128>)
 8001b7c:	4821      	ldr	r0, [pc, #132]	; (8001c04 <drawmenu2+0x130>)
 8001b7e:	f000 fff9 	bl	8002b74 <SSD1306_Puts>
	SSD1306_GotoXY (65,25);
 8001b82:	2119      	movs	r1, #25
 8001b84:	2041      	movs	r0, #65	; 0x41
 8001b86:	f000 ff5f 	bl	8002a48 <SSD1306_GotoXY>
	SSD1306_Puts(tempc, &Font_11x18, 1);
 8001b8a:	1d3b      	adds	r3, r7, #4
 8001b8c:	2201      	movs	r2, #1
 8001b8e:	491b      	ldr	r1, [pc, #108]	; (8001bfc <drawmenu2+0x128>)
 8001b90:	4618      	mov	r0, r3
 8001b92:	f000 ffef 	bl	8002b74 <SSD1306_Puts>
	SSD1306_GotoXY (107,25);
 8001b96:	2119      	movs	r1, #25
 8001b98:	206b      	movs	r0, #107	; 0x6b
 8001b9a:	f000 ff55 	bl	8002a48 <SSD1306_GotoXY>
	SSD1306_Putc('C', &Font_11x18, 1);
 8001b9e:	2201      	movs	r2, #1
 8001ba0:	4916      	ldr	r1, [pc, #88]	; (8001bfc <drawmenu2+0x128>)
 8001ba2:	2043      	movs	r0, #67	; 0x43
 8001ba4:	f000 ff66 	bl	8002a74 <SSD1306_Putc>
	SSD1306_GotoXY (10,43);
 8001ba8:	212b      	movs	r1, #43	; 0x2b
 8001baa:	200a      	movs	r0, #10
 8001bac:	f000 ff4c 	bl	8002a48 <SSD1306_GotoXY>
	SSD1306_Puts("vent=", &Font_11x18, 1);
 8001bb0:	2201      	movs	r2, #1
 8001bb2:	4912      	ldr	r1, [pc, #72]	; (8001bfc <drawmenu2+0x128>)
 8001bb4:	4814      	ldr	r0, [pc, #80]	; (8001c08 <drawmenu2+0x134>)
 8001bb6:	f000 ffdd 	bl	8002b74 <SSD1306_Puts>
	SSD1306_GotoXY (65, 43);
 8001bba:	212b      	movs	r1, #43	; 0x2b
 8001bbc:	2041      	movs	r0, #65	; 0x41
 8001bbe:	f000 ff43 	bl	8002a48 <SSD1306_GotoXY>
	SSD1306_Puts(ventc, &Font_11x18, 1);
 8001bc2:	463b      	mov	r3, r7
 8001bc4:	2201      	movs	r2, #1
 8001bc6:	490d      	ldr	r1, [pc, #52]	; (8001bfc <drawmenu2+0x128>)
 8001bc8:	4618      	mov	r0, r3
 8001bca:	f000 ffd3 	bl	8002b74 <SSD1306_Puts>
	SSD1306_GotoXY (107,43);
 8001bce:	212b      	movs	r1, #43	; 0x2b
 8001bd0:	206b      	movs	r0, #107	; 0x6b
 8001bd2:	f000 ff39 	bl	8002a48 <SSD1306_GotoXY>
	SSD1306_Putc('%', &Font_11x18, 1);
 8001bd6:	2201      	movs	r2, #1
 8001bd8:	4908      	ldr	r1, [pc, #32]	; (8001bfc <drawmenu2+0x128>)
 8001bda:	2025      	movs	r0, #37	; 0x25
 8001bdc:	f000 ff4a 	bl	8002a74 <SSD1306_Putc>
	SSD1306_UpdateScreen(); // update screen
 8001be0:	f000 fe8e 	bl	8002900 <SSD1306_UpdateScreen>

}
 8001be4:	bf00      	nop
 8001be6:	3710      	adds	r7, #16
 8001be8:	46bd      	mov	sp, r7
 8001bea:	bd80      	pop	{r7, pc}
 8001bec:	200000ac 	.word	0x200000ac
 8001bf0:	200000c0 	.word	0x200000c0
 8001bf4:	200000a4 	.word	0x200000a4
 8001bf8:	200000a8 	.word	0x200000a8
 8001bfc:	20000000 	.word	0x20000000
 8001c00:	08006db0 	.word	0x08006db0
 8001c04:	08006db8 	.word	0x08006db8
 8001c08:	08006dc0 	.word	0x08006dc0

08001c0c <ventilator>:


// vstupn elektrick veliiny

void ventilator(float temp)  //nastaven rovn PWM ventiltoru
{
 8001c0c:	b580      	push	{r7, lr}
 8001c0e:	b082      	sub	sp, #8
 8001c10:	af00      	add	r7, sp, #0
 8001c12:	6078      	str	r0, [r7, #4]
	//hystereze
	if(temp > 30)
 8001c14:	4925      	ldr	r1, [pc, #148]	; (8001cac <ventilator+0xa0>)
 8001c16:	6878      	ldr	r0, [r7, #4]
 8001c18:	f7ff fa20 	bl	800105c <__aeabi_fcmpgt>
 8001c1c:	4603      	mov	r3, r0
 8001c1e:	2b00      	cmp	r3, #0
 8001c20:	d002      	beq.n	8001c28 <ventilator+0x1c>
	{
		ventilatorhyst = 1;
 8001c22:	4b23      	ldr	r3, [pc, #140]	; (8001cb0 <ventilator+0xa4>)
 8001c24:	2201      	movs	r2, #1
 8001c26:	701a      	strb	r2, [r3, #0]
	}
	if(temp < 28)
 8001c28:	4922      	ldr	r1, [pc, #136]	; (8001cb4 <ventilator+0xa8>)
 8001c2a:	6878      	ldr	r0, [r7, #4]
 8001c2c:	f7ff f9f8 	bl	8001020 <__aeabi_fcmplt>
 8001c30:	4603      	mov	r3, r0
 8001c32:	2b00      	cmp	r3, #0
 8001c34:	d002      	beq.n	8001c3c <ventilator+0x30>
	{
		ventilatorhyst = 0;
 8001c36:	4b1e      	ldr	r3, [pc, #120]	; (8001cb0 <ventilator+0xa4>)
 8001c38:	2200      	movs	r2, #0
 8001c3a:	701a      	strb	r2, [r3, #0]
	}
	//vpoet v %
	if(ventilatorhyst == 1)
 8001c3c:	4b1c      	ldr	r3, [pc, #112]	; (8001cb0 <ventilator+0xa4>)
 8001c3e:	781b      	ldrb	r3, [r3, #0]
 8001c40:	2b01      	cmp	r3, #1
 8001c42:	d11d      	bne.n	8001c80 <ventilator+0x74>
	{
		ventilatorper = ((temp - 25) * 2) + 50;
 8001c44:	491c      	ldr	r1, [pc, #112]	; (8001cb8 <ventilator+0xac>)
 8001c46:	6878      	ldr	r0, [r7, #4]
 8001c48:	f7fe ff42 	bl	8000ad0 <__aeabi_fsub>
 8001c4c:	4603      	mov	r3, r0
 8001c4e:	4619      	mov	r1, r3
 8001c50:	4618      	mov	r0, r3
 8001c52:	f7fe ff3f 	bl	8000ad4 <__addsf3>
 8001c56:	4603      	mov	r3, r0
 8001c58:	4918      	ldr	r1, [pc, #96]	; (8001cbc <ventilator+0xb0>)
 8001c5a:	4618      	mov	r0, r3
 8001c5c:	f7fe ff3a 	bl	8000ad4 <__addsf3>
 8001c60:	4603      	mov	r3, r0
 8001c62:	4618      	mov	r0, r3
 8001c64:	f7ff fa04 	bl	8001070 <__aeabi_f2uiz>
 8001c68:	4603      	mov	r3, r0
 8001c6a:	b29a      	uxth	r2, r3
 8001c6c:	4b14      	ldr	r3, [pc, #80]	; (8001cc0 <ventilator+0xb4>)
 8001c6e:	801a      	strh	r2, [r3, #0]
		if(ventilatorper > 100)
 8001c70:	4b13      	ldr	r3, [pc, #76]	; (8001cc0 <ventilator+0xb4>)
 8001c72:	881b      	ldrh	r3, [r3, #0]
 8001c74:	2b64      	cmp	r3, #100	; 0x64
 8001c76:	d906      	bls.n	8001c86 <ventilator+0x7a>
		{
			ventilatorper = 100;
 8001c78:	4b11      	ldr	r3, [pc, #68]	; (8001cc0 <ventilator+0xb4>)
 8001c7a:	2264      	movs	r2, #100	; 0x64
 8001c7c:	801a      	strh	r2, [r3, #0]
 8001c7e:	e002      	b.n	8001c86 <ventilator+0x7a>
		}
	}else
	{
		ventilatorper = 0;
 8001c80:	4b0f      	ldr	r3, [pc, #60]	; (8001cc0 <ventilator+0xb4>)
 8001c82:	2200      	movs	r2, #0
 8001c84:	801a      	strh	r2, [r3, #0]
	}
	//nastaven asovae v 8-bit
	TIM2->CCR1 = (ventilatorper*255)/100;
 8001c86:	4b0e      	ldr	r3, [pc, #56]	; (8001cc0 <ventilator+0xb4>)
 8001c88:	881b      	ldrh	r3, [r3, #0]
 8001c8a:	461a      	mov	r2, r3
 8001c8c:	4613      	mov	r3, r2
 8001c8e:	021b      	lsls	r3, r3, #8
 8001c90:	1a9b      	subs	r3, r3, r2
 8001c92:	4a0c      	ldr	r2, [pc, #48]	; (8001cc4 <ventilator+0xb8>)
 8001c94:	fb82 1203 	smull	r1, r2, r2, r3
 8001c98:	1152      	asrs	r2, r2, #5
 8001c9a:	17db      	asrs	r3, r3, #31
 8001c9c:	1ad2      	subs	r2, r2, r3
 8001c9e:	f04f 4380 	mov.w	r3, #1073741824	; 0x40000000
 8001ca2:	635a      	str	r2, [r3, #52]	; 0x34
}
 8001ca4:	bf00      	nop
 8001ca6:	3708      	adds	r7, #8
 8001ca8:	46bd      	mov	sp, r7
 8001caa:	bd80      	pop	{r7, pc}
 8001cac:	41f00000 	.word	0x41f00000
 8001cb0:	200000c2 	.word	0x200000c2
 8001cb4:	41e00000 	.word	0x41e00000
 8001cb8:	41c80000 	.word	0x41c80000
 8001cbc:	42480000 	.word	0x42480000
 8001cc0:	200000c0 	.word	0x200000c0
 8001cc4:	51eb851f 	.word	0x51eb851f

08001cc8 <setDAC1>:
void setDAC1 (uint16_t data) // zape vpravo zarovnan 12-bit data do DAC1 na I2C2
{
 8001cc8:	b580      	push	{r7, lr}
 8001cca:	b084      	sub	sp, #16
 8001ccc:	af02      	add	r7, sp, #8
 8001cce:	4603      	mov	r3, r0
 8001cd0:	80fb      	strh	r3, [r7, #6]
	dataDAC [1] = (data >> 4);
 8001cd2:	88fb      	ldrh	r3, [r7, #6]
 8001cd4:	091b      	lsrs	r3, r3, #4
 8001cd6:	b29b      	uxth	r3, r3
 8001cd8:	b2da      	uxtb	r2, r3
 8001cda:	4b09      	ldr	r3, [pc, #36]	; (8001d00 <setDAC1+0x38>)
 8001cdc:	705a      	strb	r2, [r3, #1]
	dataDAC [2] = (data << 4) & 0xf0;
 8001cde:	88fb      	ldrh	r3, [r7, #6]
 8001ce0:	011b      	lsls	r3, r3, #4
 8001ce2:	b2da      	uxtb	r2, r3
 8001ce4:	4b06      	ldr	r3, [pc, #24]	; (8001d00 <setDAC1+0x38>)
 8001ce6:	709a      	strb	r2, [r3, #2]
	HAL_I2C_Master_Transmit(&hi2c2, (0b1100001<<1), dataDAC, 3, 10);
 8001ce8:	230a      	movs	r3, #10
 8001cea:	9300      	str	r3, [sp, #0]
 8001cec:	2303      	movs	r3, #3
 8001cee:	4a04      	ldr	r2, [pc, #16]	; (8001d00 <setDAC1+0x38>)
 8001cf0:	21c2      	movs	r1, #194	; 0xc2
 8001cf2:	4804      	ldr	r0, [pc, #16]	; (8001d04 <setDAC1+0x3c>)
 8001cf4:	f002 fda4 	bl	8004840 <HAL_I2C_Master_Transmit>
}
 8001cf8:	bf00      	nop
 8001cfa:	3708      	adds	r7, #8
 8001cfc:	46bd      	mov	sp, r7
 8001cfe:	bd80      	pop	{r7, pc}
 8001d00:	2000000c 	.word	0x2000000c
 8001d04:	20000528 	.word	0x20000528

08001d08 <setVout>:
void setVout (float napeti)	 //zen spnanho napovho regultoru  + pprava pro ADC
{
 8001d08:	b580      	push	{r7, lr}
 8001d0a:	b082      	sub	sp, #8
 8001d0c:	af00      	add	r7, sp, #0
 8001d0e:	6078      	str	r0, [r7, #4]
	if(napeti < 2.5)
 8001d10:	4919      	ldr	r1, [pc, #100]	; (8001d78 <setVout+0x70>)
 8001d12:	6878      	ldr	r0, [r7, #4]
 8001d14:	f7ff f984 	bl	8001020 <__aeabi_fcmplt>
 8001d18:	4603      	mov	r3, r0
 8001d1a:	2b00      	cmp	r3, #0
 8001d1c:	d004      	beq.n	8001d28 <setVout+0x20>
	{
		HAL_GPIO_WritePin(GPIOB, GPIO_PIN_2, 1);
 8001d1e:	2201      	movs	r2, #1
 8001d20:	2104      	movs	r1, #4
 8001d22:	4816      	ldr	r0, [pc, #88]	; (8001d7c <setVout+0x74>)
 8001d24:	f002 fc17 	bl	8004556 <HAL_GPIO_WritePin>
	}
	setDAC1((napeti+(ADCtoVoltage(ADCout[2])*2)*4095)/5);
 8001d28:	4b15      	ldr	r3, [pc, #84]	; (8001d80 <setVout+0x78>)
 8001d2a:	689b      	ldr	r3, [r3, #8]
 8001d2c:	b29b      	uxth	r3, r3
 8001d2e:	4618      	mov	r0, r3
 8001d30:	f7ff fb26 	bl	8001380 <ADCtoVoltage>
 8001d34:	4603      	mov	r3, r0
 8001d36:	4619      	mov	r1, r3
 8001d38:	4618      	mov	r0, r3
 8001d3a:	f7fe fecb 	bl	8000ad4 <__addsf3>
 8001d3e:	4603      	mov	r3, r0
 8001d40:	4910      	ldr	r1, [pc, #64]	; (8001d84 <setVout+0x7c>)
 8001d42:	4618      	mov	r0, r3
 8001d44:	f7fe ffce 	bl	8000ce4 <__aeabi_fmul>
 8001d48:	4603      	mov	r3, r0
 8001d4a:	6879      	ldr	r1, [r7, #4]
 8001d4c:	4618      	mov	r0, r3
 8001d4e:	f7fe fec1 	bl	8000ad4 <__addsf3>
 8001d52:	4603      	mov	r3, r0
 8001d54:	490c      	ldr	r1, [pc, #48]	; (8001d88 <setVout+0x80>)
 8001d56:	4618      	mov	r0, r3
 8001d58:	f7ff f878 	bl	8000e4c <__aeabi_fdiv>
 8001d5c:	4603      	mov	r3, r0
 8001d5e:	4618      	mov	r0, r3
 8001d60:	f7ff f986 	bl	8001070 <__aeabi_f2uiz>
 8001d64:	4603      	mov	r3, r0
 8001d66:	b29b      	uxth	r3, r3
 8001d68:	4618      	mov	r0, r3
 8001d6a:	f7ff ffad 	bl	8001cc8 <setDAC1>
}
 8001d6e:	bf00      	nop
 8001d70:	3708      	adds	r7, #8
 8001d72:	46bd      	mov	sp, r7
 8001d74:	bd80      	pop	{r7, pc}
 8001d76:	bf00      	nop
 8001d78:	40200000 	.word	0x40200000
 8001d7c:	40010c00 	.word	0x40010c00
 8001d80:	200005b4 	.word	0x200005b4
 8001d84:	457ff000 	.word	0x457ff000
 8001d88:	40a00000 	.word	0x40a00000
 8001d8c:	00000000 	.word	0x00000000

08001d90 <HAL_GPIO_EXTI_Callback>:


//eventy peruen

void HAL_GPIO_EXTI_Callback(uint16_t GPIO_Pin)  //peruen krok encoderu
{
 8001d90:	b5b0      	push	{r4, r5, r7, lr}
 8001d92:	b084      	sub	sp, #16
 8001d94:	af00      	add	r7, sp, #0
 8001d96:	4603      	mov	r3, r0
 8001d98:	80fb      	strh	r3, [r7, #6]
	uint8_t direct = HAL_GPIO_ReadPin(GPIOB, GPIO_PIN_1);
 8001d9a:	2102      	movs	r1, #2
 8001d9c:	48a8      	ldr	r0, [pc, #672]	; (8002040 <HAL_GPIO_EXTI_Callback+0x2b0>)
 8001d9e:	f002 fbc3 	bl	8004528 <HAL_GPIO_ReadPin>
 8001da2:	4603      	mov	r3, r0
 8001da4:	73bb      	strb	r3, [r7, #14]
	if(GPIO_Pin == GPIO_PIN_0)
 8001da6:	88fb      	ldrh	r3, [r7, #6]
 8001da8:	2b01      	cmp	r3, #1
 8001daa:	f040 813d 	bne.w	8002028 <HAL_GPIO_EXTI_Callback+0x298>
	{
		if(debounce[4] == 0)
 8001dae:	4ba5      	ldr	r3, [pc, #660]	; (8002044 <HAL_GPIO_EXTI_Callback+0x2b4>)
 8001db0:	791b      	ldrb	r3, [r3, #4]
 8001db2:	2b00      	cmp	r3, #0
 8001db4:	f040 8138 	bne.w	8002028 <HAL_GPIO_EXTI_Callback+0x298>
		{
		int8_t i = 1;
 8001db8:	2301      	movs	r3, #1
 8001dba:	73fb      	strb	r3, [r7, #15]
		setmodeflag = 500;
 8001dbc:	4ba2      	ldr	r3, [pc, #648]	; (8002048 <HAL_GPIO_EXTI_Callback+0x2b8>)
 8001dbe:	f44f 72fa 	mov.w	r2, #500	; 0x1f4
 8001dc2:	801a      	strh	r2, [r3, #0]
		if(direct == 0)
 8001dc4:	7bbb      	ldrb	r3, [r7, #14]
 8001dc6:	2b00      	cmp	r3, #0
 8001dc8:	d101      	bne.n	8001dce <HAL_GPIO_EXTI_Callback+0x3e>
		{
			i = -1;
 8001dca:	23ff      	movs	r3, #255	; 0xff
 8001dcc:	73fb      	strb	r3, [r7, #15]
		}
		switch (cursor) {
 8001dce:	4b9f      	ldr	r3, [pc, #636]	; (800204c <HAL_GPIO_EXTI_Callback+0x2bc>)
 8001dd0:	781b      	ldrb	r3, [r3, #0]
 8001dd2:	2b80      	cmp	r3, #128	; 0x80
 8001dd4:	f000 810f 	beq.w	8001ff6 <HAL_GPIO_EXTI_Callback+0x266>
 8001dd8:	2b80      	cmp	r3, #128	; 0x80
 8001dda:	f300 8121 	bgt.w	8002020 <HAL_GPIO_EXTI_Callback+0x290>
 8001dde:	2b20      	cmp	r3, #32
 8001de0:	dc4a      	bgt.n	8001e78 <HAL_GPIO_EXTI_Callback+0xe8>
 8001de2:	2b00      	cmp	r3, #0
 8001de4:	f340 811c 	ble.w	8002020 <HAL_GPIO_EXTI_Callback+0x290>
 8001de8:	3b01      	subs	r3, #1
 8001dea:	2b1f      	cmp	r3, #31
 8001dec:	f200 8118 	bhi.w	8002020 <HAL_GPIO_EXTI_Callback+0x290>
 8001df0:	a201      	add	r2, pc, #4	; (adr r2, 8001df8 <HAL_GPIO_EXTI_Callback+0x68>)
 8001df2:	f852 f023 	ldr.w	pc, [r2, r3, lsl #2]
 8001df6:	bf00      	nop
 8001df8:	08001e81 	.word	0x08001e81
 8001dfc:	08001ec3 	.word	0x08001ec3
 8001e00:	08002021 	.word	0x08002021
 8001e04:	08001f05 	.word	0x08001f05
 8001e08:	08002021 	.word	0x08002021
 8001e0c:	08002021 	.word	0x08002021
 8001e10:	08002021 	.word	0x08002021
 8001e14:	08001f27 	.word	0x08001f27
 8001e18:	08002021 	.word	0x08002021
 8001e1c:	08002021 	.word	0x08002021
 8001e20:	08002021 	.word	0x08002021
 8001e24:	08002021 	.word	0x08002021
 8001e28:	08002021 	.word	0x08002021
 8001e2c:	08002021 	.word	0x08002021
 8001e30:	08002021 	.word	0x08002021
 8001e34:	08001f51 	.word	0x08001f51
 8001e38:	08002021 	.word	0x08002021
 8001e3c:	08002021 	.word	0x08002021
 8001e40:	08002021 	.word	0x08002021
 8001e44:	08002021 	.word	0x08002021
 8001e48:	08002021 	.word	0x08002021
 8001e4c:	08002021 	.word	0x08002021
 8001e50:	08002021 	.word	0x08002021
 8001e54:	08002021 	.word	0x08002021
 8001e58:	08002021 	.word	0x08002021
 8001e5c:	08002021 	.word	0x08002021
 8001e60:	08002021 	.word	0x08002021
 8001e64:	08002021 	.word	0x08002021
 8001e68:	08002021 	.word	0x08002021
 8001e6c:	08002021 	.word	0x08002021
 8001e70:	08002021 	.word	0x08002021
 8001e74:	08001f93 	.word	0x08001f93
 8001e78:	2b40      	cmp	r3, #64	; 0x40
 8001e7a:	f000 80ab 	beq.w	8001fd4 <HAL_GPIO_EXTI_Callback+0x244>
				break;
			case 0x80:
				setvoltage = setcurrent + (10*i);
				break;
			default:
				break;
 8001e7e:	e0cf      	b.n	8002020 <HAL_GPIO_EXTI_Callback+0x290>
				setcurrent = setvoltage + (0.01 * i);
 8001e80:	4b73      	ldr	r3, [pc, #460]	; (8002050 <HAL_GPIO_EXTI_Callback+0x2c0>)
 8001e82:	681b      	ldr	r3, [r3, #0]
 8001e84:	4618      	mov	r0, r3
 8001e86:	f7fe fac7 	bl	8000418 <__aeabi_f2d>
 8001e8a:	4604      	mov	r4, r0
 8001e8c:	460d      	mov	r5, r1
 8001e8e:	f997 300f 	ldrsb.w	r3, [r7, #15]
 8001e92:	4618      	mov	r0, r3
 8001e94:	f7fe faae 	bl	80003f4 <__aeabi_i2d>
 8001e98:	a365      	add	r3, pc, #404	; (adr r3, 8002030 <HAL_GPIO_EXTI_Callback+0x2a0>)
 8001e9a:	e9d3 2300 	ldrd	r2, r3, [r3]
 8001e9e:	f7fe fb13 	bl	80004c8 <__aeabi_dmul>
 8001ea2:	4602      	mov	r2, r0
 8001ea4:	460b      	mov	r3, r1
 8001ea6:	4620      	mov	r0, r4
 8001ea8:	4629      	mov	r1, r5
 8001eaa:	f7fe f957 	bl	800015c <__adddf3>
 8001eae:	4602      	mov	r2, r0
 8001eb0:	460b      	mov	r3, r1
 8001eb2:	4610      	mov	r0, r2
 8001eb4:	4619      	mov	r1, r3
 8001eb6:	f7fe fdb7 	bl	8000a28 <__aeabi_d2f>
 8001eba:	4603      	mov	r3, r0
 8001ebc:	4a65      	ldr	r2, [pc, #404]	; (8002054 <HAL_GPIO_EXTI_Callback+0x2c4>)
 8001ebe:	6013      	str	r3, [r2, #0]
				break;
 8001ec0:	e0af      	b.n	8002022 <HAL_GPIO_EXTI_Callback+0x292>
				setcurrent = setvoltage + (0.1 * i);
 8001ec2:	4b63      	ldr	r3, [pc, #396]	; (8002050 <HAL_GPIO_EXTI_Callback+0x2c0>)
 8001ec4:	681b      	ldr	r3, [r3, #0]
 8001ec6:	4618      	mov	r0, r3
 8001ec8:	f7fe faa6 	bl	8000418 <__aeabi_f2d>
 8001ecc:	4604      	mov	r4, r0
 8001ece:	460d      	mov	r5, r1
 8001ed0:	f997 300f 	ldrsb.w	r3, [r7, #15]
 8001ed4:	4618      	mov	r0, r3
 8001ed6:	f7fe fa8d 	bl	80003f4 <__aeabi_i2d>
 8001eda:	a357      	add	r3, pc, #348	; (adr r3, 8002038 <HAL_GPIO_EXTI_Callback+0x2a8>)
 8001edc:	e9d3 2300 	ldrd	r2, r3, [r3]
 8001ee0:	f7fe faf2 	bl	80004c8 <__aeabi_dmul>
 8001ee4:	4602      	mov	r2, r0
 8001ee6:	460b      	mov	r3, r1
 8001ee8:	4620      	mov	r0, r4
 8001eea:	4629      	mov	r1, r5
 8001eec:	f7fe f936 	bl	800015c <__adddf3>
 8001ef0:	4602      	mov	r2, r0
 8001ef2:	460b      	mov	r3, r1
 8001ef4:	4610      	mov	r0, r2
 8001ef6:	4619      	mov	r1, r3
 8001ef8:	f7fe fd96 	bl	8000a28 <__aeabi_d2f>
 8001efc:	4603      	mov	r3, r0
 8001efe:	4a55      	ldr	r2, [pc, #340]	; (8002054 <HAL_GPIO_EXTI_Callback+0x2c4>)
 8001f00:	6013      	str	r3, [r2, #0]
				break;
 8001f02:	e08e      	b.n	8002022 <HAL_GPIO_EXTI_Callback+0x292>
				setcurrent = setvoltage + i;
 8001f04:	f997 300f 	ldrsb.w	r3, [r7, #15]
 8001f08:	4618      	mov	r0, r3
 8001f0a:	f7fe fe97 	bl	8000c3c <__aeabi_i2f>
 8001f0e:	4602      	mov	r2, r0
 8001f10:	4b4f      	ldr	r3, [pc, #316]	; (8002050 <HAL_GPIO_EXTI_Callback+0x2c0>)
 8001f12:	681b      	ldr	r3, [r3, #0]
 8001f14:	4619      	mov	r1, r3
 8001f16:	4610      	mov	r0, r2
 8001f18:	f7fe fddc 	bl	8000ad4 <__addsf3>
 8001f1c:	4603      	mov	r3, r0
 8001f1e:	461a      	mov	r2, r3
 8001f20:	4b4c      	ldr	r3, [pc, #304]	; (8002054 <HAL_GPIO_EXTI_Callback+0x2c4>)
 8001f22:	601a      	str	r2, [r3, #0]
				break;
 8001f24:	e07d      	b.n	8002022 <HAL_GPIO_EXTI_Callback+0x292>
				setcurrent = setvoltage + (10*i);
 8001f26:	f997 200f 	ldrsb.w	r2, [r7, #15]
 8001f2a:	4613      	mov	r3, r2
 8001f2c:	009b      	lsls	r3, r3, #2
 8001f2e:	4413      	add	r3, r2
 8001f30:	005b      	lsls	r3, r3, #1
 8001f32:	4618      	mov	r0, r3
 8001f34:	f7fe fe82 	bl	8000c3c <__aeabi_i2f>
 8001f38:	4602      	mov	r2, r0
 8001f3a:	4b45      	ldr	r3, [pc, #276]	; (8002050 <HAL_GPIO_EXTI_Callback+0x2c0>)
 8001f3c:	681b      	ldr	r3, [r3, #0]
 8001f3e:	4619      	mov	r1, r3
 8001f40:	4610      	mov	r0, r2
 8001f42:	f7fe fdc7 	bl	8000ad4 <__addsf3>
 8001f46:	4603      	mov	r3, r0
 8001f48:	461a      	mov	r2, r3
 8001f4a:	4b42      	ldr	r3, [pc, #264]	; (8002054 <HAL_GPIO_EXTI_Callback+0x2c4>)
 8001f4c:	601a      	str	r2, [r3, #0]
				break;
 8001f4e:	e068      	b.n	8002022 <HAL_GPIO_EXTI_Callback+0x292>
				setvoltage = setcurrent + (0.01 * i);
 8001f50:	4b40      	ldr	r3, [pc, #256]	; (8002054 <HAL_GPIO_EXTI_Callback+0x2c4>)
 8001f52:	681b      	ldr	r3, [r3, #0]
 8001f54:	4618      	mov	r0, r3
 8001f56:	f7fe fa5f 	bl	8000418 <__aeabi_f2d>
 8001f5a:	4604      	mov	r4, r0
 8001f5c:	460d      	mov	r5, r1
 8001f5e:	f997 300f 	ldrsb.w	r3, [r7, #15]
 8001f62:	4618      	mov	r0, r3
 8001f64:	f7fe fa46 	bl	80003f4 <__aeabi_i2d>
 8001f68:	a331      	add	r3, pc, #196	; (adr r3, 8002030 <HAL_GPIO_EXTI_Callback+0x2a0>)
 8001f6a:	e9d3 2300 	ldrd	r2, r3, [r3]
 8001f6e:	f7fe faab 	bl	80004c8 <__aeabi_dmul>
 8001f72:	4602      	mov	r2, r0
 8001f74:	460b      	mov	r3, r1
 8001f76:	4620      	mov	r0, r4
 8001f78:	4629      	mov	r1, r5
 8001f7a:	f7fe f8ef 	bl	800015c <__adddf3>
 8001f7e:	4602      	mov	r2, r0
 8001f80:	460b      	mov	r3, r1
 8001f82:	4610      	mov	r0, r2
 8001f84:	4619      	mov	r1, r3
 8001f86:	f7fe fd4f 	bl	8000a28 <__aeabi_d2f>
 8001f8a:	4603      	mov	r3, r0
 8001f8c:	4a30      	ldr	r2, [pc, #192]	; (8002050 <HAL_GPIO_EXTI_Callback+0x2c0>)
 8001f8e:	6013      	str	r3, [r2, #0]
				break;
 8001f90:	e047      	b.n	8002022 <HAL_GPIO_EXTI_Callback+0x292>
				setvoltage = setcurrent + (0.1 * i);
 8001f92:	4b30      	ldr	r3, [pc, #192]	; (8002054 <HAL_GPIO_EXTI_Callback+0x2c4>)
 8001f94:	681b      	ldr	r3, [r3, #0]
 8001f96:	4618      	mov	r0, r3
 8001f98:	f7fe fa3e 	bl	8000418 <__aeabi_f2d>
 8001f9c:	4604      	mov	r4, r0
 8001f9e:	460d      	mov	r5, r1
 8001fa0:	f997 300f 	ldrsb.w	r3, [r7, #15]
 8001fa4:	4618      	mov	r0, r3
 8001fa6:	f7fe fa25 	bl	80003f4 <__aeabi_i2d>
 8001faa:	a323      	add	r3, pc, #140	; (adr r3, 8002038 <HAL_GPIO_EXTI_Callback+0x2a8>)
 8001fac:	e9d3 2300 	ldrd	r2, r3, [r3]
 8001fb0:	f7fe fa8a 	bl	80004c8 <__aeabi_dmul>
 8001fb4:	4602      	mov	r2, r0
 8001fb6:	460b      	mov	r3, r1
 8001fb8:	4620      	mov	r0, r4
 8001fba:	4629      	mov	r1, r5
 8001fbc:	f7fe f8ce 	bl	800015c <__adddf3>
 8001fc0:	4602      	mov	r2, r0
 8001fc2:	460b      	mov	r3, r1
 8001fc4:	4610      	mov	r0, r2
 8001fc6:	4619      	mov	r1, r3
 8001fc8:	f7fe fd2e 	bl	8000a28 <__aeabi_d2f>
 8001fcc:	4603      	mov	r3, r0
 8001fce:	4a20      	ldr	r2, [pc, #128]	; (8002050 <HAL_GPIO_EXTI_Callback+0x2c0>)
 8001fd0:	6013      	str	r3, [r2, #0]
				break;
 8001fd2:	e026      	b.n	8002022 <HAL_GPIO_EXTI_Callback+0x292>
				setvoltage = setcurrent + i;
 8001fd4:	f997 300f 	ldrsb.w	r3, [r7, #15]
 8001fd8:	4618      	mov	r0, r3
 8001fda:	f7fe fe2f 	bl	8000c3c <__aeabi_i2f>
 8001fde:	4602      	mov	r2, r0
 8001fe0:	4b1c      	ldr	r3, [pc, #112]	; (8002054 <HAL_GPIO_EXTI_Callback+0x2c4>)
 8001fe2:	681b      	ldr	r3, [r3, #0]
 8001fe4:	4619      	mov	r1, r3
 8001fe6:	4610      	mov	r0, r2
 8001fe8:	f7fe fd74 	bl	8000ad4 <__addsf3>
 8001fec:	4603      	mov	r3, r0
 8001fee:	461a      	mov	r2, r3
 8001ff0:	4b17      	ldr	r3, [pc, #92]	; (8002050 <HAL_GPIO_EXTI_Callback+0x2c0>)
 8001ff2:	601a      	str	r2, [r3, #0]
				break;
 8001ff4:	e015      	b.n	8002022 <HAL_GPIO_EXTI_Callback+0x292>
				setvoltage = setcurrent + (10*i);
 8001ff6:	f997 200f 	ldrsb.w	r2, [r7, #15]
 8001ffa:	4613      	mov	r3, r2
 8001ffc:	009b      	lsls	r3, r3, #2
 8001ffe:	4413      	add	r3, r2
 8002000:	005b      	lsls	r3, r3, #1
 8002002:	4618      	mov	r0, r3
 8002004:	f7fe fe1a 	bl	8000c3c <__aeabi_i2f>
 8002008:	4602      	mov	r2, r0
 800200a:	4b12      	ldr	r3, [pc, #72]	; (8002054 <HAL_GPIO_EXTI_Callback+0x2c4>)
 800200c:	681b      	ldr	r3, [r3, #0]
 800200e:	4619      	mov	r1, r3
 8002010:	4610      	mov	r0, r2
 8002012:	f7fe fd5f 	bl	8000ad4 <__addsf3>
 8002016:	4603      	mov	r3, r0
 8002018:	461a      	mov	r2, r3
 800201a:	4b0d      	ldr	r3, [pc, #52]	; (8002050 <HAL_GPIO_EXTI_Callback+0x2c0>)
 800201c:	601a      	str	r2, [r3, #0]
				break;
 800201e:	e000      	b.n	8002022 <HAL_GPIO_EXTI_Callback+0x292>
				break;
 8002020:	bf00      	nop
		}
		debounce[4] = 20;
 8002022:	4b08      	ldr	r3, [pc, #32]	; (8002044 <HAL_GPIO_EXTI_Callback+0x2b4>)
 8002024:	2214      	movs	r2, #20
 8002026:	711a      	strb	r2, [r3, #4]
		}
	}
}
 8002028:	bf00      	nop
 800202a:	3710      	adds	r7, #16
 800202c:	46bd      	mov	sp, r7
 800202e:	bdb0      	pop	{r4, r5, r7, pc}
 8002030:	47ae147b 	.word	0x47ae147b
 8002034:	3f847ae1 	.word	0x3f847ae1
 8002038:	9999999a 	.word	0x9999999a
 800203c:	3fb99999 	.word	0x3fb99999
 8002040:	40010c00 	.word	0x40010c00
 8002044:	2000057c 	.word	0x2000057c
 8002048:	200000b0 	.word	0x200000b0
 800204c:	200000b2 	.word	0x200000b2
 8002050:	200000b4 	.word	0x200000b4
 8002054:	200000b8 	.word	0x200000b8

08002058 <main>:
/**
  * @brief  The application entry point.
  * @retval int
  */
int main(void)
{
 8002058:	b5b0      	push	{r4, r5, r7, lr}
 800205a:	b084      	sub	sp, #16
 800205c:	af00      	add	r7, sp, #0
  /* USER CODE END 1 */

  /* MCU Configuration--------------------------------------------------------*/

  /* Reset of all peripherals, Initializes the Flash interface and the Systick. */
  HAL_Init();
 800205e:	f001 f91b 	bl	8003298 <HAL_Init>
  /* USER CODE BEGIN Init */

  /* USER CODE END Init */

  /* Configure the system clock */
  SystemClock_Config();
 8002062:	f000 f95b 	bl	800231c <SystemClock_Config>
  /* USER CODE BEGIN SysInit */

  /* USER CODE END SysInit */

  /* Initialize all configured peripherals */
  MX_GPIO_Init();
 8002066:	f000 faf1 	bl	800264c <MX_GPIO_Init>
  MX_I2C1_Init();
 800206a:	f000 fa1d 	bl	80024a8 <MX_I2C1_Init>
  MX_I2C2_Init();
 800206e:	f000 fa49 	bl	8002504 <MX_I2C2_Init>
  MX_DMA_Init();
 8002072:	f000 facd 	bl	8002610 <MX_DMA_Init>
  MX_ADC1_Init();
 8002076:	f000 f9ad 	bl	80023d4 <MX_ADC1_Init>
  MX_TIM2_Init();
 800207a:	f000 fa71 	bl	8002560 <MX_TIM2_Init>
  /* USER CODE BEGIN 2 */
  SSD1306_Init();
 800207e:	f000 fb7b 	bl	8002778 <SSD1306_Init>
  HAL_ADC_Start_DMA(&hadc1, ADCout, 4);
 8002082:	2204      	movs	r2, #4
 8002084:	4998      	ldr	r1, [pc, #608]	; (80022e8 <main+0x290>)
 8002086:	4899      	ldr	r0, [pc, #612]	; (80022ec <main+0x294>)
 8002088:	f001 fa64 	bl	8003554 <HAL_ADC_Start_DMA>
  HAL_TIM_PWM_Start(&htim2, TIM_CHANNEL_1);
 800208c:	2100      	movs	r1, #0
 800208e:	4898      	ldr	r0, [pc, #608]	; (80022f0 <main+0x298>)
 8002090:	f004 f834 	bl	80060fc <HAL_TIM_PWM_Start>
  drawmenu1(pointer_p1, 0,0, 0);
 8002094:	4b97      	ldr	r3, [pc, #604]	; (80022f4 <main+0x29c>)
 8002096:	7818      	ldrb	r0, [r3, #0]
 8002098:	f04f 0300 	mov.w	r3, #0
 800209c:	f04f 0200 	mov.w	r2, #0
 80020a0:	2100      	movs	r1, #0
 80020a2:	f7ff faf9 	bl	8001698 <drawmenu1>

  /* Infinite loop */
  /* USER CODE BEGIN WHILE */
  while (1)
  {
	  float rozdilchI = 0;
 80020a6:	f04f 0300 	mov.w	r3, #0
 80020aa:	60bb      	str	r3, [r7, #8]
	  float rozdilchU = 0;
 80020ac:	f04f 0300 	mov.w	r3, #0
 80020b0:	607b      	str	r3, [r7, #4]
	  uint8_t refreshflag = 0;
 80020b2:	2300      	movs	r3, #0
 80020b4:	73fb      	strb	r3, [r7, #15]


	  readbuttons();
 80020b6:	f7fe fffb 	bl	80010b0 <readbuttons>
	  if(setmodeflag>0) //display vstoup do interaktivnho mdu
 80020ba:	4b8f      	ldr	r3, [pc, #572]	; (80022f8 <main+0x2a0>)
 80020bc:	881b      	ldrh	r3, [r3, #0]
 80020be:	2b00      	cmp	r3, #0
 80020c0:	d049      	beq.n	8002156 <main+0xfe>
	  {
		  if(setmodeflag == 500)
 80020c2:	4b8d      	ldr	r3, [pc, #564]	; (80022f8 <main+0x2a0>)
 80020c4:	881b      	ldrh	r3, [r3, #0]
 80020c6:	f5b3 7ffa 	cmp.w	r3, #500	; 0x1f4
 80020ca:	d114      	bne.n	80020f6 <main+0x9e>
		  {
			  switch (menupage) {
 80020cc:	4b8b      	ldr	r3, [pc, #556]	; (80022fc <main+0x2a4>)
 80020ce:	781b      	ldrb	r3, [r3, #0]
 80020d0:	2b01      	cmp	r3, #1
 80020d2:	d106      	bne.n	80020e2 <main+0x8a>
				case 1:
					drawmenu2();
 80020d4:	f7ff fcfe 	bl	8001ad4 <drawmenu2>
					setmodeflag = 750;
 80020d8:	4b87      	ldr	r3, [pc, #540]	; (80022f8 <main+0x2a0>)
 80020da:	f240 22ee 	movw	r2, #750	; 0x2ee
 80020de:	801a      	strh	r2, [r3, #0]
					break;
 80020e0:	e00a      	b.n	80020f8 <main+0xa0>
				default:
					drawmenu1(cursor, 0, setvoltage , setcurrent);
 80020e2:	4b87      	ldr	r3, [pc, #540]	; (8002300 <main+0x2a8>)
 80020e4:	7818      	ldrb	r0, [r3, #0]
 80020e6:	4b87      	ldr	r3, [pc, #540]	; (8002304 <main+0x2ac>)
 80020e8:	681a      	ldr	r2, [r3, #0]
 80020ea:	4b87      	ldr	r3, [pc, #540]	; (8002308 <main+0x2b0>)
 80020ec:	681b      	ldr	r3, [r3, #0]
 80020ee:	2100      	movs	r1, #0
 80020f0:	f7ff fad2 	bl	8001698 <drawmenu1>
					break;
 80020f4:	e000      	b.n	80020f8 <main+0xa0>
			}
		  }
 80020f6:	bf00      	nop

		  if(setmodeflag > 0)
 80020f8:	4b7f      	ldr	r3, [pc, #508]	; (80022f8 <main+0x2a0>)
 80020fa:	881b      	ldrh	r3, [r3, #0]
 80020fc:	2b00      	cmp	r3, #0
 80020fe:	d005      	beq.n	800210c <main+0xb4>
		  {
			  setmodeflag--;
 8002100:	4b7d      	ldr	r3, [pc, #500]	; (80022f8 <main+0x2a0>)
 8002102:	881b      	ldrh	r3, [r3, #0]
 8002104:	3b01      	subs	r3, #1
 8002106:	b29a      	uxth	r2, r3
 8002108:	4b7b      	ldr	r3, [pc, #492]	; (80022f8 <main+0x2a0>)
 800210a:	801a      	strh	r2, [r3, #0]
		  }
		  for(uint8_t i = 0; i<5; i++)
 800210c:	2300      	movs	r3, #0
 800210e:	73bb      	strb	r3, [r7, #14]
 8002110:	e00e      	b.n	8002130 <main+0xd8>
		  {
			  if(debounce[i] > 0)
 8002112:	7bbb      	ldrb	r3, [r7, #14]
 8002114:	4a7d      	ldr	r2, [pc, #500]	; (800230c <main+0x2b4>)
 8002116:	5cd3      	ldrb	r3, [r2, r3]
 8002118:	2b00      	cmp	r3, #0
 800211a:	d006      	beq.n	800212a <main+0xd2>
			  {
				  debounce[i]--;
 800211c:	7bbb      	ldrb	r3, [r7, #14]
 800211e:	4a7b      	ldr	r2, [pc, #492]	; (800230c <main+0x2b4>)
 8002120:	5cd2      	ldrb	r2, [r2, r3]
 8002122:	3a01      	subs	r2, #1
 8002124:	b2d1      	uxtb	r1, r2
 8002126:	4a79      	ldr	r2, [pc, #484]	; (800230c <main+0x2b4>)
 8002128:	54d1      	strb	r1, [r2, r3]
		  for(uint8_t i = 0; i<5; i++)
 800212a:	7bbb      	ldrb	r3, [r7, #14]
 800212c:	3301      	adds	r3, #1
 800212e:	73bb      	strb	r3, [r7, #14]
 8002130:	7bbb      	ldrb	r3, [r7, #14]
 8002132:	2b04      	cmp	r3, #4
 8002134:	d9ed      	bls.n	8002112 <main+0xba>
			  }
		  }
		  if(setmodeflag == 0)
 8002136:	4b70      	ldr	r3, [pc, #448]	; (80022f8 <main+0x2a0>)
 8002138:	881b      	ldrh	r3, [r3, #0]
 800213a:	2b00      	cmp	r3, #0
 800213c:	d107      	bne.n	800214e <main+0xf6>
		  {
			 menupage = 0;
 800213e:	4b6f      	ldr	r3, [pc, #444]	; (80022fc <main+0x2a4>)
 8002140:	2200      	movs	r2, #0
 8002142:	701a      	strb	r2, [r3, #0]
			 setVout(setvoltage);
 8002144:	4b6f      	ldr	r3, [pc, #444]	; (8002304 <main+0x2ac>)
 8002146:	681b      	ldr	r3, [r3, #0]
 8002148:	4618      	mov	r0, r3
 800214a:	f7ff fddd 	bl	8001d08 <setVout>
		  }
		  HAL_Delay(1);
 800214e:	2001      	movs	r0, #1
 8002150:	f001 f904 	bl	800335c <HAL_Delay>
 8002154:	e0ad      	b.n	80022b2 <main+0x25a>
	  }
	  else
	  {
		  // nen v setmode
		  rozdilchI = Im - (ADCtoVoltage(ADCout[0])*2);  // Aktualn - nov hodnota
 8002156:	4b6e      	ldr	r3, [pc, #440]	; (8002310 <main+0x2b8>)
 8002158:	681c      	ldr	r4, [r3, #0]
 800215a:	4b63      	ldr	r3, [pc, #396]	; (80022e8 <main+0x290>)
 800215c:	681b      	ldr	r3, [r3, #0]
 800215e:	b29b      	uxth	r3, r3
 8002160:	4618      	mov	r0, r3
 8002162:	f7ff f90d 	bl	8001380 <ADCtoVoltage>
 8002166:	4603      	mov	r3, r0
 8002168:	4619      	mov	r1, r3
 800216a:	4618      	mov	r0, r3
 800216c:	f7fe fcb2 	bl	8000ad4 <__addsf3>
 8002170:	4603      	mov	r3, r0
 8002172:	4619      	mov	r1, r3
 8002174:	4620      	mov	r0, r4
 8002176:	f7fe fcab 	bl	8000ad0 <__aeabi_fsub>
 800217a:	4603      	mov	r3, r0
 800217c:	60bb      	str	r3, [r7, #8]
		  if((rozdilchI > 0.01)||(rozdilchI < -0.01))
 800217e:	68b8      	ldr	r0, [r7, #8]
 8002180:	f7fe f94a 	bl	8000418 <__aeabi_f2d>
 8002184:	a354      	add	r3, pc, #336	; (adr r3, 80022d8 <main+0x280>)
 8002186:	e9d3 2300 	ldrd	r2, r3, [r3]
 800218a:	f7fe fc2d 	bl	80009e8 <__aeabi_dcmpgt>
 800218e:	4603      	mov	r3, r0
 8002190:	2b00      	cmp	r3, #0
 8002192:	d10a      	bne.n	80021aa <main+0x152>
 8002194:	68b8      	ldr	r0, [r7, #8]
 8002196:	f7fe f93f 	bl	8000418 <__aeabi_f2d>
 800219a:	a351      	add	r3, pc, #324	; (adr r3, 80022e0 <main+0x288>)
 800219c:	e9d3 2300 	ldrd	r2, r3, [r3]
 80021a0:	f7fe fc04 	bl	80009ac <__aeabi_dcmplt>
 80021a4:	4603      	mov	r3, r0
 80021a6:	2b00      	cmp	r3, #0
 80021a8:	d012      	beq.n	80021d0 <main+0x178>
		  {
			  Im = (ADCtoVoltage(ADCout[0])*2);
 80021aa:	4b4f      	ldr	r3, [pc, #316]	; (80022e8 <main+0x290>)
 80021ac:	681b      	ldr	r3, [r3, #0]
 80021ae:	b29b      	uxth	r3, r3
 80021b0:	4618      	mov	r0, r3
 80021b2:	f7ff f8e5 	bl	8001380 <ADCtoVoltage>
 80021b6:	4603      	mov	r3, r0
 80021b8:	4619      	mov	r1, r3
 80021ba:	4618      	mov	r0, r3
 80021bc:	f7fe fc8a 	bl	8000ad4 <__addsf3>
 80021c0:	4603      	mov	r3, r0
 80021c2:	461a      	mov	r2, r3
 80021c4:	4b52      	ldr	r3, [pc, #328]	; (8002310 <main+0x2b8>)
 80021c6:	601a      	str	r2, [r3, #0]
			  refreshflag |= 0x01;
 80021c8:	7bfb      	ldrb	r3, [r7, #15]
 80021ca:	f043 0301 	orr.w	r3, r3, #1
 80021ce:	73fb      	strb	r3, [r7, #15]
		  }
		  rozdilchU = Um - ((ADCtoVoltage(ADCout[1])*2)-(ADCtoVoltage(ADCout[2])*2)); // Aktualn - nov hodnota
 80021d0:	4b50      	ldr	r3, [pc, #320]	; (8002314 <main+0x2bc>)
 80021d2:	681c      	ldr	r4, [r3, #0]
 80021d4:	4b44      	ldr	r3, [pc, #272]	; (80022e8 <main+0x290>)
 80021d6:	685b      	ldr	r3, [r3, #4]
 80021d8:	b29b      	uxth	r3, r3
 80021da:	4618      	mov	r0, r3
 80021dc:	f7ff f8d0 	bl	8001380 <ADCtoVoltage>
 80021e0:	4603      	mov	r3, r0
 80021e2:	4619      	mov	r1, r3
 80021e4:	4618      	mov	r0, r3
 80021e6:	f7fe fc75 	bl	8000ad4 <__addsf3>
 80021ea:	4603      	mov	r3, r0
 80021ec:	461d      	mov	r5, r3
 80021ee:	4b3e      	ldr	r3, [pc, #248]	; (80022e8 <main+0x290>)
 80021f0:	689b      	ldr	r3, [r3, #8]
 80021f2:	b29b      	uxth	r3, r3
 80021f4:	4618      	mov	r0, r3
 80021f6:	f7ff f8c3 	bl	8001380 <ADCtoVoltage>
 80021fa:	4603      	mov	r3, r0
 80021fc:	4619      	mov	r1, r3
 80021fe:	4618      	mov	r0, r3
 8002200:	f7fe fc68 	bl	8000ad4 <__addsf3>
 8002204:	4603      	mov	r3, r0
 8002206:	4619      	mov	r1, r3
 8002208:	4628      	mov	r0, r5
 800220a:	f7fe fc61 	bl	8000ad0 <__aeabi_fsub>
 800220e:	4603      	mov	r3, r0
 8002210:	4619      	mov	r1, r3
 8002212:	4620      	mov	r0, r4
 8002214:	f7fe fc5c 	bl	8000ad0 <__aeabi_fsub>
 8002218:	4603      	mov	r3, r0
 800221a:	607b      	str	r3, [r7, #4]
		  if((rozdilchU > 0.01)||(rozdilchU < -0.01))
 800221c:	6878      	ldr	r0, [r7, #4]
 800221e:	f7fe f8fb 	bl	8000418 <__aeabi_f2d>
 8002222:	a32d      	add	r3, pc, #180	; (adr r3, 80022d8 <main+0x280>)
 8002224:	e9d3 2300 	ldrd	r2, r3, [r3]
 8002228:	f7fe fbde 	bl	80009e8 <__aeabi_dcmpgt>
 800222c:	4603      	mov	r3, r0
 800222e:	2b00      	cmp	r3, #0
 8002230:	d10a      	bne.n	8002248 <main+0x1f0>
 8002232:	6878      	ldr	r0, [r7, #4]
 8002234:	f7fe f8f0 	bl	8000418 <__aeabi_f2d>
 8002238:	a329      	add	r3, pc, #164	; (adr r3, 80022e0 <main+0x288>)
 800223a:	e9d3 2300 	ldrd	r2, r3, [r3]
 800223e:	f7fe fbb5 	bl	80009ac <__aeabi_dcmplt>
 8002242:	4603      	mov	r3, r0
 8002244:	2b00      	cmp	r3, #0
 8002246:	d029      	beq.n	800229c <main+0x244>
		  {
			  Um = (ADCtoVoltage(ADCout[1])*2)-(ADCtoVoltage(ADCout[2])*2);
 8002248:	4b27      	ldr	r3, [pc, #156]	; (80022e8 <main+0x290>)
 800224a:	685b      	ldr	r3, [r3, #4]
 800224c:	b29b      	uxth	r3, r3
 800224e:	4618      	mov	r0, r3
 8002250:	f7ff f896 	bl	8001380 <ADCtoVoltage>
 8002254:	4603      	mov	r3, r0
 8002256:	4619      	mov	r1, r3
 8002258:	4618      	mov	r0, r3
 800225a:	f7fe fc3b 	bl	8000ad4 <__addsf3>
 800225e:	4603      	mov	r3, r0
 8002260:	461c      	mov	r4, r3
 8002262:	4b21      	ldr	r3, [pc, #132]	; (80022e8 <main+0x290>)
 8002264:	689b      	ldr	r3, [r3, #8]
 8002266:	b29b      	uxth	r3, r3
 8002268:	4618      	mov	r0, r3
 800226a:	f7ff f889 	bl	8001380 <ADCtoVoltage>
 800226e:	4603      	mov	r3, r0
 8002270:	4619      	mov	r1, r3
 8002272:	4618      	mov	r0, r3
 8002274:	f7fe fc2e 	bl	8000ad4 <__addsf3>
 8002278:	4603      	mov	r3, r0
 800227a:	4619      	mov	r1, r3
 800227c:	4620      	mov	r0, r4
 800227e:	f7fe fc27 	bl	8000ad0 <__aeabi_fsub>
 8002282:	4603      	mov	r3, r0
 8002284:	461a      	mov	r2, r3
 8002286:	4b23      	ldr	r3, [pc, #140]	; (8002314 <main+0x2bc>)
 8002288:	601a      	str	r2, [r3, #0]
			  setVout(setvoltage);
 800228a:	4b1e      	ldr	r3, [pc, #120]	; (8002304 <main+0x2ac>)
 800228c:	681b      	ldr	r3, [r3, #0]
 800228e:	4618      	mov	r0, r3
 8002290:	f7ff fd3a 	bl	8001d08 <setVout>
			  refreshflag |= 0x01;
 8002294:	7bfb      	ldrb	r3, [r7, #15]
 8002296:	f043 0301 	orr.w	r3, r3, #1
 800229a:	73fb      	strb	r3, [r7, #15]
		  }
		  if(refreshflag > 0)  // pokud je pznak zmny daj na display obnov display
 800229c:	7bfb      	ldrb	r3, [r7, #15]
 800229e:	2b00      	cmp	r3, #0
 80022a0:	d007      	beq.n	80022b2 <main+0x25a>
		  {
			  drawmenu1(0, 1, Im , setvoltage);
 80022a2:	4b1b      	ldr	r3, [pc, #108]	; (8002310 <main+0x2b8>)
 80022a4:	681a      	ldr	r2, [r3, #0]
 80022a6:	4b17      	ldr	r3, [pc, #92]	; (8002304 <main+0x2ac>)
 80022a8:	681b      	ldr	r3, [r3, #0]
 80022aa:	2101      	movs	r1, #1
 80022ac:	2000      	movs	r0, #0
 80022ae:	f7ff f9f3 	bl	8001698 <drawmenu1>
		  }
	  }
	  teplota = Voltagetoteperatur(ADCtoVoltage(ADCout[3]));
 80022b2:	4b0d      	ldr	r3, [pc, #52]	; (80022e8 <main+0x290>)
 80022b4:	68db      	ldr	r3, [r3, #12]
 80022b6:	b29b      	uxth	r3, r3
 80022b8:	4618      	mov	r0, r3
 80022ba:	f7ff f861 	bl	8001380 <ADCtoVoltage>
 80022be:	4603      	mov	r3, r0
 80022c0:	4618      	mov	r0, r3
 80022c2:	f7ff f88d 	bl	80013e0 <Voltagetoteperatur>
 80022c6:	4603      	mov	r3, r0
 80022c8:	4a13      	ldr	r2, [pc, #76]	; (8002318 <main+0x2c0>)
 80022ca:	6013      	str	r3, [r2, #0]
	  ventilator(teplota);
 80022cc:	4b12      	ldr	r3, [pc, #72]	; (8002318 <main+0x2c0>)
 80022ce:	681b      	ldr	r3, [r3, #0]
 80022d0:	4618      	mov	r0, r3
 80022d2:	f7ff fc9b 	bl	8001c0c <ventilator>
  {
 80022d6:	e6e6      	b.n	80020a6 <main+0x4e>
 80022d8:	47ae147b 	.word	0x47ae147b
 80022dc:	3f847ae1 	.word	0x3f847ae1
 80022e0:	47ae147b 	.word	0x47ae147b
 80022e4:	bf847ae1 	.word	0xbf847ae1
 80022e8:	200005b4 	.word	0x200005b4
 80022ec:	20000584 	.word	0x20000584
 80022f0:	2000060c 	.word	0x2000060c
 80022f4:	20000008 	.word	0x20000008
 80022f8:	200000b0 	.word	0x200000b0
 80022fc:	200000b3 	.word	0x200000b3
 8002300:	200000b2 	.word	0x200000b2
 8002304:	200000b4 	.word	0x200000b4
 8002308:	200000b8 	.word	0x200000b8
 800230c:	2000057c 	.word	0x2000057c
 8002310:	200000a4 	.word	0x200000a4
 8002314:	200000a8 	.word	0x200000a8
 8002318:	200000ac 	.word	0x200000ac

0800231c <SystemClock_Config>:
/**
  * @brief System Clock Configuration
  * @retval None
  */
void SystemClock_Config(void)
{
 800231c:	b580      	push	{r7, lr}
 800231e:	b094      	sub	sp, #80	; 0x50
 8002320:	af00      	add	r7, sp, #0
  RCC_OscInitTypeDef RCC_OscInitStruct = {0};
 8002322:	f107 0328 	add.w	r3, r7, #40	; 0x28
 8002326:	2228      	movs	r2, #40	; 0x28
 8002328:	2100      	movs	r1, #0
 800232a:	4618      	mov	r0, r3
 800232c:	f004 faf6 	bl	800691c <memset>
  RCC_ClkInitTypeDef RCC_ClkInitStruct = {0};
 8002330:	f107 0314 	add.w	r3, r7, #20
 8002334:	2200      	movs	r2, #0
 8002336:	601a      	str	r2, [r3, #0]
 8002338:	605a      	str	r2, [r3, #4]
 800233a:	609a      	str	r2, [r3, #8]
 800233c:	60da      	str	r2, [r3, #12]
 800233e:	611a      	str	r2, [r3, #16]
  RCC_PeriphCLKInitTypeDef PeriphClkInit = {0};
 8002340:	1d3b      	adds	r3, r7, #4
 8002342:	2200      	movs	r2, #0
 8002344:	601a      	str	r2, [r3, #0]
 8002346:	605a      	str	r2, [r3, #4]
 8002348:	609a      	str	r2, [r3, #8]
 800234a:	60da      	str	r2, [r3, #12]

  /** Initializes the RCC Oscillators according to the specified parameters
  * in the RCC_OscInitTypeDef structure.
  */
  RCC_OscInitStruct.OscillatorType = RCC_OSCILLATORTYPE_HSE;
 800234c:	2301      	movs	r3, #1
 800234e:	62bb      	str	r3, [r7, #40]	; 0x28
  RCC_OscInitStruct.HSEState = RCC_HSE_ON;
 8002350:	f44f 3380 	mov.w	r3, #65536	; 0x10000
 8002354:	62fb      	str	r3, [r7, #44]	; 0x2c
  RCC_OscInitStruct.HSEPredivValue = RCC_HSE_PREDIV_DIV1;
 8002356:	2300      	movs	r3, #0
 8002358:	633b      	str	r3, [r7, #48]	; 0x30
  RCC_OscInitStruct.HSIState = RCC_HSI_ON;
 800235a:	2301      	movs	r3, #1
 800235c:	63bb      	str	r3, [r7, #56]	; 0x38
  RCC_OscInitStruct.PLL.PLLState = RCC_PLL_ON;
 800235e:	2302      	movs	r3, #2
 8002360:	647b      	str	r3, [r7, #68]	; 0x44
  RCC_OscInitStruct.PLL.PLLSource = RCC_PLLSOURCE_HSE;
 8002362:	f44f 3380 	mov.w	r3, #65536	; 0x10000
 8002366:	64bb      	str	r3, [r7, #72]	; 0x48
  RCC_OscInitStruct.PLL.PLLMUL = RCC_PLL_MUL9;
 8002368:	f44f 13e0 	mov.w	r3, #1835008	; 0x1c0000
 800236c:	64fb      	str	r3, [r7, #76]	; 0x4c
  if (HAL_RCC_OscConfig(&RCC_OscInitStruct) != HAL_OK)
 800236e:	f107 0328 	add.w	r3, r7, #40	; 0x28
 8002372:	4618      	mov	r0, r3
 8002374:	f003 f9b6 	bl	80056e4 <HAL_RCC_OscConfig>
 8002378:	4603      	mov	r3, r0
 800237a:	2b00      	cmp	r3, #0
 800237c:	d001      	beq.n	8002382 <SystemClock_Config+0x66>
  {
    Error_Handler();
 800237e:	f000 f9f5 	bl	800276c <Error_Handler>
  }
  /** Initializes the CPU, AHB and APB buses clocks
  */
  RCC_ClkInitStruct.ClockType = RCC_CLOCKTYPE_HCLK|RCC_CLOCKTYPE_SYSCLK
 8002382:	230f      	movs	r3, #15
 8002384:	617b      	str	r3, [r7, #20]
                              |RCC_CLOCKTYPE_PCLK1|RCC_CLOCKTYPE_PCLK2;
  RCC_ClkInitStruct.SYSCLKSource = RCC_SYSCLKSOURCE_PLLCLK;
 8002386:	2302      	movs	r3, #2
 8002388:	61bb      	str	r3, [r7, #24]
  RCC_ClkInitStruct.AHBCLKDivider = RCC_SYSCLK_DIV1;
 800238a:	2300      	movs	r3, #0
 800238c:	61fb      	str	r3, [r7, #28]
  RCC_ClkInitStruct.APB1CLKDivider = RCC_HCLK_DIV2;
 800238e:	f44f 6380 	mov.w	r3, #1024	; 0x400
 8002392:	623b      	str	r3, [r7, #32]
  RCC_ClkInitStruct.APB2CLKDivider = RCC_HCLK_DIV4;
 8002394:	f44f 63a0 	mov.w	r3, #1280	; 0x500
 8002398:	627b      	str	r3, [r7, #36]	; 0x24

  if (HAL_RCC_ClockConfig(&RCC_ClkInitStruct, FLASH_LATENCY_2) != HAL_OK)
 800239a:	f107 0314 	add.w	r3, r7, #20
 800239e:	2102      	movs	r1, #2
 80023a0:	4618      	mov	r0, r3
 80023a2:	f003 fc1f 	bl	8005be4 <HAL_RCC_ClockConfig>
 80023a6:	4603      	mov	r3, r0
 80023a8:	2b00      	cmp	r3, #0
 80023aa:	d001      	beq.n	80023b0 <SystemClock_Config+0x94>
  {
    Error_Handler();
 80023ac:	f000 f9de 	bl	800276c <Error_Handler>
  }
  PeriphClkInit.PeriphClockSelection = RCC_PERIPHCLK_ADC;
 80023b0:	2302      	movs	r3, #2
 80023b2:	607b      	str	r3, [r7, #4]
  PeriphClkInit.AdcClockSelection = RCC_ADCPCLK2_DIV8;
 80023b4:	f44f 4340 	mov.w	r3, #49152	; 0xc000
 80023b8:	60fb      	str	r3, [r7, #12]
  if (HAL_RCCEx_PeriphCLKConfig(&PeriphClkInit) != HAL_OK)
 80023ba:	1d3b      	adds	r3, r7, #4
 80023bc:	4618      	mov	r0, r3
 80023be:	f003 fd97 	bl	8005ef0 <HAL_RCCEx_PeriphCLKConfig>
 80023c2:	4603      	mov	r3, r0
 80023c4:	2b00      	cmp	r3, #0
 80023c6:	d001      	beq.n	80023cc <SystemClock_Config+0xb0>
  {
    Error_Handler();
 80023c8:	f000 f9d0 	bl	800276c <Error_Handler>
  }
}
 80023cc:	bf00      	nop
 80023ce:	3750      	adds	r7, #80	; 0x50
 80023d0:	46bd      	mov	sp, r7
 80023d2:	bd80      	pop	{r7, pc}

080023d4 <MX_ADC1_Init>:
  * @brief ADC1 Initialization Function
  * @param None
  * @retval None
  */
static void MX_ADC1_Init(void)
{
 80023d4:	b580      	push	{r7, lr}
 80023d6:	b084      	sub	sp, #16
 80023d8:	af00      	add	r7, sp, #0

  /* USER CODE BEGIN ADC1_Init 0 */

  /* USER CODE END ADC1_Init 0 */

  ADC_ChannelConfTypeDef sConfig = {0};
 80023da:	1d3b      	adds	r3, r7, #4
 80023dc:	2200      	movs	r2, #0
 80023de:	601a      	str	r2, [r3, #0]
 80023e0:	605a      	str	r2, [r3, #4]
 80023e2:	609a      	str	r2, [r3, #8]
  /* USER CODE BEGIN ADC1_Init 1 */

  /* USER CODE END ADC1_Init 1 */
  /** Common config
  */
  hadc1.Instance = ADC1;
 80023e4:	4b2e      	ldr	r3, [pc, #184]	; (80024a0 <MX_ADC1_Init+0xcc>)
 80023e6:	4a2f      	ldr	r2, [pc, #188]	; (80024a4 <MX_ADC1_Init+0xd0>)
 80023e8:	601a      	str	r2, [r3, #0]
  hadc1.Init.ScanConvMode = ADC_SCAN_ENABLE;
 80023ea:	4b2d      	ldr	r3, [pc, #180]	; (80024a0 <MX_ADC1_Init+0xcc>)
 80023ec:	f44f 7280 	mov.w	r2, #256	; 0x100
 80023f0:	609a      	str	r2, [r3, #8]
  hadc1.Init.ContinuousConvMode = ENABLE;
 80023f2:	4b2b      	ldr	r3, [pc, #172]	; (80024a0 <MX_ADC1_Init+0xcc>)
 80023f4:	2201      	movs	r2, #1
 80023f6:	731a      	strb	r2, [r3, #12]
  hadc1.Init.DiscontinuousConvMode = DISABLE;
 80023f8:	4b29      	ldr	r3, [pc, #164]	; (80024a0 <MX_ADC1_Init+0xcc>)
 80023fa:	2200      	movs	r2, #0
 80023fc:	751a      	strb	r2, [r3, #20]
  hadc1.Init.ExternalTrigConv = ADC_SOFTWARE_START;
 80023fe:	4b28      	ldr	r3, [pc, #160]	; (80024a0 <MX_ADC1_Init+0xcc>)
 8002400:	f44f 2260 	mov.w	r2, #917504	; 0xe0000
 8002404:	61da      	str	r2, [r3, #28]
  hadc1.Init.DataAlign = ADC_DATAALIGN_RIGHT;
 8002406:	4b26      	ldr	r3, [pc, #152]	; (80024a0 <MX_ADC1_Init+0xcc>)
 8002408:	2200      	movs	r2, #0
 800240a:	605a      	str	r2, [r3, #4]
  hadc1.Init.NbrOfConversion = 4;
 800240c:	4b24      	ldr	r3, [pc, #144]	; (80024a0 <MX_ADC1_Init+0xcc>)
 800240e:	2204      	movs	r2, #4
 8002410:	611a      	str	r2, [r3, #16]
  if (HAL_ADC_Init(&hadc1) != HAL_OK)
 8002412:	4823      	ldr	r0, [pc, #140]	; (80024a0 <MX_ADC1_Init+0xcc>)
 8002414:	f000 ffc6 	bl	80033a4 <HAL_ADC_Init>
 8002418:	4603      	mov	r3, r0
 800241a:	2b00      	cmp	r3, #0
 800241c:	d001      	beq.n	8002422 <MX_ADC1_Init+0x4e>
  {
    Error_Handler();
 800241e:	f000 f9a5 	bl	800276c <Error_Handler>
  }
  /** Configure Regular Channel
  */
  sConfig.Channel = ADC_CHANNEL_0;
 8002422:	2300      	movs	r3, #0
 8002424:	607b      	str	r3, [r7, #4]
  sConfig.Rank = ADC_REGULAR_RANK_1;
 8002426:	2301      	movs	r3, #1
 8002428:	60bb      	str	r3, [r7, #8]
  sConfig.SamplingTime = ADC_SAMPLETIME_71CYCLES_5;
 800242a:	2306      	movs	r3, #6
 800242c:	60fb      	str	r3, [r7, #12]
  if (HAL_ADC_ConfigChannel(&hadc1, &sConfig) != HAL_OK)
 800242e:	1d3b      	adds	r3, r7, #4
 8002430:	4619      	mov	r1, r3
 8002432:	481b      	ldr	r0, [pc, #108]	; (80024a0 <MX_ADC1_Init+0xcc>)
 8002434:	f001 f988 	bl	8003748 <HAL_ADC_ConfigChannel>
 8002438:	4603      	mov	r3, r0
 800243a:	2b00      	cmp	r3, #0
 800243c:	d001      	beq.n	8002442 <MX_ADC1_Init+0x6e>
  {
    Error_Handler();
 800243e:	f000 f995 	bl	800276c <Error_Handler>
  }
  /** Configure Regular Channel
  */
  sConfig.Channel = ADC_CHANNEL_1;
 8002442:	2301      	movs	r3, #1
 8002444:	607b      	str	r3, [r7, #4]
  sConfig.Rank = ADC_REGULAR_RANK_2;
 8002446:	2302      	movs	r3, #2
 8002448:	60bb      	str	r3, [r7, #8]
  if (HAL_ADC_ConfigChannel(&hadc1, &sConfig) != HAL_OK)
 800244a:	1d3b      	adds	r3, r7, #4
 800244c:	4619      	mov	r1, r3
 800244e:	4814      	ldr	r0, [pc, #80]	; (80024a0 <MX_ADC1_Init+0xcc>)
 8002450:	f001 f97a 	bl	8003748 <HAL_ADC_ConfigChannel>
 8002454:	4603      	mov	r3, r0
 8002456:	2b00      	cmp	r3, #0
 8002458:	d001      	beq.n	800245e <MX_ADC1_Init+0x8a>
  {
    Error_Handler();
 800245a:	f000 f987 	bl	800276c <Error_Handler>
  }
  /** Configure Regular Channel
  */
  sConfig.Channel = ADC_CHANNEL_2;
 800245e:	2302      	movs	r3, #2
 8002460:	607b      	str	r3, [r7, #4]
  sConfig.Rank = ADC_REGULAR_RANK_3;
 8002462:	2303      	movs	r3, #3
 8002464:	60bb      	str	r3, [r7, #8]
  if (HAL_ADC_ConfigChannel(&hadc1, &sConfig) != HAL_OK)
 8002466:	1d3b      	adds	r3, r7, #4
 8002468:	4619      	mov	r1, r3
 800246a:	480d      	ldr	r0, [pc, #52]	; (80024a0 <MX_ADC1_Init+0xcc>)
 800246c:	f001 f96c 	bl	8003748 <HAL_ADC_ConfigChannel>
 8002470:	4603      	mov	r3, r0
 8002472:	2b00      	cmp	r3, #0
 8002474:	d001      	beq.n	800247a <MX_ADC1_Init+0xa6>
  {
    Error_Handler();
 8002476:	f000 f979 	bl	800276c <Error_Handler>
  }
  /** Configure Regular Channel
  */
  sConfig.Channel = ADC_CHANNEL_3;
 800247a:	2303      	movs	r3, #3
 800247c:	607b      	str	r3, [r7, #4]
  sConfig.Rank = ADC_REGULAR_RANK_4;
 800247e:	2304      	movs	r3, #4
 8002480:	60bb      	str	r3, [r7, #8]
  if (HAL_ADC_ConfigChannel(&hadc1, &sConfig) != HAL_OK)
 8002482:	1d3b      	adds	r3, r7, #4
 8002484:	4619      	mov	r1, r3
 8002486:	4806      	ldr	r0, [pc, #24]	; (80024a0 <MX_ADC1_Init+0xcc>)
 8002488:	f001 f95e 	bl	8003748 <HAL_ADC_ConfigChannel>
 800248c:	4603      	mov	r3, r0
 800248e:	2b00      	cmp	r3, #0
 8002490:	d001      	beq.n	8002496 <MX_ADC1_Init+0xc2>
  {
    Error_Handler();
 8002492:	f000 f96b 	bl	800276c <Error_Handler>
  }
  /* USER CODE BEGIN ADC1_Init 2 */

  /* USER CODE END ADC1_Init 2 */

}
 8002496:	bf00      	nop
 8002498:	3710      	adds	r7, #16
 800249a:	46bd      	mov	sp, r7
 800249c:	bd80      	pop	{r7, pc}
 800249e:	bf00      	nop
 80024a0:	20000584 	.word	0x20000584
 80024a4:	40012400 	.word	0x40012400

080024a8 <MX_I2C1_Init>:
  * @brief I2C1 Initialization Function
  * @param None
  * @retval None
  */
static void MX_I2C1_Init(void)
{
 80024a8:	b580      	push	{r7, lr}
 80024aa:	af00      	add	r7, sp, #0
  /* USER CODE END I2C1_Init 0 */

  /* USER CODE BEGIN I2C1_Init 1 */

  /* USER CODE END I2C1_Init 1 */
  hi2c1.Instance = I2C1;
 80024ac:	4b12      	ldr	r3, [pc, #72]	; (80024f8 <MX_I2C1_Init+0x50>)
 80024ae:	4a13      	ldr	r2, [pc, #76]	; (80024fc <MX_I2C1_Init+0x54>)
 80024b0:	601a      	str	r2, [r3, #0]
  hi2c1.Init.ClockSpeed = 400000;
 80024b2:	4b11      	ldr	r3, [pc, #68]	; (80024f8 <MX_I2C1_Init+0x50>)
 80024b4:	4a12      	ldr	r2, [pc, #72]	; (8002500 <MX_I2C1_Init+0x58>)
 80024b6:	605a      	str	r2, [r3, #4]
  hi2c1.Init.DutyCycle = I2C_DUTYCYCLE_2;
 80024b8:	4b0f      	ldr	r3, [pc, #60]	; (80024f8 <MX_I2C1_Init+0x50>)
 80024ba:	2200      	movs	r2, #0
 80024bc:	609a      	str	r2, [r3, #8]
  hi2c1.Init.OwnAddress1 = 0;
 80024be:	4b0e      	ldr	r3, [pc, #56]	; (80024f8 <MX_I2C1_Init+0x50>)
 80024c0:	2200      	movs	r2, #0
 80024c2:	60da      	str	r2, [r3, #12]
  hi2c1.Init.AddressingMode = I2C_ADDRESSINGMODE_7BIT;
 80024c4:	4b0c      	ldr	r3, [pc, #48]	; (80024f8 <MX_I2C1_Init+0x50>)
 80024c6:	f44f 4280 	mov.w	r2, #16384	; 0x4000
 80024ca:	611a      	str	r2, [r3, #16]
  hi2c1.Init.DualAddressMode = I2C_DUALADDRESS_DISABLE;
 80024cc:	4b0a      	ldr	r3, [pc, #40]	; (80024f8 <MX_I2C1_Init+0x50>)
 80024ce:	2200      	movs	r2, #0
 80024d0:	615a      	str	r2, [r3, #20]
  hi2c1.Init.OwnAddress2 = 0;
 80024d2:	4b09      	ldr	r3, [pc, #36]	; (80024f8 <MX_I2C1_Init+0x50>)
 80024d4:	2200      	movs	r2, #0
 80024d6:	619a      	str	r2, [r3, #24]
  hi2c1.Init.GeneralCallMode = I2C_GENERALCALL_DISABLE;
 80024d8:	4b07      	ldr	r3, [pc, #28]	; (80024f8 <MX_I2C1_Init+0x50>)
 80024da:	2200      	movs	r2, #0
 80024dc:	61da      	str	r2, [r3, #28]
  hi2c1.Init.NoStretchMode = I2C_NOSTRETCH_DISABLE;
 80024de:	4b06      	ldr	r3, [pc, #24]	; (80024f8 <MX_I2C1_Init+0x50>)
 80024e0:	2200      	movs	r2, #0
 80024e2:	621a      	str	r2, [r3, #32]
  if (HAL_I2C_Init(&hi2c1) != HAL_OK)
 80024e4:	4804      	ldr	r0, [pc, #16]	; (80024f8 <MX_I2C1_Init+0x50>)
 80024e6:	f002 f867 	bl	80045b8 <HAL_I2C_Init>
 80024ea:	4603      	mov	r3, r0
 80024ec:	2b00      	cmp	r3, #0
 80024ee:	d001      	beq.n	80024f4 <MX_I2C1_Init+0x4c>
  {
    Error_Handler();
 80024f0:	f000 f93c 	bl	800276c <Error_Handler>
  }
  /* USER CODE BEGIN I2C1_Init 2 */

  /* USER CODE END I2C1_Init 2 */

}
 80024f4:	bf00      	nop
 80024f6:	bd80      	pop	{r7, pc}
 80024f8:	200004d4 	.word	0x200004d4
 80024fc:	40005400 	.word	0x40005400
 8002500:	00061a80 	.word	0x00061a80

08002504 <MX_I2C2_Init>:
  * @brief I2C2 Initialization Function
  * @param None
  * @retval None
  */
static void MX_I2C2_Init(void)
{
 8002504:	b580      	push	{r7, lr}
 8002506:	af00      	add	r7, sp, #0
  /* USER CODE END I2C2_Init 0 */

  /* USER CODE BEGIN I2C2_Init 1 */

  /* USER CODE END I2C2_Init 1 */
  hi2c2.Instance = I2C2;
 8002508:	4b12      	ldr	r3, [pc, #72]	; (8002554 <MX_I2C2_Init+0x50>)
 800250a:	4a13      	ldr	r2, [pc, #76]	; (8002558 <MX_I2C2_Init+0x54>)
 800250c:	601a      	str	r2, [r3, #0]
  hi2c2.Init.ClockSpeed = 100000;
 800250e:	4b11      	ldr	r3, [pc, #68]	; (8002554 <MX_I2C2_Init+0x50>)
 8002510:	4a12      	ldr	r2, [pc, #72]	; (800255c <MX_I2C2_Init+0x58>)
 8002512:	605a      	str	r2, [r3, #4]
  hi2c2.Init.DutyCycle = I2C_DUTYCYCLE_2;
 8002514:	4b0f      	ldr	r3, [pc, #60]	; (8002554 <MX_I2C2_Init+0x50>)
 8002516:	2200      	movs	r2, #0
 8002518:	609a      	str	r2, [r3, #8]
  hi2c2.Init.OwnAddress1 = 0;
 800251a:	4b0e      	ldr	r3, [pc, #56]	; (8002554 <MX_I2C2_Init+0x50>)
 800251c:	2200      	movs	r2, #0
 800251e:	60da      	str	r2, [r3, #12]
  hi2c2.Init.AddressingMode = I2C_ADDRESSINGMODE_7BIT;
 8002520:	4b0c      	ldr	r3, [pc, #48]	; (8002554 <MX_I2C2_Init+0x50>)
 8002522:	f44f 4280 	mov.w	r2, #16384	; 0x4000
 8002526:	611a      	str	r2, [r3, #16]
  hi2c2.Init.DualAddressMode = I2C_DUALADDRESS_DISABLE;
 8002528:	4b0a      	ldr	r3, [pc, #40]	; (8002554 <MX_I2C2_Init+0x50>)
 800252a:	2200      	movs	r2, #0
 800252c:	615a      	str	r2, [r3, #20]
  hi2c2.Init.OwnAddress2 = 0;
 800252e:	4b09      	ldr	r3, [pc, #36]	; (8002554 <MX_I2C2_Init+0x50>)
 8002530:	2200      	movs	r2, #0
 8002532:	619a      	str	r2, [r3, #24]
  hi2c2.Init.GeneralCallMode = I2C_GENERALCALL_DISABLE;
 8002534:	4b07      	ldr	r3, [pc, #28]	; (8002554 <MX_I2C2_Init+0x50>)
 8002536:	2200      	movs	r2, #0
 8002538:	61da      	str	r2, [r3, #28]
  hi2c2.Init.NoStretchMode = I2C_NOSTRETCH_DISABLE;
 800253a:	4b06      	ldr	r3, [pc, #24]	; (8002554 <MX_I2C2_Init+0x50>)
 800253c:	2200      	movs	r2, #0
 800253e:	621a      	str	r2, [r3, #32]
  if (HAL_I2C_Init(&hi2c2) != HAL_OK)
 8002540:	4804      	ldr	r0, [pc, #16]	; (8002554 <MX_I2C2_Init+0x50>)
 8002542:	f002 f839 	bl	80045b8 <HAL_I2C_Init>
 8002546:	4603      	mov	r3, r0
 8002548:	2b00      	cmp	r3, #0
 800254a:	d001      	beq.n	8002550 <MX_I2C2_Init+0x4c>
  {
    Error_Handler();
 800254c:	f000 f90e 	bl	800276c <Error_Handler>
  }
  /* USER CODE BEGIN I2C2_Init 2 */

  /* USER CODE END I2C2_Init 2 */

}
 8002550:	bf00      	nop
 8002552:	bd80      	pop	{r7, pc}
 8002554:	20000528 	.word	0x20000528
 8002558:	40005800 	.word	0x40005800
 800255c:	000186a0 	.word	0x000186a0

08002560 <MX_TIM2_Init>:
  * @brief TIM2 Initialization Function
  * @param None
  * @retval None
  */
static void MX_TIM2_Init(void)
{
 8002560:	b580      	push	{r7, lr}
 8002562:	b08a      	sub	sp, #40	; 0x28
 8002564:	af00      	add	r7, sp, #0

  /* USER CODE BEGIN TIM2_Init 0 */

  /* USER CODE END TIM2_Init 0 */

  TIM_MasterConfigTypeDef sMasterConfig = {0};
 8002566:	f107 0320 	add.w	r3, r7, #32
 800256a:	2200      	movs	r2, #0
 800256c:	601a      	str	r2, [r3, #0]
 800256e:	605a      	str	r2, [r3, #4]
  TIM_OC_InitTypeDef sConfigOC = {0};
 8002570:	1d3b      	adds	r3, r7, #4
 8002572:	2200      	movs	r2, #0
 8002574:	601a      	str	r2, [r3, #0]
 8002576:	605a      	str	r2, [r3, #4]
 8002578:	609a      	str	r2, [r3, #8]
 800257a:	60da      	str	r2, [r3, #12]
 800257c:	611a      	str	r2, [r3, #16]
 800257e:	615a      	str	r2, [r3, #20]
 8002580:	619a      	str	r2, [r3, #24]

  /* USER CODE BEGIN TIM2_Init 1 */

  /* USER CODE END TIM2_Init 1 */
  htim2.Instance = TIM2;
 8002582:	4b22      	ldr	r3, [pc, #136]	; (800260c <MX_TIM2_Init+0xac>)
 8002584:	f04f 4280 	mov.w	r2, #1073741824	; 0x40000000
 8002588:	601a      	str	r2, [r3, #0]
  htim2.Init.Prescaler = 0;
 800258a:	4b20      	ldr	r3, [pc, #128]	; (800260c <MX_TIM2_Init+0xac>)
 800258c:	2200      	movs	r2, #0
 800258e:	605a      	str	r2, [r3, #4]
  htim2.Init.CounterMode = TIM_COUNTERMODE_UP;
 8002590:	4b1e      	ldr	r3, [pc, #120]	; (800260c <MX_TIM2_Init+0xac>)
 8002592:	2200      	movs	r2, #0
 8002594:	609a      	str	r2, [r3, #8]
  htim2.Init.Period = 255;
 8002596:	4b1d      	ldr	r3, [pc, #116]	; (800260c <MX_TIM2_Init+0xac>)
 8002598:	22ff      	movs	r2, #255	; 0xff
 800259a:	60da      	str	r2, [r3, #12]
  htim2.Init.ClockDivision = TIM_CLOCKDIVISION_DIV1;
 800259c:	4b1b      	ldr	r3, [pc, #108]	; (800260c <MX_TIM2_Init+0xac>)
 800259e:	2200      	movs	r2, #0
 80025a0:	611a      	str	r2, [r3, #16]
  htim2.Init.AutoReloadPreload = TIM_AUTORELOAD_PRELOAD_DISABLE;
 80025a2:	4b1a      	ldr	r3, [pc, #104]	; (800260c <MX_TIM2_Init+0xac>)
 80025a4:	2200      	movs	r2, #0
 80025a6:	619a      	str	r2, [r3, #24]
  if (HAL_TIM_PWM_Init(&htim2) != HAL_OK)
 80025a8:	4818      	ldr	r0, [pc, #96]	; (800260c <MX_TIM2_Init+0xac>)
 80025aa:	f003 fd57 	bl	800605c <HAL_TIM_PWM_Init>
 80025ae:	4603      	mov	r3, r0
 80025b0:	2b00      	cmp	r3, #0
 80025b2:	d001      	beq.n	80025b8 <MX_TIM2_Init+0x58>
  {
    Error_Handler();
 80025b4:	f000 f8da 	bl	800276c <Error_Handler>
  }
  sMasterConfig.MasterOutputTrigger = TIM_TRGO_RESET;
 80025b8:	2300      	movs	r3, #0
 80025ba:	623b      	str	r3, [r7, #32]
  sMasterConfig.MasterSlaveMode = TIM_MASTERSLAVEMODE_DISABLE;
 80025bc:	2300      	movs	r3, #0
 80025be:	627b      	str	r3, [r7, #36]	; 0x24
  if (HAL_TIMEx_MasterConfigSynchronization(&htim2, &sMasterConfig) != HAL_OK)
 80025c0:	f107 0320 	add.w	r3, r7, #32
 80025c4:	4619      	mov	r1, r3
 80025c6:	4811      	ldr	r0, [pc, #68]	; (800260c <MX_TIM2_Init+0xac>)
 80025c8:	f004 f906 	bl	80067d8 <HAL_TIMEx_MasterConfigSynchronization>
 80025cc:	4603      	mov	r3, r0
 80025ce:	2b00      	cmp	r3, #0
 80025d0:	d001      	beq.n	80025d6 <MX_TIM2_Init+0x76>
  {
    Error_Handler();
 80025d2:	f000 f8cb 	bl	800276c <Error_Handler>
  }
  sConfigOC.OCMode = TIM_OCMODE_PWM1;
 80025d6:	2360      	movs	r3, #96	; 0x60
 80025d8:	607b      	str	r3, [r7, #4]
  sConfigOC.Pulse = 0;
 80025da:	2300      	movs	r3, #0
 80025dc:	60bb      	str	r3, [r7, #8]
  sConfigOC.OCPolarity = TIM_OCPOLARITY_HIGH;
 80025de:	2300      	movs	r3, #0
 80025e0:	60fb      	str	r3, [r7, #12]
  sConfigOC.OCFastMode = TIM_OCFAST_DISABLE;
 80025e2:	2300      	movs	r3, #0
 80025e4:	617b      	str	r3, [r7, #20]
  if (HAL_TIM_PWM_ConfigChannel(&htim2, &sConfigOC, TIM_CHANNEL_1) != HAL_OK)
 80025e6:	1d3b      	adds	r3, r7, #4
 80025e8:	2200      	movs	r2, #0
 80025ea:	4619      	mov	r1, r3
 80025ec:	4807      	ldr	r0, [pc, #28]	; (800260c <MX_TIM2_Init+0xac>)
 80025ee:	f003 fe27 	bl	8006240 <HAL_TIM_PWM_ConfigChannel>
 80025f2:	4603      	mov	r3, r0
 80025f4:	2b00      	cmp	r3, #0
 80025f6:	d001      	beq.n	80025fc <MX_TIM2_Init+0x9c>
  {
    Error_Handler();
 80025f8:	f000 f8b8 	bl	800276c <Error_Handler>
  }
  /* USER CODE BEGIN TIM2_Init 2 */

  /* USER CODE END TIM2_Init 2 */
  HAL_TIM_MspPostInit(&htim2);
 80025fc:	4803      	ldr	r0, [pc, #12]	; (800260c <MX_TIM2_Init+0xac>)
 80025fe:	f000 fd8d 	bl	800311c <HAL_TIM_MspPostInit>

}
 8002602:	bf00      	nop
 8002604:	3728      	adds	r7, #40	; 0x28
 8002606:	46bd      	mov	sp, r7
 8002608:	bd80      	pop	{r7, pc}
 800260a:	bf00      	nop
 800260c:	2000060c 	.word	0x2000060c

08002610 <MX_DMA_Init>:

/**
  * Enable DMA controller clock
  */
static void MX_DMA_Init(void)
{
 8002610:	b580      	push	{r7, lr}
 8002612:	b082      	sub	sp, #8
 8002614:	af00      	add	r7, sp, #0

  /* DMA controller clock enable */
  __HAL_RCC_DMA1_CLK_ENABLE();
 8002616:	4b0c      	ldr	r3, [pc, #48]	; (8002648 <MX_DMA_Init+0x38>)
 8002618:	695b      	ldr	r3, [r3, #20]
 800261a:	4a0b      	ldr	r2, [pc, #44]	; (8002648 <MX_DMA_Init+0x38>)
 800261c:	f043 0301 	orr.w	r3, r3, #1
 8002620:	6153      	str	r3, [r2, #20]
 8002622:	4b09      	ldr	r3, [pc, #36]	; (8002648 <MX_DMA_Init+0x38>)
 8002624:	695b      	ldr	r3, [r3, #20]
 8002626:	f003 0301 	and.w	r3, r3, #1
 800262a:	607b      	str	r3, [r7, #4]
 800262c:	687b      	ldr	r3, [r7, #4]

  /* DMA interrupt init */
  /* DMA1_Channel1_IRQn interrupt configuration */
  HAL_NVIC_SetPriority(DMA1_Channel1_IRQn, 0, 0);
 800262e:	2200      	movs	r2, #0
 8002630:	2100      	movs	r1, #0
 8002632:	200b      	movs	r0, #11
 8002634:	f001 fb59 	bl	8003cea <HAL_NVIC_SetPriority>
  HAL_NVIC_EnableIRQ(DMA1_Channel1_IRQn);
 8002638:	200b      	movs	r0, #11
 800263a:	f001 fb72 	bl	8003d22 <HAL_NVIC_EnableIRQ>

}
 800263e:	bf00      	nop
 8002640:	3708      	adds	r7, #8
 8002642:	46bd      	mov	sp, r7
 8002644:	bd80      	pop	{r7, pc}
 8002646:	bf00      	nop
 8002648:	40021000 	.word	0x40021000

0800264c <MX_GPIO_Init>:
  * @brief GPIO Initialization Function
  * @param None
  * @retval None
  */
static void MX_GPIO_Init(void)
{
 800264c:	b580      	push	{r7, lr}
 800264e:	b088      	sub	sp, #32
 8002650:	af00      	add	r7, sp, #0
  GPIO_InitTypeDef GPIO_InitStruct = {0};
 8002652:	f107 0310 	add.w	r3, r7, #16
 8002656:	2200      	movs	r2, #0
 8002658:	601a      	str	r2, [r3, #0]
 800265a:	605a      	str	r2, [r3, #4]
 800265c:	609a      	str	r2, [r3, #8]
 800265e:	60da      	str	r2, [r3, #12]

  /* GPIO Ports Clock Enable */
  __HAL_RCC_GPIOD_CLK_ENABLE();
 8002660:	4b3e      	ldr	r3, [pc, #248]	; (800275c <MX_GPIO_Init+0x110>)
 8002662:	699b      	ldr	r3, [r3, #24]
 8002664:	4a3d      	ldr	r2, [pc, #244]	; (800275c <MX_GPIO_Init+0x110>)
 8002666:	f043 0320 	orr.w	r3, r3, #32
 800266a:	6193      	str	r3, [r2, #24]
 800266c:	4b3b      	ldr	r3, [pc, #236]	; (800275c <MX_GPIO_Init+0x110>)
 800266e:	699b      	ldr	r3, [r3, #24]
 8002670:	f003 0320 	and.w	r3, r3, #32
 8002674:	60fb      	str	r3, [r7, #12]
 8002676:	68fb      	ldr	r3, [r7, #12]
  __HAL_RCC_GPIOA_CLK_ENABLE();
 8002678:	4b38      	ldr	r3, [pc, #224]	; (800275c <MX_GPIO_Init+0x110>)
 800267a:	699b      	ldr	r3, [r3, #24]
 800267c:	4a37      	ldr	r2, [pc, #220]	; (800275c <MX_GPIO_Init+0x110>)
 800267e:	f043 0304 	orr.w	r3, r3, #4
 8002682:	6193      	str	r3, [r2, #24]
 8002684:	4b35      	ldr	r3, [pc, #212]	; (800275c <MX_GPIO_Init+0x110>)
 8002686:	699b      	ldr	r3, [r3, #24]
 8002688:	f003 0304 	and.w	r3, r3, #4
 800268c:	60bb      	str	r3, [r7, #8]
 800268e:	68bb      	ldr	r3, [r7, #8]
  __HAL_RCC_GPIOB_CLK_ENABLE();
 8002690:	4b32      	ldr	r3, [pc, #200]	; (800275c <MX_GPIO_Init+0x110>)
 8002692:	699b      	ldr	r3, [r3, #24]
 8002694:	4a31      	ldr	r2, [pc, #196]	; (800275c <MX_GPIO_Init+0x110>)
 8002696:	f043 0308 	orr.w	r3, r3, #8
 800269a:	6193      	str	r3, [r2, #24]
 800269c:	4b2f      	ldr	r3, [pc, #188]	; (800275c <MX_GPIO_Init+0x110>)
 800269e:	699b      	ldr	r3, [r3, #24]
 80026a0:	f003 0308 	and.w	r3, r3, #8
 80026a4:	607b      	str	r3, [r7, #4]
 80026a6:	687b      	ldr	r3, [r7, #4]

  /*Configure GPIO pin Output Level */
  HAL_GPIO_WritePin(GPIOB, GPIO_PIN_2|GPIO_PIN_13|GPIO_PIN_14|GPIO_PIN_15, GPIO_PIN_RESET);
 80026a8:	2200      	movs	r2, #0
 80026aa:	f24e 0104 	movw	r1, #57348	; 0xe004
 80026ae:	482c      	ldr	r0, [pc, #176]	; (8002760 <MX_GPIO_Init+0x114>)
 80026b0:	f001 ff51 	bl	8004556 <HAL_GPIO_WritePin>

  /*Configure GPIO pin Output Level */
  HAL_GPIO_WritePin(GPIOA, GPIO_PIN_8|GPIO_PIN_9, GPIO_PIN_RESET);
 80026b4:	2200      	movs	r2, #0
 80026b6:	f44f 7140 	mov.w	r1, #768	; 0x300
 80026ba:	482a      	ldr	r0, [pc, #168]	; (8002764 <MX_GPIO_Init+0x118>)
 80026bc:	f001 ff4b 	bl	8004556 <HAL_GPIO_WritePin>

  /*Configure GPIO pins : PA4 PA5 PA6 PA7 */
  GPIO_InitStruct.Pin = GPIO_PIN_4|GPIO_PIN_5|GPIO_PIN_6|GPIO_PIN_7;
 80026c0:	23f0      	movs	r3, #240	; 0xf0
 80026c2:	613b      	str	r3, [r7, #16]
  GPIO_InitStruct.Mode = GPIO_MODE_INPUT;
 80026c4:	2300      	movs	r3, #0
 80026c6:	617b      	str	r3, [r7, #20]
  GPIO_InitStruct.Pull = GPIO_PULLUP;
 80026c8:	2301      	movs	r3, #1
 80026ca:	61bb      	str	r3, [r7, #24]
  HAL_GPIO_Init(GPIOA, &GPIO_InitStruct);
 80026cc:	f107 0310 	add.w	r3, r7, #16
 80026d0:	4619      	mov	r1, r3
 80026d2:	4824      	ldr	r0, [pc, #144]	; (8002764 <MX_GPIO_Init+0x118>)
 80026d4:	f001 fda4 	bl	8004220 <HAL_GPIO_Init>

  /*Configure GPIO pin : PB0 */
  GPIO_InitStruct.Pin = GPIO_PIN_0;
 80026d8:	2301      	movs	r3, #1
 80026da:	613b      	str	r3, [r7, #16]
  GPIO_InitStruct.Mode = GPIO_MODE_IT_FALLING;
 80026dc:	4b22      	ldr	r3, [pc, #136]	; (8002768 <MX_GPIO_Init+0x11c>)
 80026de:	617b      	str	r3, [r7, #20]
  GPIO_InitStruct.Pull = GPIO_PULLUP;
 80026e0:	2301      	movs	r3, #1
 80026e2:	61bb      	str	r3, [r7, #24]
  HAL_GPIO_Init(GPIOB, &GPIO_InitStruct);
 80026e4:	f107 0310 	add.w	r3, r7, #16
 80026e8:	4619      	mov	r1, r3
 80026ea:	481d      	ldr	r0, [pc, #116]	; (8002760 <MX_GPIO_Init+0x114>)
 80026ec:	f001 fd98 	bl	8004220 <HAL_GPIO_Init>

  /*Configure GPIO pin : PB1 */
  GPIO_InitStruct.Pin = GPIO_PIN_1;
 80026f0:	2302      	movs	r3, #2
 80026f2:	613b      	str	r3, [r7, #16]
  GPIO_InitStruct.Mode = GPIO_MODE_INPUT;
 80026f4:	2300      	movs	r3, #0
 80026f6:	617b      	str	r3, [r7, #20]
  GPIO_InitStruct.Pull = GPIO_PULLUP;
 80026f8:	2301      	movs	r3, #1
 80026fa:	61bb      	str	r3, [r7, #24]
  HAL_GPIO_Init(GPIOB, &GPIO_InitStruct);
 80026fc:	f107 0310 	add.w	r3, r7, #16
 8002700:	4619      	mov	r1, r3
 8002702:	4817      	ldr	r0, [pc, #92]	; (8002760 <MX_GPIO_Init+0x114>)
 8002704:	f001 fd8c 	bl	8004220 <HAL_GPIO_Init>

  /*Configure GPIO pins : PB2 PB13 PB14 PB15 */
  GPIO_InitStruct.Pin = GPIO_PIN_2|GPIO_PIN_13|GPIO_PIN_14|GPIO_PIN_15;
 8002708:	f24e 0304 	movw	r3, #57348	; 0xe004
 800270c:	613b      	str	r3, [r7, #16]
  GPIO_InitStruct.Mode = GPIO_MODE_OUTPUT_PP;
 800270e:	2301      	movs	r3, #1
 8002710:	617b      	str	r3, [r7, #20]
  GPIO_InitStruct.Pull = GPIO_NOPULL;
 8002712:	2300      	movs	r3, #0
 8002714:	61bb      	str	r3, [r7, #24]
  GPIO_InitStruct.Speed = GPIO_SPEED_FREQ_LOW;
 8002716:	2302      	movs	r3, #2
 8002718:	61fb      	str	r3, [r7, #28]
  HAL_GPIO_Init(GPIOB, &GPIO_InitStruct);
 800271a:	f107 0310 	add.w	r3, r7, #16
 800271e:	4619      	mov	r1, r3
 8002720:	480f      	ldr	r0, [pc, #60]	; (8002760 <MX_GPIO_Init+0x114>)
 8002722:	f001 fd7d 	bl	8004220 <HAL_GPIO_Init>

  /*Configure GPIO pins : PA8 PA9 */
  GPIO_InitStruct.Pin = GPIO_PIN_8|GPIO_PIN_9;
 8002726:	f44f 7340 	mov.w	r3, #768	; 0x300
 800272a:	613b      	str	r3, [r7, #16]
  GPIO_InitStruct.Mode = GPIO_MODE_OUTPUT_PP;
 800272c:	2301      	movs	r3, #1
 800272e:	617b      	str	r3, [r7, #20]
  GPIO_InitStruct.Pull = GPIO_NOPULL;
 8002730:	2300      	movs	r3, #0
 8002732:	61bb      	str	r3, [r7, #24]
  GPIO_InitStruct.Speed = GPIO_SPEED_FREQ_LOW;
 8002734:	2302      	movs	r3, #2
 8002736:	61fb      	str	r3, [r7, #28]
  HAL_GPIO_Init(GPIOA, &GPIO_InitStruct);
 8002738:	f107 0310 	add.w	r3, r7, #16
 800273c:	4619      	mov	r1, r3
 800273e:	4809      	ldr	r0, [pc, #36]	; (8002764 <MX_GPIO_Init+0x118>)
 8002740:	f001 fd6e 	bl	8004220 <HAL_GPIO_Init>

  /* EXTI interrupt init*/
  HAL_NVIC_SetPriority(EXTI0_IRQn, 1, 0);
 8002744:	2200      	movs	r2, #0
 8002746:	2101      	movs	r1, #1
 8002748:	2006      	movs	r0, #6
 800274a:	f001 face 	bl	8003cea <HAL_NVIC_SetPriority>
  HAL_NVIC_EnableIRQ(EXTI0_IRQn);
 800274e:	2006      	movs	r0, #6
 8002750:	f001 fae7 	bl	8003d22 <HAL_NVIC_EnableIRQ>

}
 8002754:	bf00      	nop
 8002756:	3720      	adds	r7, #32
 8002758:	46bd      	mov	sp, r7
 800275a:	bd80      	pop	{r7, pc}
 800275c:	40021000 	.word	0x40021000
 8002760:	40010c00 	.word	0x40010c00
 8002764:	40010800 	.word	0x40010800
 8002768:	10210000 	.word	0x10210000

0800276c <Error_Handler>:
/**
  * @brief  This function is executed in case of error occurrence.
  * @retval None
  */
void Error_Handler(void)
{
 800276c:	b480      	push	{r7}
 800276e:	af00      	add	r7, sp, #0
  \details Disables IRQ interrupts by setting the I-bit in the CPSR.
           Can only be executed in Privileged modes.
 */
__STATIC_FORCEINLINE void __disable_irq(void)
{
  __ASM volatile ("cpsid i" : : : "memory");
 8002770:	b672      	cpsid	i
}
 8002772:	bf00      	nop
  /* USER CODE BEGIN Error_Handler_Debug */
  /* User can add his own implementation to report the HAL error return state */
  __disable_irq();
  while (1)
 8002774:	e7fe      	b.n	8002774 <Error_Handler+0x8>
	...

08002778 <SSD1306_Init>:





uint8_t SSD1306_Init(void) {
 8002778:	b580      	push	{r7, lr}
 800277a:	b082      	sub	sp, #8
 800277c:	af00      	add	r7, sp, #0

	/* Init I2C */
	ssd1306_I2C_Init();
 800277e:	f000 fb21 	bl	8002dc4 <ssd1306_I2C_Init>
	
	/* Check if LCD connected to I2C */
	if (HAL_I2C_IsDeviceReady(&hi2c1, SSD1306_I2C_ADDR, 1, 20000) != HAL_OK) {
 8002782:	f644 6320 	movw	r3, #20000	; 0x4e20
 8002786:	2201      	movs	r2, #1
 8002788:	2178      	movs	r1, #120	; 0x78
 800278a:	485b      	ldr	r0, [pc, #364]	; (80028f8 <SSD1306_Init+0x180>)
 800278c:	f002 f956 	bl	8004a3c <HAL_I2C_IsDeviceReady>
 8002790:	4603      	mov	r3, r0
 8002792:	2b00      	cmp	r3, #0
 8002794:	d001      	beq.n	800279a <SSD1306_Init+0x22>
		/* Return false */
		return 0;
 8002796:	2300      	movs	r3, #0
 8002798:	e0a9      	b.n	80028ee <SSD1306_Init+0x176>
	}
	
	/* A little delay */
	uint32_t p = 2500;
 800279a:	f640 13c4 	movw	r3, #2500	; 0x9c4
 800279e:	607b      	str	r3, [r7, #4]
	while(p>0)
 80027a0:	e002      	b.n	80027a8 <SSD1306_Init+0x30>
		p--;
 80027a2:	687b      	ldr	r3, [r7, #4]
 80027a4:	3b01      	subs	r3, #1
 80027a6:	607b      	str	r3, [r7, #4]
	while(p>0)
 80027a8:	687b      	ldr	r3, [r7, #4]
 80027aa:	2b00      	cmp	r3, #0
 80027ac:	d1f9      	bne.n	80027a2 <SSD1306_Init+0x2a>
	
	/* Init LCD */
	SSD1306_WRITECOMMAND(0xAE); //display off
 80027ae:	22ae      	movs	r2, #174	; 0xae
 80027b0:	2100      	movs	r1, #0
 80027b2:	2078      	movs	r0, #120	; 0x78
 80027b4:	f000 fb62 	bl	8002e7c <ssd1306_I2C_Write>
	SSD1306_WRITECOMMAND(0x20); //Set Memory Addressing Mode   
 80027b8:	2220      	movs	r2, #32
 80027ba:	2100      	movs	r1, #0
 80027bc:	2078      	movs	r0, #120	; 0x78
 80027be:	f000 fb5d 	bl	8002e7c <ssd1306_I2C_Write>
	SSD1306_WRITECOMMAND(0x10); //00,Horizontal Addressing Mode;01,Vertical Addressing Mode;10,Page Addressing Mode (RESET);11,Invalid
 80027c2:	2210      	movs	r2, #16
 80027c4:	2100      	movs	r1, #0
 80027c6:	2078      	movs	r0, #120	; 0x78
 80027c8:	f000 fb58 	bl	8002e7c <ssd1306_I2C_Write>
	SSD1306_WRITECOMMAND(0xB0); //Set Page Start Address for Page Addressing Mode,0-7
 80027cc:	22b0      	movs	r2, #176	; 0xb0
 80027ce:	2100      	movs	r1, #0
 80027d0:	2078      	movs	r0, #120	; 0x78
 80027d2:	f000 fb53 	bl	8002e7c <ssd1306_I2C_Write>
	SSD1306_WRITECOMMAND(0xC8); //Set COM Output Scan Direction
 80027d6:	22c8      	movs	r2, #200	; 0xc8
 80027d8:	2100      	movs	r1, #0
 80027da:	2078      	movs	r0, #120	; 0x78
 80027dc:	f000 fb4e 	bl	8002e7c <ssd1306_I2C_Write>
	SSD1306_WRITECOMMAND(0x00); //---set low column address
 80027e0:	2200      	movs	r2, #0
 80027e2:	2100      	movs	r1, #0
 80027e4:	2078      	movs	r0, #120	; 0x78
 80027e6:	f000 fb49 	bl	8002e7c <ssd1306_I2C_Write>
	SSD1306_WRITECOMMAND(0x10); //---set high column address
 80027ea:	2210      	movs	r2, #16
 80027ec:	2100      	movs	r1, #0
 80027ee:	2078      	movs	r0, #120	; 0x78
 80027f0:	f000 fb44 	bl	8002e7c <ssd1306_I2C_Write>
	SSD1306_WRITECOMMAND(0x40); //--set start line address
 80027f4:	2240      	movs	r2, #64	; 0x40
 80027f6:	2100      	movs	r1, #0
 80027f8:	2078      	movs	r0, #120	; 0x78
 80027fa:	f000 fb3f 	bl	8002e7c <ssd1306_I2C_Write>
	SSD1306_WRITECOMMAND(0x81); //--set contrast control register
 80027fe:	2281      	movs	r2, #129	; 0x81
 8002800:	2100      	movs	r1, #0
 8002802:	2078      	movs	r0, #120	; 0x78
 8002804:	f000 fb3a 	bl	8002e7c <ssd1306_I2C_Write>
	SSD1306_WRITECOMMAND(0xFF);
 8002808:	22ff      	movs	r2, #255	; 0xff
 800280a:	2100      	movs	r1, #0
 800280c:	2078      	movs	r0, #120	; 0x78
 800280e:	f000 fb35 	bl	8002e7c <ssd1306_I2C_Write>
	SSD1306_WRITECOMMAND(0xA1); //--set segment re-map 0 to 127
 8002812:	22a1      	movs	r2, #161	; 0xa1
 8002814:	2100      	movs	r1, #0
 8002816:	2078      	movs	r0, #120	; 0x78
 8002818:	f000 fb30 	bl	8002e7c <ssd1306_I2C_Write>
	SSD1306_WRITECOMMAND(0xA6); //--set normal display
 800281c:	22a6      	movs	r2, #166	; 0xa6
 800281e:	2100      	movs	r1, #0
 8002820:	2078      	movs	r0, #120	; 0x78
 8002822:	f000 fb2b 	bl	8002e7c <ssd1306_I2C_Write>
	SSD1306_WRITECOMMAND(0xA8); //--set multiplex ratio(1 to 64)
 8002826:	22a8      	movs	r2, #168	; 0xa8
 8002828:	2100      	movs	r1, #0
 800282a:	2078      	movs	r0, #120	; 0x78
 800282c:	f000 fb26 	bl	8002e7c <ssd1306_I2C_Write>
	SSD1306_WRITECOMMAND(0x3F); //
 8002830:	223f      	movs	r2, #63	; 0x3f
 8002832:	2100      	movs	r1, #0
 8002834:	2078      	movs	r0, #120	; 0x78
 8002836:	f000 fb21 	bl	8002e7c <ssd1306_I2C_Write>
	SSD1306_WRITECOMMAND(0xA4); //0xa4,Output follows RAM content;0xa5,Output ignores RAM content
 800283a:	22a4      	movs	r2, #164	; 0xa4
 800283c:	2100      	movs	r1, #0
 800283e:	2078      	movs	r0, #120	; 0x78
 8002840:	f000 fb1c 	bl	8002e7c <ssd1306_I2C_Write>
	SSD1306_WRITECOMMAND(0xD3); //-set display offset
 8002844:	22d3      	movs	r2, #211	; 0xd3
 8002846:	2100      	movs	r1, #0
 8002848:	2078      	movs	r0, #120	; 0x78
 800284a:	f000 fb17 	bl	8002e7c <ssd1306_I2C_Write>
	SSD1306_WRITECOMMAND(0x00); //-not offset
 800284e:	2200      	movs	r2, #0
 8002850:	2100      	movs	r1, #0
 8002852:	2078      	movs	r0, #120	; 0x78
 8002854:	f000 fb12 	bl	8002e7c <ssd1306_I2C_Write>
	SSD1306_WRITECOMMAND(0xD5); //--set display clock divide ratio/oscillator frequency
 8002858:	22d5      	movs	r2, #213	; 0xd5
 800285a:	2100      	movs	r1, #0
 800285c:	2078      	movs	r0, #120	; 0x78
 800285e:	f000 fb0d 	bl	8002e7c <ssd1306_I2C_Write>
	SSD1306_WRITECOMMAND(0xF0); //--set divide ratio
 8002862:	22f0      	movs	r2, #240	; 0xf0
 8002864:	2100      	movs	r1, #0
 8002866:	2078      	movs	r0, #120	; 0x78
 8002868:	f000 fb08 	bl	8002e7c <ssd1306_I2C_Write>
	SSD1306_WRITECOMMAND(0xD9); //--set pre-charge period
 800286c:	22d9      	movs	r2, #217	; 0xd9
 800286e:	2100      	movs	r1, #0
 8002870:	2078      	movs	r0, #120	; 0x78
 8002872:	f000 fb03 	bl	8002e7c <ssd1306_I2C_Write>
	SSD1306_WRITECOMMAND(0x22); //
 8002876:	2222      	movs	r2, #34	; 0x22
 8002878:	2100      	movs	r1, #0
 800287a:	2078      	movs	r0, #120	; 0x78
 800287c:	f000 fafe 	bl	8002e7c <ssd1306_I2C_Write>
	SSD1306_WRITECOMMAND(0xDA); //--set com pins hardware configuration
 8002880:	22da      	movs	r2, #218	; 0xda
 8002882:	2100      	movs	r1, #0
 8002884:	2078      	movs	r0, #120	; 0x78
 8002886:	f000 faf9 	bl	8002e7c <ssd1306_I2C_Write>
	SSD1306_WRITECOMMAND(0x12);
 800288a:	2212      	movs	r2, #18
 800288c:	2100      	movs	r1, #0
 800288e:	2078      	movs	r0, #120	; 0x78
 8002890:	f000 faf4 	bl	8002e7c <ssd1306_I2C_Write>
	SSD1306_WRITECOMMAND(0xDB); //--set vcomh
 8002894:	22db      	movs	r2, #219	; 0xdb
 8002896:	2100      	movs	r1, #0
 8002898:	2078      	movs	r0, #120	; 0x78
 800289a:	f000 faef 	bl	8002e7c <ssd1306_I2C_Write>
	SSD1306_WRITECOMMAND(0x20); //0x20,0.77xVcc
 800289e:	2220      	movs	r2, #32
 80028a0:	2100      	movs	r1, #0
 80028a2:	2078      	movs	r0, #120	; 0x78
 80028a4:	f000 faea 	bl	8002e7c <ssd1306_I2C_Write>
	SSD1306_WRITECOMMAND(0x8D); //--set DC-DC enable
 80028a8:	228d      	movs	r2, #141	; 0x8d
 80028aa:	2100      	movs	r1, #0
 80028ac:	2078      	movs	r0, #120	; 0x78
 80028ae:	f000 fae5 	bl	8002e7c <ssd1306_I2C_Write>
	SSD1306_WRITECOMMAND(0x14); //
 80028b2:	2214      	movs	r2, #20
 80028b4:	2100      	movs	r1, #0
 80028b6:	2078      	movs	r0, #120	; 0x78
 80028b8:	f000 fae0 	bl	8002e7c <ssd1306_I2C_Write>
	SSD1306_WRITECOMMAND(0xAF); //--turn on SSD1306 panel
 80028bc:	22af      	movs	r2, #175	; 0xaf
 80028be:	2100      	movs	r1, #0
 80028c0:	2078      	movs	r0, #120	; 0x78
 80028c2:	f000 fadb 	bl	8002e7c <ssd1306_I2C_Write>
	

	SSD1306_WRITECOMMAND(SSD1306_DEACTIVATE_SCROLL);
 80028c6:	222e      	movs	r2, #46	; 0x2e
 80028c8:	2100      	movs	r1, #0
 80028ca:	2078      	movs	r0, #120	; 0x78
 80028cc:	f000 fad6 	bl	8002e7c <ssd1306_I2C_Write>

	/* Clear screen */
	SSD1306_Fill(SSD1306_COLOR_BLACK);
 80028d0:	2000      	movs	r0, #0
 80028d2:	f000 f843 	bl	800295c <SSD1306_Fill>
	
	/* Update screen */
	SSD1306_UpdateScreen();
 80028d6:	f000 f813 	bl	8002900 <SSD1306_UpdateScreen>
	
	/* Set default values */
	SSD1306.CurrentX = 0;
 80028da:	4b08      	ldr	r3, [pc, #32]	; (80028fc <SSD1306_Init+0x184>)
 80028dc:	2200      	movs	r2, #0
 80028de:	801a      	strh	r2, [r3, #0]
	SSD1306.CurrentY = 0;
 80028e0:	4b06      	ldr	r3, [pc, #24]	; (80028fc <SSD1306_Init+0x184>)
 80028e2:	2200      	movs	r2, #0
 80028e4:	805a      	strh	r2, [r3, #2]
	
	/* Initialized OK */
	SSD1306.Initialized = 1;
 80028e6:	4b05      	ldr	r3, [pc, #20]	; (80028fc <SSD1306_Init+0x184>)
 80028e8:	2201      	movs	r2, #1
 80028ea:	715a      	strb	r2, [r3, #5]
	
	/* Return OK */
	return 1;
 80028ec:	2301      	movs	r3, #1
}
 80028ee:	4618      	mov	r0, r3
 80028f0:	3708      	adds	r7, #8
 80028f2:	46bd      	mov	sp, r7
 80028f4:	bd80      	pop	{r7, pc}
 80028f6:	bf00      	nop
 80028f8:	200004d4 	.word	0x200004d4
 80028fc:	200004c8 	.word	0x200004c8

08002900 <SSD1306_UpdateScreen>:

void SSD1306_UpdateScreen(void) {
 8002900:	b580      	push	{r7, lr}
 8002902:	b082      	sub	sp, #8
 8002904:	af00      	add	r7, sp, #0
	uint8_t m;
	
	for (m = 0; m < 8; m++) {
 8002906:	2300      	movs	r3, #0
 8002908:	71fb      	strb	r3, [r7, #7]
 800290a:	e01d      	b.n	8002948 <SSD1306_UpdateScreen+0x48>
		SSD1306_WRITECOMMAND(0xB0 + m);
 800290c:	79fb      	ldrb	r3, [r7, #7]
 800290e:	3b50      	subs	r3, #80	; 0x50
 8002910:	b2db      	uxtb	r3, r3
 8002912:	461a      	mov	r2, r3
 8002914:	2100      	movs	r1, #0
 8002916:	2078      	movs	r0, #120	; 0x78
 8002918:	f000 fab0 	bl	8002e7c <ssd1306_I2C_Write>
		SSD1306_WRITECOMMAND(0x00);
 800291c:	2200      	movs	r2, #0
 800291e:	2100      	movs	r1, #0
 8002920:	2078      	movs	r0, #120	; 0x78
 8002922:	f000 faab 	bl	8002e7c <ssd1306_I2C_Write>
		SSD1306_WRITECOMMAND(0x10);
 8002926:	2210      	movs	r2, #16
 8002928:	2100      	movs	r1, #0
 800292a:	2078      	movs	r0, #120	; 0x78
 800292c:	f000 faa6 	bl	8002e7c <ssd1306_I2C_Write>
		
		/* Write multi data */
		ssd1306_I2C_WriteMulti(SSD1306_I2C_ADDR, 0x40, &SSD1306_Buffer[SSD1306_WIDTH * m], SSD1306_WIDTH);
 8002930:	79fb      	ldrb	r3, [r7, #7]
 8002932:	01db      	lsls	r3, r3, #7
 8002934:	4a08      	ldr	r2, [pc, #32]	; (8002958 <SSD1306_UpdateScreen+0x58>)
 8002936:	441a      	add	r2, r3
 8002938:	2380      	movs	r3, #128	; 0x80
 800293a:	2140      	movs	r1, #64	; 0x40
 800293c:	2078      	movs	r0, #120	; 0x78
 800293e:	f000 fa55 	bl	8002dec <ssd1306_I2C_WriteMulti>
	for (m = 0; m < 8; m++) {
 8002942:	79fb      	ldrb	r3, [r7, #7]
 8002944:	3301      	adds	r3, #1
 8002946:	71fb      	strb	r3, [r7, #7]
 8002948:	79fb      	ldrb	r3, [r7, #7]
 800294a:	2b07      	cmp	r3, #7
 800294c:	d9de      	bls.n	800290c <SSD1306_UpdateScreen+0xc>
	}
}
 800294e:	bf00      	nop
 8002950:	bf00      	nop
 8002952:	3708      	adds	r7, #8
 8002954:	46bd      	mov	sp, r7
 8002956:	bd80      	pop	{r7, pc}
 8002958:	200000c8 	.word	0x200000c8

0800295c <SSD1306_Fill>:
	for (i = 0; i < sizeof(SSD1306_Buffer); i++) {
		SSD1306_Buffer[i] = ~SSD1306_Buffer[i];
	}
}

void SSD1306_Fill(SSD1306_COLOR_t color) {
 800295c:	b580      	push	{r7, lr}
 800295e:	b082      	sub	sp, #8
 8002960:	af00      	add	r7, sp, #0
 8002962:	4603      	mov	r3, r0
 8002964:	71fb      	strb	r3, [r7, #7]
	/* Set memory */
	memset(SSD1306_Buffer, (color == SSD1306_COLOR_BLACK) ? 0x00 : 0xFF, sizeof(SSD1306_Buffer));
 8002966:	79fb      	ldrb	r3, [r7, #7]
 8002968:	2b00      	cmp	r3, #0
 800296a:	d101      	bne.n	8002970 <SSD1306_Fill+0x14>
 800296c:	2300      	movs	r3, #0
 800296e:	e000      	b.n	8002972 <SSD1306_Fill+0x16>
 8002970:	23ff      	movs	r3, #255	; 0xff
 8002972:	f44f 6280 	mov.w	r2, #1024	; 0x400
 8002976:	4619      	mov	r1, r3
 8002978:	4803      	ldr	r0, [pc, #12]	; (8002988 <SSD1306_Fill+0x2c>)
 800297a:	f003 ffcf 	bl	800691c <memset>
}
 800297e:	bf00      	nop
 8002980:	3708      	adds	r7, #8
 8002982:	46bd      	mov	sp, r7
 8002984:	bd80      	pop	{r7, pc}
 8002986:	bf00      	nop
 8002988:	200000c8 	.word	0x200000c8

0800298c <SSD1306_DrawPixel>:

void SSD1306_DrawPixel(uint16_t x, uint16_t y, SSD1306_COLOR_t color) {
 800298c:	b480      	push	{r7}
 800298e:	b083      	sub	sp, #12
 8002990:	af00      	add	r7, sp, #0
 8002992:	4603      	mov	r3, r0
 8002994:	80fb      	strh	r3, [r7, #6]
 8002996:	460b      	mov	r3, r1
 8002998:	80bb      	strh	r3, [r7, #4]
 800299a:	4613      	mov	r3, r2
 800299c:	70fb      	strb	r3, [r7, #3]
	if (
 800299e:	88fb      	ldrh	r3, [r7, #6]
 80029a0:	2b7f      	cmp	r3, #127	; 0x7f
 80029a2:	d848      	bhi.n	8002a36 <SSD1306_DrawPixel+0xaa>
		x >= SSD1306_WIDTH ||
 80029a4:	88bb      	ldrh	r3, [r7, #4]
 80029a6:	2b3f      	cmp	r3, #63	; 0x3f
 80029a8:	d845      	bhi.n	8002a36 <SSD1306_DrawPixel+0xaa>
		/* Error */
		return;
	}
	
	/* Check if pixels are inverted */
	if (SSD1306.Inverted) {
 80029aa:	4b25      	ldr	r3, [pc, #148]	; (8002a40 <SSD1306_DrawPixel+0xb4>)
 80029ac:	791b      	ldrb	r3, [r3, #4]
 80029ae:	2b00      	cmp	r3, #0
 80029b0:	d006      	beq.n	80029c0 <SSD1306_DrawPixel+0x34>
		color = (SSD1306_COLOR_t)!color;
 80029b2:	78fb      	ldrb	r3, [r7, #3]
 80029b4:	2b00      	cmp	r3, #0
 80029b6:	bf0c      	ite	eq
 80029b8:	2301      	moveq	r3, #1
 80029ba:	2300      	movne	r3, #0
 80029bc:	b2db      	uxtb	r3, r3
 80029be:	70fb      	strb	r3, [r7, #3]
	}
	
	/* Set color */
	if (color == SSD1306_COLOR_WHITE) {
 80029c0:	78fb      	ldrb	r3, [r7, #3]
 80029c2:	2b01      	cmp	r3, #1
 80029c4:	d11a      	bne.n	80029fc <SSD1306_DrawPixel+0x70>
		SSD1306_Buffer[x + (y / 8) * SSD1306_WIDTH] |= 1 << (y % 8);
 80029c6:	88fa      	ldrh	r2, [r7, #6]
 80029c8:	88bb      	ldrh	r3, [r7, #4]
 80029ca:	08db      	lsrs	r3, r3, #3
 80029cc:	b298      	uxth	r0, r3
 80029ce:	4603      	mov	r3, r0
 80029d0:	01db      	lsls	r3, r3, #7
 80029d2:	4413      	add	r3, r2
 80029d4:	4a1b      	ldr	r2, [pc, #108]	; (8002a44 <SSD1306_DrawPixel+0xb8>)
 80029d6:	5cd3      	ldrb	r3, [r2, r3]
 80029d8:	b25a      	sxtb	r2, r3
 80029da:	88bb      	ldrh	r3, [r7, #4]
 80029dc:	f003 0307 	and.w	r3, r3, #7
 80029e0:	2101      	movs	r1, #1
 80029e2:	fa01 f303 	lsl.w	r3, r1, r3
 80029e6:	b25b      	sxtb	r3, r3
 80029e8:	4313      	orrs	r3, r2
 80029ea:	b259      	sxtb	r1, r3
 80029ec:	88fa      	ldrh	r2, [r7, #6]
 80029ee:	4603      	mov	r3, r0
 80029f0:	01db      	lsls	r3, r3, #7
 80029f2:	4413      	add	r3, r2
 80029f4:	b2c9      	uxtb	r1, r1
 80029f6:	4a13      	ldr	r2, [pc, #76]	; (8002a44 <SSD1306_DrawPixel+0xb8>)
 80029f8:	54d1      	strb	r1, [r2, r3]
 80029fa:	e01d      	b.n	8002a38 <SSD1306_DrawPixel+0xac>
	} else {
		SSD1306_Buffer[x + (y / 8) * SSD1306_WIDTH] &= ~(1 << (y % 8));
 80029fc:	88fa      	ldrh	r2, [r7, #6]
 80029fe:	88bb      	ldrh	r3, [r7, #4]
 8002a00:	08db      	lsrs	r3, r3, #3
 8002a02:	b298      	uxth	r0, r3
 8002a04:	4603      	mov	r3, r0
 8002a06:	01db      	lsls	r3, r3, #7
 8002a08:	4413      	add	r3, r2
 8002a0a:	4a0e      	ldr	r2, [pc, #56]	; (8002a44 <SSD1306_DrawPixel+0xb8>)
 8002a0c:	5cd3      	ldrb	r3, [r2, r3]
 8002a0e:	b25a      	sxtb	r2, r3
 8002a10:	88bb      	ldrh	r3, [r7, #4]
 8002a12:	f003 0307 	and.w	r3, r3, #7
 8002a16:	2101      	movs	r1, #1
 8002a18:	fa01 f303 	lsl.w	r3, r1, r3
 8002a1c:	b25b      	sxtb	r3, r3
 8002a1e:	43db      	mvns	r3, r3
 8002a20:	b25b      	sxtb	r3, r3
 8002a22:	4013      	ands	r3, r2
 8002a24:	b259      	sxtb	r1, r3
 8002a26:	88fa      	ldrh	r2, [r7, #6]
 8002a28:	4603      	mov	r3, r0
 8002a2a:	01db      	lsls	r3, r3, #7
 8002a2c:	4413      	add	r3, r2
 8002a2e:	b2c9      	uxtb	r1, r1
 8002a30:	4a04      	ldr	r2, [pc, #16]	; (8002a44 <SSD1306_DrawPixel+0xb8>)
 8002a32:	54d1      	strb	r1, [r2, r3]
 8002a34:	e000      	b.n	8002a38 <SSD1306_DrawPixel+0xac>
		return;
 8002a36:	bf00      	nop
	}
}
 8002a38:	370c      	adds	r7, #12
 8002a3a:	46bd      	mov	sp, r7
 8002a3c:	bc80      	pop	{r7}
 8002a3e:	4770      	bx	lr
 8002a40:	200004c8 	.word	0x200004c8
 8002a44:	200000c8 	.word	0x200000c8

08002a48 <SSD1306_GotoXY>:

void SSD1306_GotoXY(uint16_t x, uint16_t y) {
 8002a48:	b480      	push	{r7}
 8002a4a:	b083      	sub	sp, #12
 8002a4c:	af00      	add	r7, sp, #0
 8002a4e:	4603      	mov	r3, r0
 8002a50:	460a      	mov	r2, r1
 8002a52:	80fb      	strh	r3, [r7, #6]
 8002a54:	4613      	mov	r3, r2
 8002a56:	80bb      	strh	r3, [r7, #4]
	/* Set write pointers */
	SSD1306.CurrentX = x;
 8002a58:	4a05      	ldr	r2, [pc, #20]	; (8002a70 <SSD1306_GotoXY+0x28>)
 8002a5a:	88fb      	ldrh	r3, [r7, #6]
 8002a5c:	8013      	strh	r3, [r2, #0]
	SSD1306.CurrentY = y;
 8002a5e:	4a04      	ldr	r2, [pc, #16]	; (8002a70 <SSD1306_GotoXY+0x28>)
 8002a60:	88bb      	ldrh	r3, [r7, #4]
 8002a62:	8053      	strh	r3, [r2, #2]
}
 8002a64:	bf00      	nop
 8002a66:	370c      	adds	r7, #12
 8002a68:	46bd      	mov	sp, r7
 8002a6a:	bc80      	pop	{r7}
 8002a6c:	4770      	bx	lr
 8002a6e:	bf00      	nop
 8002a70:	200004c8 	.word	0x200004c8

08002a74 <SSD1306_Putc>:

char SSD1306_Putc(char ch, FontDef_t* Font, SSD1306_COLOR_t color) {
 8002a74:	b580      	push	{r7, lr}
 8002a76:	b086      	sub	sp, #24
 8002a78:	af00      	add	r7, sp, #0
 8002a7a:	4603      	mov	r3, r0
 8002a7c:	6039      	str	r1, [r7, #0]
 8002a7e:	71fb      	strb	r3, [r7, #7]
 8002a80:	4613      	mov	r3, r2
 8002a82:	71bb      	strb	r3, [r7, #6]
	uint32_t i, b, j;
	
	/* Check available space in LCD */
	if (
		SSD1306_WIDTH <= (SSD1306.CurrentX + Font->FontWidth) ||
 8002a84:	4b3a      	ldr	r3, [pc, #232]	; (8002b70 <SSD1306_Putc+0xfc>)
 8002a86:	881b      	ldrh	r3, [r3, #0]
 8002a88:	461a      	mov	r2, r3
 8002a8a:	683b      	ldr	r3, [r7, #0]
 8002a8c:	781b      	ldrb	r3, [r3, #0]
 8002a8e:	4413      	add	r3, r2
	if (
 8002a90:	2b7f      	cmp	r3, #127	; 0x7f
 8002a92:	dc07      	bgt.n	8002aa4 <SSD1306_Putc+0x30>
		SSD1306_HEIGHT <= (SSD1306.CurrentY + Font->FontHeight)
 8002a94:	4b36      	ldr	r3, [pc, #216]	; (8002b70 <SSD1306_Putc+0xfc>)
 8002a96:	885b      	ldrh	r3, [r3, #2]
 8002a98:	461a      	mov	r2, r3
 8002a9a:	683b      	ldr	r3, [r7, #0]
 8002a9c:	785b      	ldrb	r3, [r3, #1]
 8002a9e:	4413      	add	r3, r2
		SSD1306_WIDTH <= (SSD1306.CurrentX + Font->FontWidth) ||
 8002aa0:	2b3f      	cmp	r3, #63	; 0x3f
 8002aa2:	dd01      	ble.n	8002aa8 <SSD1306_Putc+0x34>
	) {
		/* Error */
		return 0;
 8002aa4:	2300      	movs	r3, #0
 8002aa6:	e05e      	b.n	8002b66 <SSD1306_Putc+0xf2>
	}
	
	/* Go through font */
	for (i = 0; i < Font->FontHeight; i++) {
 8002aa8:	2300      	movs	r3, #0
 8002aaa:	617b      	str	r3, [r7, #20]
 8002aac:	e04b      	b.n	8002b46 <SSD1306_Putc+0xd2>
		b = Font->data[(ch - 32) * Font->FontHeight + i];
 8002aae:	683b      	ldr	r3, [r7, #0]
 8002ab0:	685a      	ldr	r2, [r3, #4]
 8002ab2:	79fb      	ldrb	r3, [r7, #7]
 8002ab4:	3b20      	subs	r3, #32
 8002ab6:	6839      	ldr	r1, [r7, #0]
 8002ab8:	7849      	ldrb	r1, [r1, #1]
 8002aba:	fb01 f303 	mul.w	r3, r1, r3
 8002abe:	4619      	mov	r1, r3
 8002ac0:	697b      	ldr	r3, [r7, #20]
 8002ac2:	440b      	add	r3, r1
 8002ac4:	005b      	lsls	r3, r3, #1
 8002ac6:	4413      	add	r3, r2
 8002ac8:	881b      	ldrh	r3, [r3, #0]
 8002aca:	60fb      	str	r3, [r7, #12]
		for (j = 0; j < Font->FontWidth; j++) {
 8002acc:	2300      	movs	r3, #0
 8002ace:	613b      	str	r3, [r7, #16]
 8002ad0:	e030      	b.n	8002b34 <SSD1306_Putc+0xc0>
			if ((b << j) & 0x8000) {
 8002ad2:	68fa      	ldr	r2, [r7, #12]
 8002ad4:	693b      	ldr	r3, [r7, #16]
 8002ad6:	fa02 f303 	lsl.w	r3, r2, r3
 8002ada:	f403 4300 	and.w	r3, r3, #32768	; 0x8000
 8002ade:	2b00      	cmp	r3, #0
 8002ae0:	d010      	beq.n	8002b04 <SSD1306_Putc+0x90>
				SSD1306_DrawPixel(SSD1306.CurrentX + j, (SSD1306.CurrentY + i), (SSD1306_COLOR_t) color);
 8002ae2:	4b23      	ldr	r3, [pc, #140]	; (8002b70 <SSD1306_Putc+0xfc>)
 8002ae4:	881a      	ldrh	r2, [r3, #0]
 8002ae6:	693b      	ldr	r3, [r7, #16]
 8002ae8:	b29b      	uxth	r3, r3
 8002aea:	4413      	add	r3, r2
 8002aec:	b298      	uxth	r0, r3
 8002aee:	4b20      	ldr	r3, [pc, #128]	; (8002b70 <SSD1306_Putc+0xfc>)
 8002af0:	885a      	ldrh	r2, [r3, #2]
 8002af2:	697b      	ldr	r3, [r7, #20]
 8002af4:	b29b      	uxth	r3, r3
 8002af6:	4413      	add	r3, r2
 8002af8:	b29b      	uxth	r3, r3
 8002afa:	79ba      	ldrb	r2, [r7, #6]
 8002afc:	4619      	mov	r1, r3
 8002afe:	f7ff ff45 	bl	800298c <SSD1306_DrawPixel>
 8002b02:	e014      	b.n	8002b2e <SSD1306_Putc+0xba>
			} else {
				SSD1306_DrawPixel(SSD1306.CurrentX + j, (SSD1306.CurrentY + i), (SSD1306_COLOR_t)!color);
 8002b04:	4b1a      	ldr	r3, [pc, #104]	; (8002b70 <SSD1306_Putc+0xfc>)
 8002b06:	881a      	ldrh	r2, [r3, #0]
 8002b08:	693b      	ldr	r3, [r7, #16]
 8002b0a:	b29b      	uxth	r3, r3
 8002b0c:	4413      	add	r3, r2
 8002b0e:	b298      	uxth	r0, r3
 8002b10:	4b17      	ldr	r3, [pc, #92]	; (8002b70 <SSD1306_Putc+0xfc>)
 8002b12:	885a      	ldrh	r2, [r3, #2]
 8002b14:	697b      	ldr	r3, [r7, #20]
 8002b16:	b29b      	uxth	r3, r3
 8002b18:	4413      	add	r3, r2
 8002b1a:	b299      	uxth	r1, r3
 8002b1c:	79bb      	ldrb	r3, [r7, #6]
 8002b1e:	2b00      	cmp	r3, #0
 8002b20:	bf0c      	ite	eq
 8002b22:	2301      	moveq	r3, #1
 8002b24:	2300      	movne	r3, #0
 8002b26:	b2db      	uxtb	r3, r3
 8002b28:	461a      	mov	r2, r3
 8002b2a:	f7ff ff2f 	bl	800298c <SSD1306_DrawPixel>
		for (j = 0; j < Font->FontWidth; j++) {
 8002b2e:	693b      	ldr	r3, [r7, #16]
 8002b30:	3301      	adds	r3, #1
 8002b32:	613b      	str	r3, [r7, #16]
 8002b34:	683b      	ldr	r3, [r7, #0]
 8002b36:	781b      	ldrb	r3, [r3, #0]
 8002b38:	461a      	mov	r2, r3
 8002b3a:	693b      	ldr	r3, [r7, #16]
 8002b3c:	4293      	cmp	r3, r2
 8002b3e:	d3c8      	bcc.n	8002ad2 <SSD1306_Putc+0x5e>
	for (i = 0; i < Font->FontHeight; i++) {
 8002b40:	697b      	ldr	r3, [r7, #20]
 8002b42:	3301      	adds	r3, #1
 8002b44:	617b      	str	r3, [r7, #20]
 8002b46:	683b      	ldr	r3, [r7, #0]
 8002b48:	785b      	ldrb	r3, [r3, #1]
 8002b4a:	461a      	mov	r2, r3
 8002b4c:	697b      	ldr	r3, [r7, #20]
 8002b4e:	4293      	cmp	r3, r2
 8002b50:	d3ad      	bcc.n	8002aae <SSD1306_Putc+0x3a>
			}
		}
	}
	
	/* Increase pointer */
	SSD1306.CurrentX += Font->FontWidth;
 8002b52:	4b07      	ldr	r3, [pc, #28]	; (8002b70 <SSD1306_Putc+0xfc>)
 8002b54:	881a      	ldrh	r2, [r3, #0]
 8002b56:	683b      	ldr	r3, [r7, #0]
 8002b58:	781b      	ldrb	r3, [r3, #0]
 8002b5a:	b29b      	uxth	r3, r3
 8002b5c:	4413      	add	r3, r2
 8002b5e:	b29a      	uxth	r2, r3
 8002b60:	4b03      	ldr	r3, [pc, #12]	; (8002b70 <SSD1306_Putc+0xfc>)
 8002b62:	801a      	strh	r2, [r3, #0]
	
	/* Return character written */
	return ch;
 8002b64:	79fb      	ldrb	r3, [r7, #7]
}
 8002b66:	4618      	mov	r0, r3
 8002b68:	3718      	adds	r7, #24
 8002b6a:	46bd      	mov	sp, r7
 8002b6c:	bd80      	pop	{r7, pc}
 8002b6e:	bf00      	nop
 8002b70:	200004c8 	.word	0x200004c8

08002b74 <SSD1306_Puts>:

char SSD1306_Puts(char* str, FontDef_t* Font, SSD1306_COLOR_t color) {
 8002b74:	b580      	push	{r7, lr}
 8002b76:	b084      	sub	sp, #16
 8002b78:	af00      	add	r7, sp, #0
 8002b7a:	60f8      	str	r0, [r7, #12]
 8002b7c:	60b9      	str	r1, [r7, #8]
 8002b7e:	4613      	mov	r3, r2
 8002b80:	71fb      	strb	r3, [r7, #7]
	/* Write characters */
	while (*str) {
 8002b82:	e012      	b.n	8002baa <SSD1306_Puts+0x36>
		/* Write character by character */
		if (SSD1306_Putc(*str, Font, color) != *str) {
 8002b84:	68fb      	ldr	r3, [r7, #12]
 8002b86:	781b      	ldrb	r3, [r3, #0]
 8002b88:	79fa      	ldrb	r2, [r7, #7]
 8002b8a:	68b9      	ldr	r1, [r7, #8]
 8002b8c:	4618      	mov	r0, r3
 8002b8e:	f7ff ff71 	bl	8002a74 <SSD1306_Putc>
 8002b92:	4603      	mov	r3, r0
 8002b94:	461a      	mov	r2, r3
 8002b96:	68fb      	ldr	r3, [r7, #12]
 8002b98:	781b      	ldrb	r3, [r3, #0]
 8002b9a:	429a      	cmp	r2, r3
 8002b9c:	d002      	beq.n	8002ba4 <SSD1306_Puts+0x30>
			/* Return error */
			return *str;
 8002b9e:	68fb      	ldr	r3, [r7, #12]
 8002ba0:	781b      	ldrb	r3, [r3, #0]
 8002ba2:	e008      	b.n	8002bb6 <SSD1306_Puts+0x42>
		}
		
		/* Increase string pointer */
		str++;
 8002ba4:	68fb      	ldr	r3, [r7, #12]
 8002ba6:	3301      	adds	r3, #1
 8002ba8:	60fb      	str	r3, [r7, #12]
	while (*str) {
 8002baa:	68fb      	ldr	r3, [r7, #12]
 8002bac:	781b      	ldrb	r3, [r3, #0]
 8002bae:	2b00      	cmp	r3, #0
 8002bb0:	d1e8      	bne.n	8002b84 <SSD1306_Puts+0x10>
	}
	
	/* Everything OK, zero should be returned */
	return *str;
 8002bb2:	68fb      	ldr	r3, [r7, #12]
 8002bb4:	781b      	ldrb	r3, [r3, #0]
}
 8002bb6:	4618      	mov	r0, r3
 8002bb8:	3710      	adds	r7, #16
 8002bba:	46bd      	mov	sp, r7
 8002bbc:	bd80      	pop	{r7, pc}

08002bbe <SSD1306_DrawLine>:
 

void SSD1306_DrawLine(uint16_t x0, uint16_t y0, uint16_t x1, uint16_t y1, SSD1306_COLOR_t c) {
 8002bbe:	b590      	push	{r4, r7, lr}
 8002bc0:	b087      	sub	sp, #28
 8002bc2:	af00      	add	r7, sp, #0
 8002bc4:	4604      	mov	r4, r0
 8002bc6:	4608      	mov	r0, r1
 8002bc8:	4611      	mov	r1, r2
 8002bca:	461a      	mov	r2, r3
 8002bcc:	4623      	mov	r3, r4
 8002bce:	80fb      	strh	r3, [r7, #6]
 8002bd0:	4603      	mov	r3, r0
 8002bd2:	80bb      	strh	r3, [r7, #4]
 8002bd4:	460b      	mov	r3, r1
 8002bd6:	807b      	strh	r3, [r7, #2]
 8002bd8:	4613      	mov	r3, r2
 8002bda:	803b      	strh	r3, [r7, #0]
	int16_t dx, dy, sx, sy, err, e2, i, tmp; 
	
	/* Check for overflow */
	if (x0 >= SSD1306_WIDTH) {
 8002bdc:	88fb      	ldrh	r3, [r7, #6]
 8002bde:	2b7f      	cmp	r3, #127	; 0x7f
 8002be0:	d901      	bls.n	8002be6 <SSD1306_DrawLine+0x28>
		x0 = SSD1306_WIDTH - 1;
 8002be2:	237f      	movs	r3, #127	; 0x7f
 8002be4:	80fb      	strh	r3, [r7, #6]
	}
	if (x1 >= SSD1306_WIDTH) {
 8002be6:	887b      	ldrh	r3, [r7, #2]
 8002be8:	2b7f      	cmp	r3, #127	; 0x7f
 8002bea:	d901      	bls.n	8002bf0 <SSD1306_DrawLine+0x32>
		x1 = SSD1306_WIDTH - 1;
 8002bec:	237f      	movs	r3, #127	; 0x7f
 8002bee:	807b      	strh	r3, [r7, #2]
	}
	if (y0 >= SSD1306_HEIGHT) {
 8002bf0:	88bb      	ldrh	r3, [r7, #4]
 8002bf2:	2b3f      	cmp	r3, #63	; 0x3f
 8002bf4:	d901      	bls.n	8002bfa <SSD1306_DrawLine+0x3c>
		y0 = SSD1306_HEIGHT - 1;
 8002bf6:	233f      	movs	r3, #63	; 0x3f
 8002bf8:	80bb      	strh	r3, [r7, #4]
	}
	if (y1 >= SSD1306_HEIGHT) {
 8002bfa:	883b      	ldrh	r3, [r7, #0]
 8002bfc:	2b3f      	cmp	r3, #63	; 0x3f
 8002bfe:	d901      	bls.n	8002c04 <SSD1306_DrawLine+0x46>
		y1 = SSD1306_HEIGHT - 1;
 8002c00:	233f      	movs	r3, #63	; 0x3f
 8002c02:	803b      	strh	r3, [r7, #0]
	}
	
	dx = (x0 < x1) ? (x1 - x0) : (x0 - x1); 
 8002c04:	88fa      	ldrh	r2, [r7, #6]
 8002c06:	887b      	ldrh	r3, [r7, #2]
 8002c08:	429a      	cmp	r2, r3
 8002c0a:	d205      	bcs.n	8002c18 <SSD1306_DrawLine+0x5a>
 8002c0c:	887a      	ldrh	r2, [r7, #2]
 8002c0e:	88fb      	ldrh	r3, [r7, #6]
 8002c10:	1ad3      	subs	r3, r2, r3
 8002c12:	b29b      	uxth	r3, r3
 8002c14:	b21b      	sxth	r3, r3
 8002c16:	e004      	b.n	8002c22 <SSD1306_DrawLine+0x64>
 8002c18:	88fa      	ldrh	r2, [r7, #6]
 8002c1a:	887b      	ldrh	r3, [r7, #2]
 8002c1c:	1ad3      	subs	r3, r2, r3
 8002c1e:	b29b      	uxth	r3, r3
 8002c20:	b21b      	sxth	r3, r3
 8002c22:	827b      	strh	r3, [r7, #18]
	dy = (y0 < y1) ? (y1 - y0) : (y0 - y1); 
 8002c24:	88ba      	ldrh	r2, [r7, #4]
 8002c26:	883b      	ldrh	r3, [r7, #0]
 8002c28:	429a      	cmp	r2, r3
 8002c2a:	d205      	bcs.n	8002c38 <SSD1306_DrawLine+0x7a>
 8002c2c:	883a      	ldrh	r2, [r7, #0]
 8002c2e:	88bb      	ldrh	r3, [r7, #4]
 8002c30:	1ad3      	subs	r3, r2, r3
 8002c32:	b29b      	uxth	r3, r3
 8002c34:	b21b      	sxth	r3, r3
 8002c36:	e004      	b.n	8002c42 <SSD1306_DrawLine+0x84>
 8002c38:	88ba      	ldrh	r2, [r7, #4]
 8002c3a:	883b      	ldrh	r3, [r7, #0]
 8002c3c:	1ad3      	subs	r3, r2, r3
 8002c3e:	b29b      	uxth	r3, r3
 8002c40:	b21b      	sxth	r3, r3
 8002c42:	823b      	strh	r3, [r7, #16]
	sx = (x0 < x1) ? 1 : -1; 
 8002c44:	88fa      	ldrh	r2, [r7, #6]
 8002c46:	887b      	ldrh	r3, [r7, #2]
 8002c48:	429a      	cmp	r2, r3
 8002c4a:	d201      	bcs.n	8002c50 <SSD1306_DrawLine+0x92>
 8002c4c:	2301      	movs	r3, #1
 8002c4e:	e001      	b.n	8002c54 <SSD1306_DrawLine+0x96>
 8002c50:	f04f 33ff 	mov.w	r3, #4294967295
 8002c54:	81fb      	strh	r3, [r7, #14]
	sy = (y0 < y1) ? 1 : -1; 
 8002c56:	88ba      	ldrh	r2, [r7, #4]
 8002c58:	883b      	ldrh	r3, [r7, #0]
 8002c5a:	429a      	cmp	r2, r3
 8002c5c:	d201      	bcs.n	8002c62 <SSD1306_DrawLine+0xa4>
 8002c5e:	2301      	movs	r3, #1
 8002c60:	e001      	b.n	8002c66 <SSD1306_DrawLine+0xa8>
 8002c62:	f04f 33ff 	mov.w	r3, #4294967295
 8002c66:	81bb      	strh	r3, [r7, #12]
	err = ((dx > dy) ? dx : -dy) / 2; 
 8002c68:	f9b7 2012 	ldrsh.w	r2, [r7, #18]
 8002c6c:	f9b7 3010 	ldrsh.w	r3, [r7, #16]
 8002c70:	429a      	cmp	r2, r3
 8002c72:	dd06      	ble.n	8002c82 <SSD1306_DrawLine+0xc4>
 8002c74:	f9b7 3012 	ldrsh.w	r3, [r7, #18]
 8002c78:	0fda      	lsrs	r2, r3, #31
 8002c7a:	4413      	add	r3, r2
 8002c7c:	105b      	asrs	r3, r3, #1
 8002c7e:	b21b      	sxth	r3, r3
 8002c80:	e006      	b.n	8002c90 <SSD1306_DrawLine+0xd2>
 8002c82:	f9b7 3010 	ldrsh.w	r3, [r7, #16]
 8002c86:	0fda      	lsrs	r2, r3, #31
 8002c88:	4413      	add	r3, r2
 8002c8a:	105b      	asrs	r3, r3, #1
 8002c8c:	425b      	negs	r3, r3
 8002c8e:	b21b      	sxth	r3, r3
 8002c90:	82fb      	strh	r3, [r7, #22]

	if (dx == 0) {
 8002c92:	f9b7 3012 	ldrsh.w	r3, [r7, #18]
 8002c96:	2b00      	cmp	r3, #0
 8002c98:	d129      	bne.n	8002cee <SSD1306_DrawLine+0x130>
		if (y1 < y0) {
 8002c9a:	883a      	ldrh	r2, [r7, #0]
 8002c9c:	88bb      	ldrh	r3, [r7, #4]
 8002c9e:	429a      	cmp	r2, r3
 8002ca0:	d205      	bcs.n	8002cae <SSD1306_DrawLine+0xf0>
			tmp = y1;
 8002ca2:	883b      	ldrh	r3, [r7, #0]
 8002ca4:	813b      	strh	r3, [r7, #8]
			y1 = y0;
 8002ca6:	88bb      	ldrh	r3, [r7, #4]
 8002ca8:	803b      	strh	r3, [r7, #0]
			y0 = tmp;
 8002caa:	893b      	ldrh	r3, [r7, #8]
 8002cac:	80bb      	strh	r3, [r7, #4]
		}
		
		if (x1 < x0) {
 8002cae:	887a      	ldrh	r2, [r7, #2]
 8002cb0:	88fb      	ldrh	r3, [r7, #6]
 8002cb2:	429a      	cmp	r2, r3
 8002cb4:	d205      	bcs.n	8002cc2 <SSD1306_DrawLine+0x104>
			tmp = x1;
 8002cb6:	887b      	ldrh	r3, [r7, #2]
 8002cb8:	813b      	strh	r3, [r7, #8]
			x1 = x0;
 8002cba:	88fb      	ldrh	r3, [r7, #6]
 8002cbc:	807b      	strh	r3, [r7, #2]
			x0 = tmp;
 8002cbe:	893b      	ldrh	r3, [r7, #8]
 8002cc0:	80fb      	strh	r3, [r7, #6]
		}
		
		/* Vertical line */
		for (i = y0; i <= y1; i++) {
 8002cc2:	88bb      	ldrh	r3, [r7, #4]
 8002cc4:	82bb      	strh	r3, [r7, #20]
 8002cc6:	e00c      	b.n	8002ce2 <SSD1306_DrawLine+0x124>
			SSD1306_DrawPixel(x0, i, c);
 8002cc8:	8ab9      	ldrh	r1, [r7, #20]
 8002cca:	f897 2028 	ldrb.w	r2, [r7, #40]	; 0x28
 8002cce:	88fb      	ldrh	r3, [r7, #6]
 8002cd0:	4618      	mov	r0, r3
 8002cd2:	f7ff fe5b 	bl	800298c <SSD1306_DrawPixel>
		for (i = y0; i <= y1; i++) {
 8002cd6:	f9b7 3014 	ldrsh.w	r3, [r7, #20]
 8002cda:	b29b      	uxth	r3, r3
 8002cdc:	3301      	adds	r3, #1
 8002cde:	b29b      	uxth	r3, r3
 8002ce0:	82bb      	strh	r3, [r7, #20]
 8002ce2:	f9b7 2014 	ldrsh.w	r2, [r7, #20]
 8002ce6:	883b      	ldrh	r3, [r7, #0]
 8002ce8:	429a      	cmp	r2, r3
 8002cea:	dded      	ble.n	8002cc8 <SSD1306_DrawLine+0x10a>
		}
		
		/* Return from function */
		return;
 8002cec:	e05f      	b.n	8002dae <SSD1306_DrawLine+0x1f0>
	}
	
	if (dy == 0) {
 8002cee:	f9b7 3010 	ldrsh.w	r3, [r7, #16]
 8002cf2:	2b00      	cmp	r3, #0
 8002cf4:	d129      	bne.n	8002d4a <SSD1306_DrawLine+0x18c>
		if (y1 < y0) {
 8002cf6:	883a      	ldrh	r2, [r7, #0]
 8002cf8:	88bb      	ldrh	r3, [r7, #4]
 8002cfa:	429a      	cmp	r2, r3
 8002cfc:	d205      	bcs.n	8002d0a <SSD1306_DrawLine+0x14c>
			tmp = y1;
 8002cfe:	883b      	ldrh	r3, [r7, #0]
 8002d00:	813b      	strh	r3, [r7, #8]
			y1 = y0;
 8002d02:	88bb      	ldrh	r3, [r7, #4]
 8002d04:	803b      	strh	r3, [r7, #0]
			y0 = tmp;
 8002d06:	893b      	ldrh	r3, [r7, #8]
 8002d08:	80bb      	strh	r3, [r7, #4]
		}
		
		if (x1 < x0) {
 8002d0a:	887a      	ldrh	r2, [r7, #2]
 8002d0c:	88fb      	ldrh	r3, [r7, #6]
 8002d0e:	429a      	cmp	r2, r3
 8002d10:	d205      	bcs.n	8002d1e <SSD1306_DrawLine+0x160>
			tmp = x1;
 8002d12:	887b      	ldrh	r3, [r7, #2]
 8002d14:	813b      	strh	r3, [r7, #8]
			x1 = x0;
 8002d16:	88fb      	ldrh	r3, [r7, #6]
 8002d18:	807b      	strh	r3, [r7, #2]
			x0 = tmp;
 8002d1a:	893b      	ldrh	r3, [r7, #8]
 8002d1c:	80fb      	strh	r3, [r7, #6]
		}
		
		/* Horizontal line */
		for (i = x0; i <= x1; i++) {
 8002d1e:	88fb      	ldrh	r3, [r7, #6]
 8002d20:	82bb      	strh	r3, [r7, #20]
 8002d22:	e00c      	b.n	8002d3e <SSD1306_DrawLine+0x180>
			SSD1306_DrawPixel(i, y0, c);
 8002d24:	8abb      	ldrh	r3, [r7, #20]
 8002d26:	f897 2028 	ldrb.w	r2, [r7, #40]	; 0x28
 8002d2a:	88b9      	ldrh	r1, [r7, #4]
 8002d2c:	4618      	mov	r0, r3
 8002d2e:	f7ff fe2d 	bl	800298c <SSD1306_DrawPixel>
		for (i = x0; i <= x1; i++) {
 8002d32:	f9b7 3014 	ldrsh.w	r3, [r7, #20]
 8002d36:	b29b      	uxth	r3, r3
 8002d38:	3301      	adds	r3, #1
 8002d3a:	b29b      	uxth	r3, r3
 8002d3c:	82bb      	strh	r3, [r7, #20]
 8002d3e:	f9b7 2014 	ldrsh.w	r2, [r7, #20]
 8002d42:	887b      	ldrh	r3, [r7, #2]
 8002d44:	429a      	cmp	r2, r3
 8002d46:	dded      	ble.n	8002d24 <SSD1306_DrawLine+0x166>
		}
		
		/* Return from function */
		return;
 8002d48:	e031      	b.n	8002dae <SSD1306_DrawLine+0x1f0>
	}
	
	while (1) {
		SSD1306_DrawPixel(x0, y0, c);
 8002d4a:	f897 2028 	ldrb.w	r2, [r7, #40]	; 0x28
 8002d4e:	88b9      	ldrh	r1, [r7, #4]
 8002d50:	88fb      	ldrh	r3, [r7, #6]
 8002d52:	4618      	mov	r0, r3
 8002d54:	f7ff fe1a 	bl	800298c <SSD1306_DrawPixel>
		if (x0 == x1 && y0 == y1) {
 8002d58:	88fa      	ldrh	r2, [r7, #6]
 8002d5a:	887b      	ldrh	r3, [r7, #2]
 8002d5c:	429a      	cmp	r2, r3
 8002d5e:	d103      	bne.n	8002d68 <SSD1306_DrawLine+0x1aa>
 8002d60:	88ba      	ldrh	r2, [r7, #4]
 8002d62:	883b      	ldrh	r3, [r7, #0]
 8002d64:	429a      	cmp	r2, r3
 8002d66:	d021      	beq.n	8002dac <SSD1306_DrawLine+0x1ee>
			break;
		}
		e2 = err; 
 8002d68:	8afb      	ldrh	r3, [r7, #22]
 8002d6a:	817b      	strh	r3, [r7, #10]
		if (e2 > -dx) {
 8002d6c:	f9b7 200a 	ldrsh.w	r2, [r7, #10]
 8002d70:	f9b7 3012 	ldrsh.w	r3, [r7, #18]
 8002d74:	425b      	negs	r3, r3
 8002d76:	429a      	cmp	r2, r3
 8002d78:	dd08      	ble.n	8002d8c <SSD1306_DrawLine+0x1ce>
			err -= dy;
 8002d7a:	8afa      	ldrh	r2, [r7, #22]
 8002d7c:	8a3b      	ldrh	r3, [r7, #16]
 8002d7e:	1ad3      	subs	r3, r2, r3
 8002d80:	b29b      	uxth	r3, r3
 8002d82:	82fb      	strh	r3, [r7, #22]
			x0 += sx;
 8002d84:	89fa      	ldrh	r2, [r7, #14]
 8002d86:	88fb      	ldrh	r3, [r7, #6]
 8002d88:	4413      	add	r3, r2
 8002d8a:	80fb      	strh	r3, [r7, #6]
		} 
		if (e2 < dy) {
 8002d8c:	f9b7 200a 	ldrsh.w	r2, [r7, #10]
 8002d90:	f9b7 3010 	ldrsh.w	r3, [r7, #16]
 8002d94:	429a      	cmp	r2, r3
 8002d96:	dad8      	bge.n	8002d4a <SSD1306_DrawLine+0x18c>
			err += dx;
 8002d98:	8afa      	ldrh	r2, [r7, #22]
 8002d9a:	8a7b      	ldrh	r3, [r7, #18]
 8002d9c:	4413      	add	r3, r2
 8002d9e:	b29b      	uxth	r3, r3
 8002da0:	82fb      	strh	r3, [r7, #22]
			y0 += sy;
 8002da2:	89ba      	ldrh	r2, [r7, #12]
 8002da4:	88bb      	ldrh	r3, [r7, #4]
 8002da6:	4413      	add	r3, r2
 8002da8:	80bb      	strh	r3, [r7, #4]
		SSD1306_DrawPixel(x0, y0, c);
 8002daa:	e7ce      	b.n	8002d4a <SSD1306_DrawLine+0x18c>
			break;
 8002dac:	bf00      	nop
		} 
	}
}
 8002dae:	371c      	adds	r7, #28
 8002db0:	46bd      	mov	sp, r7
 8002db2:	bd90      	pop	{r4, r7, pc}

08002db4 <SSD1306_Clear>:
}
 


void SSD1306_Clear (void)
{
 8002db4:	b580      	push	{r7, lr}
 8002db6:	af00      	add	r7, sp, #0
	SSD1306_Fill (0);
 8002db8:	2000      	movs	r0, #0
 8002dba:	f7ff fdcf 	bl	800295c <SSD1306_Fill>
}
 8002dbe:	bf00      	nop
 8002dc0:	bd80      	pop	{r7, pc}
	...

08002dc4 <ssd1306_I2C_Init>:
//  _| |_ / /_| |____ 
// |_____|____|\_____|
//
/////////////////////////////////////////////////////////////////////////////////////////////////////////

void ssd1306_I2C_Init() {
 8002dc4:	b480      	push	{r7}
 8002dc6:	b083      	sub	sp, #12
 8002dc8:	af00      	add	r7, sp, #0
	//MX_I2C1_Init();
	uint32_t p = 250000;
 8002dca:	4b07      	ldr	r3, [pc, #28]	; (8002de8 <ssd1306_I2C_Init+0x24>)
 8002dcc:	607b      	str	r3, [r7, #4]
	while(p>0)
 8002dce:	e002      	b.n	8002dd6 <ssd1306_I2C_Init+0x12>
		p--;
 8002dd0:	687b      	ldr	r3, [r7, #4]
 8002dd2:	3b01      	subs	r3, #1
 8002dd4:	607b      	str	r3, [r7, #4]
	while(p>0)
 8002dd6:	687b      	ldr	r3, [r7, #4]
 8002dd8:	2b00      	cmp	r3, #0
 8002dda:	d1f9      	bne.n	8002dd0 <ssd1306_I2C_Init+0xc>
	//HAL_I2C_DeInit(&hi2c1);
	//p = 250000;
	//while(p>0)
	//	p--;
	//MX_I2C1_Init();
}
 8002ddc:	bf00      	nop
 8002dde:	bf00      	nop
 8002de0:	370c      	adds	r7, #12
 8002de2:	46bd      	mov	sp, r7
 8002de4:	bc80      	pop	{r7}
 8002de6:	4770      	bx	lr
 8002de8:	0003d090 	.word	0x0003d090

08002dec <ssd1306_I2C_WriteMulti>:

void ssd1306_I2C_WriteMulti(uint8_t address, uint8_t reg, uint8_t* data, uint16_t count) {
 8002dec:	b590      	push	{r4, r7, lr}
 8002dee:	b0c7      	sub	sp, #284	; 0x11c
 8002df0:	af02      	add	r7, sp, #8
 8002df2:	4604      	mov	r4, r0
 8002df4:	4608      	mov	r0, r1
 8002df6:	4639      	mov	r1, r7
 8002df8:	600a      	str	r2, [r1, #0]
 8002dfa:	4619      	mov	r1, r3
 8002dfc:	1dfb      	adds	r3, r7, #7
 8002dfe:	4622      	mov	r2, r4
 8002e00:	701a      	strb	r2, [r3, #0]
 8002e02:	1dbb      	adds	r3, r7, #6
 8002e04:	4602      	mov	r2, r0
 8002e06:	701a      	strb	r2, [r3, #0]
 8002e08:	1d3b      	adds	r3, r7, #4
 8002e0a:	460a      	mov	r2, r1
 8002e0c:	801a      	strh	r2, [r3, #0]
uint8_t dt[256];
dt[0] = reg;
 8002e0e:	f107 030c 	add.w	r3, r7, #12
 8002e12:	1dba      	adds	r2, r7, #6
 8002e14:	7812      	ldrb	r2, [r2, #0]
 8002e16:	701a      	strb	r2, [r3, #0]
uint8_t i;
for(i = 0; i < count; i++)
 8002e18:	2300      	movs	r3, #0
 8002e1a:	f887 310f 	strb.w	r3, [r7, #271]	; 0x10f
 8002e1e:	e010      	b.n	8002e42 <ssd1306_I2C_WriteMulti+0x56>
dt[i+1] = data[i];
 8002e20:	f897 310f 	ldrb.w	r3, [r7, #271]	; 0x10f
 8002e24:	463a      	mov	r2, r7
 8002e26:	6812      	ldr	r2, [r2, #0]
 8002e28:	441a      	add	r2, r3
 8002e2a:	f897 310f 	ldrb.w	r3, [r7, #271]	; 0x10f
 8002e2e:	3301      	adds	r3, #1
 8002e30:	7811      	ldrb	r1, [r2, #0]
 8002e32:	f107 020c 	add.w	r2, r7, #12
 8002e36:	54d1      	strb	r1, [r2, r3]
for(i = 0; i < count; i++)
 8002e38:	f897 310f 	ldrb.w	r3, [r7, #271]	; 0x10f
 8002e3c:	3301      	adds	r3, #1
 8002e3e:	f887 310f 	strb.w	r3, [r7, #271]	; 0x10f
 8002e42:	f897 310f 	ldrb.w	r3, [r7, #271]	; 0x10f
 8002e46:	b29b      	uxth	r3, r3
 8002e48:	1d3a      	adds	r2, r7, #4
 8002e4a:	8812      	ldrh	r2, [r2, #0]
 8002e4c:	429a      	cmp	r2, r3
 8002e4e:	d8e7      	bhi.n	8002e20 <ssd1306_I2C_WriteMulti+0x34>
HAL_I2C_Master_Transmit(&hi2c1, address, dt, count+1, 10);
 8002e50:	1dfb      	adds	r3, r7, #7
 8002e52:	781b      	ldrb	r3, [r3, #0]
 8002e54:	b299      	uxth	r1, r3
 8002e56:	1d3b      	adds	r3, r7, #4
 8002e58:	881b      	ldrh	r3, [r3, #0]
 8002e5a:	3301      	adds	r3, #1
 8002e5c:	b29b      	uxth	r3, r3
 8002e5e:	f107 020c 	add.w	r2, r7, #12
 8002e62:	200a      	movs	r0, #10
 8002e64:	9000      	str	r0, [sp, #0]
 8002e66:	4804      	ldr	r0, [pc, #16]	; (8002e78 <ssd1306_I2C_WriteMulti+0x8c>)
 8002e68:	f001 fcea 	bl	8004840 <HAL_I2C_Master_Transmit>
}
 8002e6c:	bf00      	nop
 8002e6e:	f507 778a 	add.w	r7, r7, #276	; 0x114
 8002e72:	46bd      	mov	sp, r7
 8002e74:	bd90      	pop	{r4, r7, pc}
 8002e76:	bf00      	nop
 8002e78:	200004d4 	.word	0x200004d4

08002e7c <ssd1306_I2C_Write>:


void ssd1306_I2C_Write(uint8_t address, uint8_t reg, uint8_t data) {
 8002e7c:	b580      	push	{r7, lr}
 8002e7e:	b086      	sub	sp, #24
 8002e80:	af02      	add	r7, sp, #8
 8002e82:	4603      	mov	r3, r0
 8002e84:	71fb      	strb	r3, [r7, #7]
 8002e86:	460b      	mov	r3, r1
 8002e88:	71bb      	strb	r3, [r7, #6]
 8002e8a:	4613      	mov	r3, r2
 8002e8c:	717b      	strb	r3, [r7, #5]
	uint8_t dt[2];
	dt[0] = reg;
 8002e8e:	79bb      	ldrb	r3, [r7, #6]
 8002e90:	733b      	strb	r3, [r7, #12]
	dt[1] = data;
 8002e92:	797b      	ldrb	r3, [r7, #5]
 8002e94:	737b      	strb	r3, [r7, #13]
	HAL_I2C_Master_Transmit(&hi2c1, address, dt, 2, 10);
 8002e96:	79fb      	ldrb	r3, [r7, #7]
 8002e98:	b299      	uxth	r1, r3
 8002e9a:	f107 020c 	add.w	r2, r7, #12
 8002e9e:	230a      	movs	r3, #10
 8002ea0:	9300      	str	r3, [sp, #0]
 8002ea2:	2302      	movs	r3, #2
 8002ea4:	4803      	ldr	r0, [pc, #12]	; (8002eb4 <ssd1306_I2C_Write+0x38>)
 8002ea6:	f001 fccb 	bl	8004840 <HAL_I2C_Master_Transmit>
}
 8002eaa:	bf00      	nop
 8002eac:	3710      	adds	r7, #16
 8002eae:	46bd      	mov	sp, r7
 8002eb0:	bd80      	pop	{r7, pc}
 8002eb2:	bf00      	nop
 8002eb4:	200004d4 	.word	0x200004d4

08002eb8 <HAL_MspInit>:
void HAL_TIM_MspPostInit(TIM_HandleTypeDef *htim);
                    /**
  * Initializes the Global MSP.
  */
void HAL_MspInit(void)
{
 8002eb8:	b480      	push	{r7}
 8002eba:	b085      	sub	sp, #20
 8002ebc:	af00      	add	r7, sp, #0
  /* USER CODE BEGIN MspInit 0 */

  /* USER CODE END MspInit 0 */

  __HAL_RCC_AFIO_CLK_ENABLE();
 8002ebe:	4b15      	ldr	r3, [pc, #84]	; (8002f14 <HAL_MspInit+0x5c>)
 8002ec0:	699b      	ldr	r3, [r3, #24]
 8002ec2:	4a14      	ldr	r2, [pc, #80]	; (8002f14 <HAL_MspInit+0x5c>)
 8002ec4:	f043 0301 	orr.w	r3, r3, #1
 8002ec8:	6193      	str	r3, [r2, #24]
 8002eca:	4b12      	ldr	r3, [pc, #72]	; (8002f14 <HAL_MspInit+0x5c>)
 8002ecc:	699b      	ldr	r3, [r3, #24]
 8002ece:	f003 0301 	and.w	r3, r3, #1
 8002ed2:	60bb      	str	r3, [r7, #8]
 8002ed4:	68bb      	ldr	r3, [r7, #8]
  __HAL_RCC_PWR_CLK_ENABLE();
 8002ed6:	4b0f      	ldr	r3, [pc, #60]	; (8002f14 <HAL_MspInit+0x5c>)
 8002ed8:	69db      	ldr	r3, [r3, #28]
 8002eda:	4a0e      	ldr	r2, [pc, #56]	; (8002f14 <HAL_MspInit+0x5c>)
 8002edc:	f043 5380 	orr.w	r3, r3, #268435456	; 0x10000000
 8002ee0:	61d3      	str	r3, [r2, #28]
 8002ee2:	4b0c      	ldr	r3, [pc, #48]	; (8002f14 <HAL_MspInit+0x5c>)
 8002ee4:	69db      	ldr	r3, [r3, #28]
 8002ee6:	f003 5380 	and.w	r3, r3, #268435456	; 0x10000000
 8002eea:	607b      	str	r3, [r7, #4]
 8002eec:	687b      	ldr	r3, [r7, #4]

  /* System interrupt init*/

  /** DISABLE: JTAG-DP Disabled and SW-DP Disabled
  */
  __HAL_AFIO_REMAP_SWJ_DISABLE();
 8002eee:	4b0a      	ldr	r3, [pc, #40]	; (8002f18 <HAL_MspInit+0x60>)
 8002ef0:	685b      	ldr	r3, [r3, #4]
 8002ef2:	60fb      	str	r3, [r7, #12]
 8002ef4:	68fb      	ldr	r3, [r7, #12]
 8002ef6:	f023 63e0 	bic.w	r3, r3, #117440512	; 0x7000000
 8002efa:	60fb      	str	r3, [r7, #12]
 8002efc:	68fb      	ldr	r3, [r7, #12]
 8002efe:	f043 6380 	orr.w	r3, r3, #67108864	; 0x4000000
 8002f02:	60fb      	str	r3, [r7, #12]
 8002f04:	4a04      	ldr	r2, [pc, #16]	; (8002f18 <HAL_MspInit+0x60>)
 8002f06:	68fb      	ldr	r3, [r7, #12]
 8002f08:	6053      	str	r3, [r2, #4]

  /* USER CODE BEGIN MspInit 1 */

  /* USER CODE END MspInit 1 */
}
 8002f0a:	bf00      	nop
 8002f0c:	3714      	adds	r7, #20
 8002f0e:	46bd      	mov	sp, r7
 8002f10:	bc80      	pop	{r7}
 8002f12:	4770      	bx	lr
 8002f14:	40021000 	.word	0x40021000
 8002f18:	40010000 	.word	0x40010000

08002f1c <HAL_ADC_MspInit>:
* This function configures the hardware resources used in this example
* @param hadc: ADC handle pointer
* @retval None
*/
void HAL_ADC_MspInit(ADC_HandleTypeDef* hadc)
{
 8002f1c:	b580      	push	{r7, lr}
 8002f1e:	b088      	sub	sp, #32
 8002f20:	af00      	add	r7, sp, #0
 8002f22:	6078      	str	r0, [r7, #4]
  GPIO_InitTypeDef GPIO_InitStruct = {0};
 8002f24:	f107 0310 	add.w	r3, r7, #16
 8002f28:	2200      	movs	r2, #0
 8002f2a:	601a      	str	r2, [r3, #0]
 8002f2c:	605a      	str	r2, [r3, #4]
 8002f2e:	609a      	str	r2, [r3, #8]
 8002f30:	60da      	str	r2, [r3, #12]
  if(hadc->Instance==ADC1)
 8002f32:	687b      	ldr	r3, [r7, #4]
 8002f34:	681b      	ldr	r3, [r3, #0]
 8002f36:	4a28      	ldr	r2, [pc, #160]	; (8002fd8 <HAL_ADC_MspInit+0xbc>)
 8002f38:	4293      	cmp	r3, r2
 8002f3a:	d149      	bne.n	8002fd0 <HAL_ADC_MspInit+0xb4>
  {
  /* USER CODE BEGIN ADC1_MspInit 0 */

  /* USER CODE END ADC1_MspInit 0 */
    /* Peripheral clock enable */
    __HAL_RCC_ADC1_CLK_ENABLE();
 8002f3c:	4b27      	ldr	r3, [pc, #156]	; (8002fdc <HAL_ADC_MspInit+0xc0>)
 8002f3e:	699b      	ldr	r3, [r3, #24]
 8002f40:	4a26      	ldr	r2, [pc, #152]	; (8002fdc <HAL_ADC_MspInit+0xc0>)
 8002f42:	f443 7300 	orr.w	r3, r3, #512	; 0x200
 8002f46:	6193      	str	r3, [r2, #24]
 8002f48:	4b24      	ldr	r3, [pc, #144]	; (8002fdc <HAL_ADC_MspInit+0xc0>)
 8002f4a:	699b      	ldr	r3, [r3, #24]
 8002f4c:	f403 7300 	and.w	r3, r3, #512	; 0x200
 8002f50:	60fb      	str	r3, [r7, #12]
 8002f52:	68fb      	ldr	r3, [r7, #12]

    __HAL_RCC_GPIOA_CLK_ENABLE();
 8002f54:	4b21      	ldr	r3, [pc, #132]	; (8002fdc <HAL_ADC_MspInit+0xc0>)
 8002f56:	699b      	ldr	r3, [r3, #24]
 8002f58:	4a20      	ldr	r2, [pc, #128]	; (8002fdc <HAL_ADC_MspInit+0xc0>)
 8002f5a:	f043 0304 	orr.w	r3, r3, #4
 8002f5e:	6193      	str	r3, [r2, #24]
 8002f60:	4b1e      	ldr	r3, [pc, #120]	; (8002fdc <HAL_ADC_MspInit+0xc0>)
 8002f62:	699b      	ldr	r3, [r3, #24]
 8002f64:	f003 0304 	and.w	r3, r3, #4
 8002f68:	60bb      	str	r3, [r7, #8]
 8002f6a:	68bb      	ldr	r3, [r7, #8]
    PA0-WKUP     ------> ADC1_IN0
    PA1     ------> ADC1_IN1
    PA2     ------> ADC1_IN2
    PA3     ------> ADC1_IN3
    */
    GPIO_InitStruct.Pin = GPIO_PIN_0|GPIO_PIN_1|GPIO_PIN_2|GPIO_PIN_3;
 8002f6c:	230f      	movs	r3, #15
 8002f6e:	613b      	str	r3, [r7, #16]
    GPIO_InitStruct.Mode = GPIO_MODE_ANALOG;
 8002f70:	2303      	movs	r3, #3
 8002f72:	617b      	str	r3, [r7, #20]
    HAL_GPIO_Init(GPIOA, &GPIO_InitStruct);
 8002f74:	f107 0310 	add.w	r3, r7, #16
 8002f78:	4619      	mov	r1, r3
 8002f7a:	4819      	ldr	r0, [pc, #100]	; (8002fe0 <HAL_ADC_MspInit+0xc4>)
 8002f7c:	f001 f950 	bl	8004220 <HAL_GPIO_Init>

    /* ADC1 DMA Init */
    /* ADC1 Init */
    hdma_adc1.Instance = DMA1_Channel1;
 8002f80:	4b18      	ldr	r3, [pc, #96]	; (8002fe4 <HAL_ADC_MspInit+0xc8>)
 8002f82:	4a19      	ldr	r2, [pc, #100]	; (8002fe8 <HAL_ADC_MspInit+0xcc>)
 8002f84:	601a      	str	r2, [r3, #0]
    hdma_adc1.Init.Direction = DMA_PERIPH_TO_MEMORY;
 8002f86:	4b17      	ldr	r3, [pc, #92]	; (8002fe4 <HAL_ADC_MspInit+0xc8>)
 8002f88:	2200      	movs	r2, #0
 8002f8a:	605a      	str	r2, [r3, #4]
    hdma_adc1.Init.PeriphInc = DMA_PINC_DISABLE;
 8002f8c:	4b15      	ldr	r3, [pc, #84]	; (8002fe4 <HAL_ADC_MspInit+0xc8>)
 8002f8e:	2200      	movs	r2, #0
 8002f90:	609a      	str	r2, [r3, #8]
    hdma_adc1.Init.MemInc = DMA_MINC_ENABLE;
 8002f92:	4b14      	ldr	r3, [pc, #80]	; (8002fe4 <HAL_ADC_MspInit+0xc8>)
 8002f94:	2280      	movs	r2, #128	; 0x80
 8002f96:	60da      	str	r2, [r3, #12]
    hdma_adc1.Init.PeriphDataAlignment = DMA_PDATAALIGN_WORD;
 8002f98:	4b12      	ldr	r3, [pc, #72]	; (8002fe4 <HAL_ADC_MspInit+0xc8>)
 8002f9a:	f44f 7200 	mov.w	r2, #512	; 0x200
 8002f9e:	611a      	str	r2, [r3, #16]
    hdma_adc1.Init.MemDataAlignment = DMA_MDATAALIGN_WORD;
 8002fa0:	4b10      	ldr	r3, [pc, #64]	; (8002fe4 <HAL_ADC_MspInit+0xc8>)
 8002fa2:	f44f 6200 	mov.w	r2, #2048	; 0x800
 8002fa6:	615a      	str	r2, [r3, #20]
    hdma_adc1.Init.Mode = DMA_CIRCULAR;
 8002fa8:	4b0e      	ldr	r3, [pc, #56]	; (8002fe4 <HAL_ADC_MspInit+0xc8>)
 8002faa:	2220      	movs	r2, #32
 8002fac:	619a      	str	r2, [r3, #24]
    hdma_adc1.Init.Priority = DMA_PRIORITY_LOW;
 8002fae:	4b0d      	ldr	r3, [pc, #52]	; (8002fe4 <HAL_ADC_MspInit+0xc8>)
 8002fb0:	2200      	movs	r2, #0
 8002fb2:	61da      	str	r2, [r3, #28]
    if (HAL_DMA_Init(&hdma_adc1) != HAL_OK)
 8002fb4:	480b      	ldr	r0, [pc, #44]	; (8002fe4 <HAL_ADC_MspInit+0xc8>)
 8002fb6:	f000 fecf 	bl	8003d58 <HAL_DMA_Init>
 8002fba:	4603      	mov	r3, r0
 8002fbc:	2b00      	cmp	r3, #0
 8002fbe:	d001      	beq.n	8002fc4 <HAL_ADC_MspInit+0xa8>
    {
      Error_Handler();
 8002fc0:	f7ff fbd4 	bl	800276c <Error_Handler>
    }

    __HAL_LINKDMA(hadc,DMA_Handle,hdma_adc1);
 8002fc4:	687b      	ldr	r3, [r7, #4]
 8002fc6:	4a07      	ldr	r2, [pc, #28]	; (8002fe4 <HAL_ADC_MspInit+0xc8>)
 8002fc8:	621a      	str	r2, [r3, #32]
 8002fca:	4a06      	ldr	r2, [pc, #24]	; (8002fe4 <HAL_ADC_MspInit+0xc8>)
 8002fcc:	687b      	ldr	r3, [r7, #4]
 8002fce:	6253      	str	r3, [r2, #36]	; 0x24
  /* USER CODE BEGIN ADC1_MspInit 1 */

  /* USER CODE END ADC1_MspInit 1 */
  }

}
 8002fd0:	bf00      	nop
 8002fd2:	3720      	adds	r7, #32
 8002fd4:	46bd      	mov	sp, r7
 8002fd6:	bd80      	pop	{r7, pc}
 8002fd8:	40012400 	.word	0x40012400
 8002fdc:	40021000 	.word	0x40021000
 8002fe0:	40010800 	.word	0x40010800
 8002fe4:	200005c4 	.word	0x200005c4
 8002fe8:	40020008 	.word	0x40020008

08002fec <HAL_I2C_MspInit>:
* This function configures the hardware resources used in this example
* @param hi2c: I2C handle pointer
* @retval None
*/
void HAL_I2C_MspInit(I2C_HandleTypeDef* hi2c)
{
 8002fec:	b580      	push	{r7, lr}
 8002fee:	b08a      	sub	sp, #40	; 0x28
 8002ff0:	af00      	add	r7, sp, #0
 8002ff2:	6078      	str	r0, [r7, #4]
  GPIO_InitTypeDef GPIO_InitStruct = {0};
 8002ff4:	f107 0318 	add.w	r3, r7, #24
 8002ff8:	2200      	movs	r2, #0
 8002ffa:	601a      	str	r2, [r3, #0]
 8002ffc:	605a      	str	r2, [r3, #4]
 8002ffe:	609a      	str	r2, [r3, #8]
 8003000:	60da      	str	r2, [r3, #12]
  if(hi2c->Instance==I2C1)
 8003002:	687b      	ldr	r3, [r7, #4]
 8003004:	681b      	ldr	r3, [r3, #0]
 8003006:	4a33      	ldr	r2, [pc, #204]	; (80030d4 <HAL_I2C_MspInit+0xe8>)
 8003008:	4293      	cmp	r3, r2
 800300a:	d12c      	bne.n	8003066 <HAL_I2C_MspInit+0x7a>
  {
  /* USER CODE BEGIN I2C1_MspInit 0 */

  /* USER CODE END I2C1_MspInit 0 */

    __HAL_RCC_GPIOB_CLK_ENABLE();
 800300c:	4b32      	ldr	r3, [pc, #200]	; (80030d8 <HAL_I2C_MspInit+0xec>)
 800300e:	699b      	ldr	r3, [r3, #24]
 8003010:	4a31      	ldr	r2, [pc, #196]	; (80030d8 <HAL_I2C_MspInit+0xec>)
 8003012:	f043 0308 	orr.w	r3, r3, #8
 8003016:	6193      	str	r3, [r2, #24]
 8003018:	4b2f      	ldr	r3, [pc, #188]	; (80030d8 <HAL_I2C_MspInit+0xec>)
 800301a:	699b      	ldr	r3, [r3, #24]
 800301c:	f003 0308 	and.w	r3, r3, #8
 8003020:	617b      	str	r3, [r7, #20]
 8003022:	697b      	ldr	r3, [r7, #20]
    /**I2C1 GPIO Configuration
    PB6     ------> I2C1_SCL
    PB7     ------> I2C1_SDA
    */
    GPIO_InitStruct.Pin = GPIO_PIN_6|GPIO_PIN_7;
 8003024:	23c0      	movs	r3, #192	; 0xc0
 8003026:	61bb      	str	r3, [r7, #24]
    GPIO_InitStruct.Mode = GPIO_MODE_AF_OD;
 8003028:	2312      	movs	r3, #18
 800302a:	61fb      	str	r3, [r7, #28]
    GPIO_InitStruct.Speed = GPIO_SPEED_FREQ_HIGH;
 800302c:	2303      	movs	r3, #3
 800302e:	627b      	str	r3, [r7, #36]	; 0x24
    HAL_GPIO_Init(GPIOB, &GPIO_InitStruct);
 8003030:	f107 0318 	add.w	r3, r7, #24
 8003034:	4619      	mov	r1, r3
 8003036:	4829      	ldr	r0, [pc, #164]	; (80030dc <HAL_I2C_MspInit+0xf0>)
 8003038:	f001 f8f2 	bl	8004220 <HAL_GPIO_Init>

    /* Peripheral clock enable */
    __HAL_RCC_I2C1_CLK_ENABLE();
 800303c:	4b26      	ldr	r3, [pc, #152]	; (80030d8 <HAL_I2C_MspInit+0xec>)
 800303e:	69db      	ldr	r3, [r3, #28]
 8003040:	4a25      	ldr	r2, [pc, #148]	; (80030d8 <HAL_I2C_MspInit+0xec>)
 8003042:	f443 1300 	orr.w	r3, r3, #2097152	; 0x200000
 8003046:	61d3      	str	r3, [r2, #28]
 8003048:	4b23      	ldr	r3, [pc, #140]	; (80030d8 <HAL_I2C_MspInit+0xec>)
 800304a:	69db      	ldr	r3, [r3, #28]
 800304c:	f403 1300 	and.w	r3, r3, #2097152	; 0x200000
 8003050:	613b      	str	r3, [r7, #16]
 8003052:	693b      	ldr	r3, [r7, #16]
    /* I2C1 interrupt Init */
    HAL_NVIC_SetPriority(I2C1_ER_IRQn, 0, 0);
 8003054:	2200      	movs	r2, #0
 8003056:	2100      	movs	r1, #0
 8003058:	2020      	movs	r0, #32
 800305a:	f000 fe46 	bl	8003cea <HAL_NVIC_SetPriority>
    HAL_NVIC_EnableIRQ(I2C1_ER_IRQn);
 800305e:	2020      	movs	r0, #32
 8003060:	f000 fe5f 	bl	8003d22 <HAL_NVIC_EnableIRQ>
  /* USER CODE BEGIN I2C2_MspInit 1 */

  /* USER CODE END I2C2_MspInit 1 */
  }

}
 8003064:	e031      	b.n	80030ca <HAL_I2C_MspInit+0xde>
  else if(hi2c->Instance==I2C2)
 8003066:	687b      	ldr	r3, [r7, #4]
 8003068:	681b      	ldr	r3, [r3, #0]
 800306a:	4a1d      	ldr	r2, [pc, #116]	; (80030e0 <HAL_I2C_MspInit+0xf4>)
 800306c:	4293      	cmp	r3, r2
 800306e:	d12c      	bne.n	80030ca <HAL_I2C_MspInit+0xde>
    __HAL_RCC_GPIOB_CLK_ENABLE();
 8003070:	4b19      	ldr	r3, [pc, #100]	; (80030d8 <HAL_I2C_MspInit+0xec>)
 8003072:	699b      	ldr	r3, [r3, #24]
 8003074:	4a18      	ldr	r2, [pc, #96]	; (80030d8 <HAL_I2C_MspInit+0xec>)
 8003076:	f043 0308 	orr.w	r3, r3, #8
 800307a:	6193      	str	r3, [r2, #24]
 800307c:	4b16      	ldr	r3, [pc, #88]	; (80030d8 <HAL_I2C_MspInit+0xec>)
 800307e:	699b      	ldr	r3, [r3, #24]
 8003080:	f003 0308 	and.w	r3, r3, #8
 8003084:	60fb      	str	r3, [r7, #12]
 8003086:	68fb      	ldr	r3, [r7, #12]
    GPIO_InitStruct.Pin = GPIO_PIN_10|GPIO_PIN_11;
 8003088:	f44f 6340 	mov.w	r3, #3072	; 0xc00
 800308c:	61bb      	str	r3, [r7, #24]
    GPIO_InitStruct.Mode = GPIO_MODE_AF_OD;
 800308e:	2312      	movs	r3, #18
 8003090:	61fb      	str	r3, [r7, #28]
    GPIO_InitStruct.Speed = GPIO_SPEED_FREQ_HIGH;
 8003092:	2303      	movs	r3, #3
 8003094:	627b      	str	r3, [r7, #36]	; 0x24
    HAL_GPIO_Init(GPIOB, &GPIO_InitStruct);
 8003096:	f107 0318 	add.w	r3, r7, #24
 800309a:	4619      	mov	r1, r3
 800309c:	480f      	ldr	r0, [pc, #60]	; (80030dc <HAL_I2C_MspInit+0xf0>)
 800309e:	f001 f8bf 	bl	8004220 <HAL_GPIO_Init>
    __HAL_RCC_I2C2_CLK_ENABLE();
 80030a2:	4b0d      	ldr	r3, [pc, #52]	; (80030d8 <HAL_I2C_MspInit+0xec>)
 80030a4:	69db      	ldr	r3, [r3, #28]
 80030a6:	4a0c      	ldr	r2, [pc, #48]	; (80030d8 <HAL_I2C_MspInit+0xec>)
 80030a8:	f443 0380 	orr.w	r3, r3, #4194304	; 0x400000
 80030ac:	61d3      	str	r3, [r2, #28]
 80030ae:	4b0a      	ldr	r3, [pc, #40]	; (80030d8 <HAL_I2C_MspInit+0xec>)
 80030b0:	69db      	ldr	r3, [r3, #28]
 80030b2:	f403 0380 	and.w	r3, r3, #4194304	; 0x400000
 80030b6:	60bb      	str	r3, [r7, #8]
 80030b8:	68bb      	ldr	r3, [r7, #8]
    HAL_NVIC_SetPriority(I2C2_ER_IRQn, 0, 0);
 80030ba:	2200      	movs	r2, #0
 80030bc:	2100      	movs	r1, #0
 80030be:	2022      	movs	r0, #34	; 0x22
 80030c0:	f000 fe13 	bl	8003cea <HAL_NVIC_SetPriority>
    HAL_NVIC_EnableIRQ(I2C2_ER_IRQn);
 80030c4:	2022      	movs	r0, #34	; 0x22
 80030c6:	f000 fe2c 	bl	8003d22 <HAL_NVIC_EnableIRQ>
}
 80030ca:	bf00      	nop
 80030cc:	3728      	adds	r7, #40	; 0x28
 80030ce:	46bd      	mov	sp, r7
 80030d0:	bd80      	pop	{r7, pc}
 80030d2:	bf00      	nop
 80030d4:	40005400 	.word	0x40005400
 80030d8:	40021000 	.word	0x40021000
 80030dc:	40010c00 	.word	0x40010c00
 80030e0:	40005800 	.word	0x40005800

080030e4 <HAL_TIM_PWM_MspInit>:
* This function configures the hardware resources used in this example
* @param htim_pwm: TIM_PWM handle pointer
* @retval None
*/
void HAL_TIM_PWM_MspInit(TIM_HandleTypeDef* htim_pwm)
{
 80030e4:	b480      	push	{r7}
 80030e6:	b085      	sub	sp, #20
 80030e8:	af00      	add	r7, sp, #0
 80030ea:	6078      	str	r0, [r7, #4]
  if(htim_pwm->Instance==TIM2)
 80030ec:	687b      	ldr	r3, [r7, #4]
 80030ee:	681b      	ldr	r3, [r3, #0]
 80030f0:	f1b3 4f80 	cmp.w	r3, #1073741824	; 0x40000000
 80030f4:	d10b      	bne.n	800310e <HAL_TIM_PWM_MspInit+0x2a>
  {
  /* USER CODE BEGIN TIM2_MspInit 0 */

  /* USER CODE END TIM2_MspInit 0 */
    /* Peripheral clock enable */
    __HAL_RCC_TIM2_CLK_ENABLE();
 80030f6:	4b08      	ldr	r3, [pc, #32]	; (8003118 <HAL_TIM_PWM_MspInit+0x34>)
 80030f8:	69db      	ldr	r3, [r3, #28]
 80030fa:	4a07      	ldr	r2, [pc, #28]	; (8003118 <HAL_TIM_PWM_MspInit+0x34>)
 80030fc:	f043 0301 	orr.w	r3, r3, #1
 8003100:	61d3      	str	r3, [r2, #28]
 8003102:	4b05      	ldr	r3, [pc, #20]	; (8003118 <HAL_TIM_PWM_MspInit+0x34>)
 8003104:	69db      	ldr	r3, [r3, #28]
 8003106:	f003 0301 	and.w	r3, r3, #1
 800310a:	60fb      	str	r3, [r7, #12]
 800310c:	68fb      	ldr	r3, [r7, #12]
  /* USER CODE BEGIN TIM2_MspInit 1 */

  /* USER CODE END TIM2_MspInit 1 */
  }

}
 800310e:	bf00      	nop
 8003110:	3714      	adds	r7, #20
 8003112:	46bd      	mov	sp, r7
 8003114:	bc80      	pop	{r7}
 8003116:	4770      	bx	lr
 8003118:	40021000 	.word	0x40021000

0800311c <HAL_TIM_MspPostInit>:

void HAL_TIM_MspPostInit(TIM_HandleTypeDef* htim)
{
 800311c:	b580      	push	{r7, lr}
 800311e:	b088      	sub	sp, #32
 8003120:	af00      	add	r7, sp, #0
 8003122:	6078      	str	r0, [r7, #4]
  GPIO_InitTypeDef GPIO_InitStruct = {0};
 8003124:	f107 030c 	add.w	r3, r7, #12
 8003128:	2200      	movs	r2, #0
 800312a:	601a      	str	r2, [r3, #0]
 800312c:	605a      	str	r2, [r3, #4]
 800312e:	609a      	str	r2, [r3, #8]
 8003130:	60da      	str	r2, [r3, #12]
  if(htim->Instance==TIM2)
 8003132:	687b      	ldr	r3, [r7, #4]
 8003134:	681b      	ldr	r3, [r3, #0]
 8003136:	f1b3 4f80 	cmp.w	r3, #1073741824	; 0x40000000
 800313a:	d12a      	bne.n	8003192 <HAL_TIM_MspPostInit+0x76>
  {
  /* USER CODE BEGIN TIM2_MspPostInit 0 */

  /* USER CODE END TIM2_MspPostInit 0 */

    __HAL_RCC_GPIOA_CLK_ENABLE();
 800313c:	4b17      	ldr	r3, [pc, #92]	; (800319c <HAL_TIM_MspPostInit+0x80>)
 800313e:	699b      	ldr	r3, [r3, #24]
 8003140:	4a16      	ldr	r2, [pc, #88]	; (800319c <HAL_TIM_MspPostInit+0x80>)
 8003142:	f043 0304 	orr.w	r3, r3, #4
 8003146:	6193      	str	r3, [r2, #24]
 8003148:	4b14      	ldr	r3, [pc, #80]	; (800319c <HAL_TIM_MspPostInit+0x80>)
 800314a:	699b      	ldr	r3, [r3, #24]
 800314c:	f003 0304 	and.w	r3, r3, #4
 8003150:	60bb      	str	r3, [r7, #8]
 8003152:	68bb      	ldr	r3, [r7, #8]
    /**TIM2 GPIO Configuration
    PA15     ------> TIM2_CH1
    */
    GPIO_InitStruct.Pin = GPIO_PIN_15;
 8003154:	f44f 4300 	mov.w	r3, #32768	; 0x8000
 8003158:	60fb      	str	r3, [r7, #12]
    GPIO_InitStruct.Mode = GPIO_MODE_AF_PP;
 800315a:	2302      	movs	r3, #2
 800315c:	613b      	str	r3, [r7, #16]
    GPIO_InitStruct.Speed = GPIO_SPEED_FREQ_LOW;
 800315e:	2302      	movs	r3, #2
 8003160:	61bb      	str	r3, [r7, #24]
    HAL_GPIO_Init(GPIOA, &GPIO_InitStruct);
 8003162:	f107 030c 	add.w	r3, r7, #12
 8003166:	4619      	mov	r1, r3
 8003168:	480d      	ldr	r0, [pc, #52]	; (80031a0 <HAL_TIM_MspPostInit+0x84>)
 800316a:	f001 f859 	bl	8004220 <HAL_GPIO_Init>

    __HAL_AFIO_REMAP_TIM2_PARTIAL_1();
 800316e:	4b0d      	ldr	r3, [pc, #52]	; (80031a4 <HAL_TIM_MspPostInit+0x88>)
 8003170:	685b      	ldr	r3, [r3, #4]
 8003172:	61fb      	str	r3, [r7, #28]
 8003174:	69fb      	ldr	r3, [r7, #28]
 8003176:	f423 7340 	bic.w	r3, r3, #768	; 0x300
 800317a:	61fb      	str	r3, [r7, #28]
 800317c:	69fb      	ldr	r3, [r7, #28]
 800317e:	f043 63e0 	orr.w	r3, r3, #117440512	; 0x7000000
 8003182:	61fb      	str	r3, [r7, #28]
 8003184:	69fb      	ldr	r3, [r7, #28]
 8003186:	f443 7380 	orr.w	r3, r3, #256	; 0x100
 800318a:	61fb      	str	r3, [r7, #28]
 800318c:	4a05      	ldr	r2, [pc, #20]	; (80031a4 <HAL_TIM_MspPostInit+0x88>)
 800318e:	69fb      	ldr	r3, [r7, #28]
 8003190:	6053      	str	r3, [r2, #4]
  /* USER CODE BEGIN TIM2_MspPostInit 1 */

  /* USER CODE END TIM2_MspPostInit 1 */
  }

}
 8003192:	bf00      	nop
 8003194:	3720      	adds	r7, #32
 8003196:	46bd      	mov	sp, r7
 8003198:	bd80      	pop	{r7, pc}
 800319a:	bf00      	nop
 800319c:	40021000 	.word	0x40021000
 80031a0:	40010800 	.word	0x40010800
 80031a4:	40010000 	.word	0x40010000

080031a8 <NMI_Handler>:
/******************************************************************************/
/**
  * @brief This function handles Non maskable interrupt.
  */
void NMI_Handler(void)
{
 80031a8:	b480      	push	{r7}
 80031aa:	af00      	add	r7, sp, #0
  /* USER CODE BEGIN NonMaskableInt_IRQn 0 */

  /* USER CODE END NonMaskableInt_IRQn 0 */
  /* USER CODE BEGIN NonMaskableInt_IRQn 1 */
  while (1)
 80031ac:	e7fe      	b.n	80031ac <NMI_Handler+0x4>

080031ae <HardFault_Handler>:

/**
  * @brief This function handles Hard fault interrupt.
  */
void HardFault_Handler(void)
{
 80031ae:	b480      	push	{r7}
 80031b0:	af00      	add	r7, sp, #0
  /* USER CODE BEGIN HardFault_IRQn 0 */

  /* USER CODE END HardFault_IRQn 0 */
  while (1)
 80031b2:	e7fe      	b.n	80031b2 <HardFault_Handler+0x4>

080031b4 <MemManage_Handler>:

/**
  * @brief This function handles Memory management fault.
  */
void MemManage_Handler(void)
{
 80031b4:	b480      	push	{r7}
 80031b6:	af00      	add	r7, sp, #0
  /* USER CODE BEGIN MemoryManagement_IRQn 0 */

  /* USER CODE END MemoryManagement_IRQn 0 */
  while (1)
 80031b8:	e7fe      	b.n	80031b8 <MemManage_Handler+0x4>

080031ba <BusFault_Handler>:

/**
  * @brief This function handles Prefetch fault, memory access fault.
  */
void BusFault_Handler(void)
{
 80031ba:	b480      	push	{r7}
 80031bc:	af00      	add	r7, sp, #0
  /* USER CODE BEGIN BusFault_IRQn 0 */

  /* USER CODE END BusFault_IRQn 0 */
  while (1)
 80031be:	e7fe      	b.n	80031be <BusFault_Handler+0x4>

080031c0 <UsageFault_Handler>:

/**
  * @brief This function handles Undefined instruction or illegal state.
  */
void UsageFault_Handler(void)
{
 80031c0:	b480      	push	{r7}
 80031c2:	af00      	add	r7, sp, #0
  /* USER CODE BEGIN UsageFault_IRQn 0 */

  /* USER CODE END UsageFault_IRQn 0 */
  while (1)
 80031c4:	e7fe      	b.n	80031c4 <UsageFault_Handler+0x4>

080031c6 <SVC_Handler>:

/**
  * @brief This function handles System service call via SWI instruction.
  */
void SVC_Handler(void)
{
 80031c6:	b480      	push	{r7}
 80031c8:	af00      	add	r7, sp, #0

  /* USER CODE END SVCall_IRQn 0 */
  /* USER CODE BEGIN SVCall_IRQn 1 */

  /* USER CODE END SVCall_IRQn 1 */
}
 80031ca:	bf00      	nop
 80031cc:	46bd      	mov	sp, r7
 80031ce:	bc80      	pop	{r7}
 80031d0:	4770      	bx	lr

080031d2 <DebugMon_Handler>:

/**
  * @brief This function handles Debug monitor.
  */
void DebugMon_Handler(void)
{
 80031d2:	b480      	push	{r7}
 80031d4:	af00      	add	r7, sp, #0

  /* USER CODE END DebugMonitor_IRQn 0 */
  /* USER CODE BEGIN DebugMonitor_IRQn 1 */

  /* USER CODE END DebugMonitor_IRQn 1 */
}
 80031d6:	bf00      	nop
 80031d8:	46bd      	mov	sp, r7
 80031da:	bc80      	pop	{r7}
 80031dc:	4770      	bx	lr

080031de <PendSV_Handler>:

/**
  * @brief This function handles Pendable request for system service.
  */
void PendSV_Handler(void)
{
 80031de:	b480      	push	{r7}
 80031e0:	af00      	add	r7, sp, #0

  /* USER CODE END PendSV_IRQn 0 */
  /* USER CODE BEGIN PendSV_IRQn 1 */

  /* USER CODE END PendSV_IRQn 1 */
}
 80031e2:	bf00      	nop
 80031e4:	46bd      	mov	sp, r7
 80031e6:	bc80      	pop	{r7}
 80031e8:	4770      	bx	lr

080031ea <SysTick_Handler>:

/**
  * @brief This function handles System tick timer.
  */
void SysTick_Handler(void)
{
 80031ea:	b580      	push	{r7, lr}
 80031ec:	af00      	add	r7, sp, #0
  /* USER CODE BEGIN SysTick_IRQn 0 */

  /* USER CODE END SysTick_IRQn 0 */
  HAL_IncTick();
 80031ee:	f000 f899 	bl	8003324 <HAL_IncTick>
  /* USER CODE BEGIN SysTick_IRQn 1 */

  /* USER CODE END SysTick_IRQn 1 */
}
 80031f2:	bf00      	nop
 80031f4:	bd80      	pop	{r7, pc}

080031f6 <EXTI0_IRQHandler>:

/**
  * @brief This function handles EXTI line0 interrupt.
  */
void EXTI0_IRQHandler(void)
{
 80031f6:	b580      	push	{r7, lr}
 80031f8:	af00      	add	r7, sp, #0
  /* USER CODE BEGIN EXTI0_IRQn 0 */

  /* USER CODE END EXTI0_IRQn 0 */
  HAL_GPIO_EXTI_IRQHandler(GPIO_PIN_0);
 80031fa:	2001      	movs	r0, #1
 80031fc:	f001 f9c4 	bl	8004588 <HAL_GPIO_EXTI_IRQHandler>
  /* USER CODE BEGIN EXTI0_IRQn 1 */

  /* USER CODE END EXTI0_IRQn 1 */
}
 8003200:	bf00      	nop
 8003202:	bd80      	pop	{r7, pc}

08003204 <DMA1_Channel1_IRQHandler>:

/**
  * @brief This function handles DMA1 channel1 global interrupt.
  */
void DMA1_Channel1_IRQHandler(void)
{
 8003204:	b580      	push	{r7, lr}
 8003206:	af00      	add	r7, sp, #0
  /* USER CODE BEGIN DMA1_Channel1_IRQn 0 */

  /* USER CODE END DMA1_Channel1_IRQn 0 */
  HAL_DMA_IRQHandler(&hdma_adc1);
 8003208:	4802      	ldr	r0, [pc, #8]	; (8003214 <DMA1_Channel1_IRQHandler+0x10>)
 800320a:	f000 fed5 	bl	8003fb8 <HAL_DMA_IRQHandler>
  /* USER CODE BEGIN DMA1_Channel1_IRQn 1 */

  /* USER CODE END DMA1_Channel1_IRQn 1 */
}
 800320e:	bf00      	nop
 8003210:	bd80      	pop	{r7, pc}
 8003212:	bf00      	nop
 8003214:	200005c4 	.word	0x200005c4

08003218 <I2C1_ER_IRQHandler>:

/**
  * @brief This function handles I2C1 error interrupt.
  */
void I2C1_ER_IRQHandler(void)
{
 8003218:	b580      	push	{r7, lr}
 800321a:	af00      	add	r7, sp, #0
  /* USER CODE BEGIN I2C1_ER_IRQn 0 */

  /* USER CODE END I2C1_ER_IRQn 0 */
  HAL_I2C_ER_IRQHandler(&hi2c1);
 800321c:	4802      	ldr	r0, [pc, #8]	; (8003228 <I2C1_ER_IRQHandler+0x10>)
 800321e:	f001 fd3b 	bl	8004c98 <HAL_I2C_ER_IRQHandler>
  /* USER CODE BEGIN I2C1_ER_IRQn 1 */

  /* USER CODE END I2C1_ER_IRQn 1 */
}
 8003222:	bf00      	nop
 8003224:	bd80      	pop	{r7, pc}
 8003226:	bf00      	nop
 8003228:	200004d4 	.word	0x200004d4

0800322c <I2C2_ER_IRQHandler>:

/**
  * @brief This function handles I2C2 error interrupt.
  */
void I2C2_ER_IRQHandler(void)
{
 800322c:	b580      	push	{r7, lr}
 800322e:	af00      	add	r7, sp, #0
  /* USER CODE BEGIN I2C2_ER_IRQn 0 */

  /* USER CODE END I2C2_ER_IRQn 0 */
  HAL_I2C_ER_IRQHandler(&hi2c2);
 8003230:	4802      	ldr	r0, [pc, #8]	; (800323c <I2C2_ER_IRQHandler+0x10>)
 8003232:	f001 fd31 	bl	8004c98 <HAL_I2C_ER_IRQHandler>
  /* USER CODE BEGIN I2C2_ER_IRQn 1 */

  /* USER CODE END I2C2_ER_IRQn 1 */
}
 8003236:	bf00      	nop
 8003238:	bd80      	pop	{r7, pc}
 800323a:	bf00      	nop
 800323c:	20000528 	.word	0x20000528

08003240 <SystemInit>:
  * @note   This function should be used only after reset.
  * @param  None
  * @retval None
  */
void SystemInit (void)
{
 8003240:	b480      	push	{r7}
 8003242:	af00      	add	r7, sp, #0

  /* Configure the Vector Table location -------------------------------------*/
#if defined(USER_VECT_TAB_ADDRESS)
  SCB->VTOR = VECT_TAB_BASE_ADDRESS | VECT_TAB_OFFSET; /* Vector Table Relocation in Internal SRAM. */
#endif /* USER_VECT_TAB_ADDRESS */
}
 8003244:	bf00      	nop
 8003246:	46bd      	mov	sp, r7
 8003248:	bc80      	pop	{r7}
 800324a:	4770      	bx	lr

0800324c <Reset_Handler>:
  .weak Reset_Handler
  .type Reset_Handler, %function
Reset_Handler:

/* Copy the data segment initializers from flash to SRAM */
  ldr r0, =_sdata
 800324c:	480c      	ldr	r0, [pc, #48]	; (8003280 <LoopFillZerobss+0x12>)
  ldr r1, =_edata
 800324e:	490d      	ldr	r1, [pc, #52]	; (8003284 <LoopFillZerobss+0x16>)
  ldr r2, =_sidata
 8003250:	4a0d      	ldr	r2, [pc, #52]	; (8003288 <LoopFillZerobss+0x1a>)
  movs r3, #0
 8003252:	2300      	movs	r3, #0
  b LoopCopyDataInit
 8003254:	e002      	b.n	800325c <LoopCopyDataInit>

08003256 <CopyDataInit>:

CopyDataInit:
  ldr r4, [r2, r3]
 8003256:	58d4      	ldr	r4, [r2, r3]
  str r4, [r0, r3]
 8003258:	50c4      	str	r4, [r0, r3]
  adds r3, r3, #4
 800325a:	3304      	adds	r3, #4

0800325c <LoopCopyDataInit>:

LoopCopyDataInit:
  adds r4, r0, r3
 800325c:	18c4      	adds	r4, r0, r3
  cmp r4, r1
 800325e:	428c      	cmp	r4, r1
  bcc CopyDataInit
 8003260:	d3f9      	bcc.n	8003256 <CopyDataInit>
  
/* Zero fill the bss segment. */
  ldr r2, =_sbss
 8003262:	4a0a      	ldr	r2, [pc, #40]	; (800328c <LoopFillZerobss+0x1e>)
  ldr r4, =_ebss
 8003264:	4c0a      	ldr	r4, [pc, #40]	; (8003290 <LoopFillZerobss+0x22>)
  movs r3, #0
 8003266:	2300      	movs	r3, #0
  b LoopFillZerobss
 8003268:	e001      	b.n	800326e <LoopFillZerobss>

0800326a <FillZerobss>:

FillZerobss:
  str  r3, [r2]
 800326a:	6013      	str	r3, [r2, #0]
  adds r2, r2, #4
 800326c:	3204      	adds	r2, #4

0800326e <LoopFillZerobss>:

LoopFillZerobss:
  cmp r2, r4
 800326e:	42a2      	cmp	r2, r4
  bcc FillZerobss
 8003270:	d3fb      	bcc.n	800326a <FillZerobss>

/* Call the clock system intitialization function.*/
    bl  SystemInit
 8003272:	f7ff ffe5 	bl	8003240 <SystemInit>
/* Call static constructors */
    bl __libc_init_array
 8003276:	f003 fb13 	bl	80068a0 <__libc_init_array>
/* Call the application's entry point.*/
  bl main
 800327a:	f7fe feed 	bl	8002058 <main>
  bx lr
 800327e:	4770      	bx	lr
  ldr r0, =_sdata
 8003280:	20000000 	.word	0x20000000
  ldr r1, =_edata
 8003284:	20000088 	.word	0x20000088
  ldr r2, =_sidata
 8003288:	08007b7c 	.word	0x08007b7c
  ldr r2, =_sbss
 800328c:	20000088 	.word	0x20000088
  ldr r4, =_ebss
 8003290:	20000658 	.word	0x20000658

08003294 <ADC1_2_IRQHandler>:
 * @retval : None
*/
    .section .text.Default_Handler,"ax",%progbits
Default_Handler:
Infinite_Loop:
  b Infinite_Loop
 8003294:	e7fe      	b.n	8003294 <ADC1_2_IRQHandler>
	...

08003298 <HAL_Init>:
  *         need to ensure that the SysTick time base is always set to 1 millisecond
  *         to have correct HAL operation.
  * @retval HAL status
  */
HAL_StatusTypeDef HAL_Init(void)
{
 8003298:	b580      	push	{r7, lr}
 800329a:	af00      	add	r7, sp, #0
    defined(STM32F102x6) || defined(STM32F102xB) || \
    defined(STM32F103x6) || defined(STM32F103xB) || defined(STM32F103xE) || defined(STM32F103xG) || \
    defined(STM32F105xC) || defined(STM32F107xC)

  /* Prefetch buffer is not available on value line devices */
  __HAL_FLASH_PREFETCH_BUFFER_ENABLE();
 800329c:	4b08      	ldr	r3, [pc, #32]	; (80032c0 <HAL_Init+0x28>)
 800329e:	681b      	ldr	r3, [r3, #0]
 80032a0:	4a07      	ldr	r2, [pc, #28]	; (80032c0 <HAL_Init+0x28>)
 80032a2:	f043 0310 	orr.w	r3, r3, #16
 80032a6:	6013      	str	r3, [r2, #0]
#endif
#endif /* PREFETCH_ENABLE */

  /* Set Interrupt Group Priority */
  HAL_NVIC_SetPriorityGrouping(NVIC_PRIORITYGROUP_4);
 80032a8:	2003      	movs	r0, #3
 80032aa:	f000 fd13 	bl	8003cd4 <HAL_NVIC_SetPriorityGrouping>

  /* Use systick as time base source and configure 1ms tick (default clock after Reset is HSI) */
  HAL_InitTick(TICK_INT_PRIORITY);
 80032ae:	200f      	movs	r0, #15
 80032b0:	f000 f808 	bl	80032c4 <HAL_InitTick>

  /* Init the low level hardware */
  HAL_MspInit();
 80032b4:	f7ff fe00 	bl	8002eb8 <HAL_MspInit>

  /* Return function status */
  return HAL_OK;
 80032b8:	2300      	movs	r3, #0
}
 80032ba:	4618      	mov	r0, r3
 80032bc:	bd80      	pop	{r7, pc}
 80032be:	bf00      	nop
 80032c0:	40022000 	.word	0x40022000

080032c4 <HAL_InitTick>:
  *       implementation  in user file.
  * @param TickPriority Tick interrupt priority.
  * @retval HAL status
  */
__weak HAL_StatusTypeDef HAL_InitTick(uint32_t TickPriority)
{
 80032c4:	b580      	push	{r7, lr}
 80032c6:	b082      	sub	sp, #8
 80032c8:	af00      	add	r7, sp, #0
 80032ca:	6078      	str	r0, [r7, #4]
  /* Configure the SysTick to have interrupt in 1ms time basis*/
  if (HAL_SYSTICK_Config(SystemCoreClock / (1000U / uwTickFreq)) > 0U)
 80032cc:	4b12      	ldr	r3, [pc, #72]	; (8003318 <HAL_InitTick+0x54>)
 80032ce:	681a      	ldr	r2, [r3, #0]
 80032d0:	4b12      	ldr	r3, [pc, #72]	; (800331c <HAL_InitTick+0x58>)
 80032d2:	781b      	ldrb	r3, [r3, #0]
 80032d4:	4619      	mov	r1, r3
 80032d6:	f44f 737a 	mov.w	r3, #1000	; 0x3e8
 80032da:	fbb3 f3f1 	udiv	r3, r3, r1
 80032de:	fbb2 f3f3 	udiv	r3, r2, r3
 80032e2:	4618      	mov	r0, r3
 80032e4:	f000 fd2b 	bl	8003d3e <HAL_SYSTICK_Config>
 80032e8:	4603      	mov	r3, r0
 80032ea:	2b00      	cmp	r3, #0
 80032ec:	d001      	beq.n	80032f2 <HAL_InitTick+0x2e>
  {
    return HAL_ERROR;
 80032ee:	2301      	movs	r3, #1
 80032f0:	e00e      	b.n	8003310 <HAL_InitTick+0x4c>
  }

  /* Configure the SysTick IRQ priority */
  if (TickPriority < (1UL << __NVIC_PRIO_BITS))
 80032f2:	687b      	ldr	r3, [r7, #4]
 80032f4:	2b0f      	cmp	r3, #15
 80032f6:	d80a      	bhi.n	800330e <HAL_InitTick+0x4a>
  {
    HAL_NVIC_SetPriority(SysTick_IRQn, TickPriority, 0U);
 80032f8:	2200      	movs	r2, #0
 80032fa:	6879      	ldr	r1, [r7, #4]
 80032fc:	f04f 30ff 	mov.w	r0, #4294967295
 8003300:	f000 fcf3 	bl	8003cea <HAL_NVIC_SetPriority>
    uwTickPrio = TickPriority;
 8003304:	4a06      	ldr	r2, [pc, #24]	; (8003320 <HAL_InitTick+0x5c>)
 8003306:	687b      	ldr	r3, [r7, #4]
 8003308:	6013      	str	r3, [r2, #0]
  {
    return HAL_ERROR;
  }

  /* Return function status */
  return HAL_OK;
 800330a:	2300      	movs	r3, #0
 800330c:	e000      	b.n	8003310 <HAL_InitTick+0x4c>
    return HAL_ERROR;
 800330e:	2301      	movs	r3, #1
}
 8003310:	4618      	mov	r0, r3
 8003312:	3708      	adds	r7, #8
 8003314:	46bd      	mov	sp, r7
 8003316:	bd80      	pop	{r7, pc}
 8003318:	20000014 	.word	0x20000014
 800331c:	2000001c 	.word	0x2000001c
 8003320:	20000018 	.word	0x20000018

08003324 <HAL_IncTick>:
  * @note This function is declared as __weak to be overwritten in case of other
  *      implementations in user file.
  * @retval None
  */
__weak void HAL_IncTick(void)
{
 8003324:	b480      	push	{r7}
 8003326:	af00      	add	r7, sp, #0
  uwTick += uwTickFreq;
 8003328:	4b05      	ldr	r3, [pc, #20]	; (8003340 <HAL_IncTick+0x1c>)
 800332a:	781b      	ldrb	r3, [r3, #0]
 800332c:	461a      	mov	r2, r3
 800332e:	4b05      	ldr	r3, [pc, #20]	; (8003344 <HAL_IncTick+0x20>)
 8003330:	681b      	ldr	r3, [r3, #0]
 8003332:	4413      	add	r3, r2
 8003334:	4a03      	ldr	r2, [pc, #12]	; (8003344 <HAL_IncTick+0x20>)
 8003336:	6013      	str	r3, [r2, #0]
}
 8003338:	bf00      	nop
 800333a:	46bd      	mov	sp, r7
 800333c:	bc80      	pop	{r7}
 800333e:	4770      	bx	lr
 8003340:	2000001c 	.word	0x2000001c
 8003344:	20000654 	.word	0x20000654

08003348 <HAL_GetTick>:
  * @note  This function is declared as __weak to be overwritten in case of other
  *       implementations in user file.
  * @retval tick value
  */
__weak uint32_t HAL_GetTick(void)
{
 8003348:	b480      	push	{r7}
 800334a:	af00      	add	r7, sp, #0
  return uwTick;
 800334c:	4b02      	ldr	r3, [pc, #8]	; (8003358 <HAL_GetTick+0x10>)
 800334e:	681b      	ldr	r3, [r3, #0]
}
 8003350:	4618      	mov	r0, r3
 8003352:	46bd      	mov	sp, r7
 8003354:	bc80      	pop	{r7}
 8003356:	4770      	bx	lr
 8003358:	20000654 	.word	0x20000654

0800335c <HAL_Delay>:
  *       implementations in user file.
  * @param Delay specifies the delay time length, in milliseconds.
  * @retval None
  */
__weak void HAL_Delay(uint32_t Delay)
{
 800335c:	b580      	push	{r7, lr}
 800335e:	b084      	sub	sp, #16
 8003360:	af00      	add	r7, sp, #0
 8003362:	6078      	str	r0, [r7, #4]
  uint32_t tickstart = HAL_GetTick();
 8003364:	f7ff fff0 	bl	8003348 <HAL_GetTick>
 8003368:	60b8      	str	r0, [r7, #8]
  uint32_t wait = Delay;
 800336a:	687b      	ldr	r3, [r7, #4]
 800336c:	60fb      	str	r3, [r7, #12]

  /* Add a freq to guarantee minimum wait */
  if (wait < HAL_MAX_DELAY)
 800336e:	68fb      	ldr	r3, [r7, #12]
 8003370:	f1b3 3fff 	cmp.w	r3, #4294967295
 8003374:	d005      	beq.n	8003382 <HAL_Delay+0x26>
  {
    wait += (uint32_t)(uwTickFreq);
 8003376:	4b0a      	ldr	r3, [pc, #40]	; (80033a0 <HAL_Delay+0x44>)
 8003378:	781b      	ldrb	r3, [r3, #0]
 800337a:	461a      	mov	r2, r3
 800337c:	68fb      	ldr	r3, [r7, #12]
 800337e:	4413      	add	r3, r2
 8003380:	60fb      	str	r3, [r7, #12]
  }

  while ((HAL_GetTick() - tickstart) < wait)
 8003382:	bf00      	nop
 8003384:	f7ff ffe0 	bl	8003348 <HAL_GetTick>
 8003388:	4602      	mov	r2, r0
 800338a:	68bb      	ldr	r3, [r7, #8]
 800338c:	1ad3      	subs	r3, r2, r3
 800338e:	68fa      	ldr	r2, [r7, #12]
 8003390:	429a      	cmp	r2, r3
 8003392:	d8f7      	bhi.n	8003384 <HAL_Delay+0x28>
  {
  }
}
 8003394:	bf00      	nop
 8003396:	bf00      	nop
 8003398:	3710      	adds	r7, #16
 800339a:	46bd      	mov	sp, r7
 800339c:	bd80      	pop	{r7, pc}
 800339e:	bf00      	nop
 80033a0:	2000001c 	.word	0x2000001c

080033a4 <HAL_ADC_Init>:
  *         of structure "ADC_InitTypeDef".
  * @param  hadc: ADC handle
  * @retval HAL status
  */
HAL_StatusTypeDef HAL_ADC_Init(ADC_HandleTypeDef* hadc)
{
 80033a4:	b580      	push	{r7, lr}
 80033a6:	b086      	sub	sp, #24
 80033a8:	af00      	add	r7, sp, #0
 80033aa:	6078      	str	r0, [r7, #4]
  HAL_StatusTypeDef tmp_hal_status = HAL_OK;
 80033ac:	2300      	movs	r3, #0
 80033ae:	75fb      	strb	r3, [r7, #23]
  uint32_t tmp_cr1 = 0U;
 80033b0:	2300      	movs	r3, #0
 80033b2:	613b      	str	r3, [r7, #16]
  uint32_t tmp_cr2 = 0U;
 80033b4:	2300      	movs	r3, #0
 80033b6:	60bb      	str	r3, [r7, #8]
  uint32_t tmp_sqr1 = 0U;
 80033b8:	2300      	movs	r3, #0
 80033ba:	60fb      	str	r3, [r7, #12]
  
  /* Check ADC handle */
  if(hadc == NULL)
 80033bc:	687b      	ldr	r3, [r7, #4]
 80033be:	2b00      	cmp	r3, #0
 80033c0:	d101      	bne.n	80033c6 <HAL_ADC_Init+0x22>
  {
    return HAL_ERROR;
 80033c2:	2301      	movs	r3, #1
 80033c4:	e0be      	b.n	8003544 <HAL_ADC_Init+0x1a0>
  assert_param(IS_ADC_DATA_ALIGN(hadc->Init.DataAlign));
  assert_param(IS_ADC_SCAN_MODE(hadc->Init.ScanConvMode));
  assert_param(IS_FUNCTIONAL_STATE(hadc->Init.ContinuousConvMode));
  assert_param(IS_ADC_EXTTRIG(hadc->Init.ExternalTrigConv));
  
  if(hadc->Init.ScanConvMode != ADC_SCAN_DISABLE)
 80033c6:	687b      	ldr	r3, [r7, #4]
 80033c8:	689b      	ldr	r3, [r3, #8]
 80033ca:	2b00      	cmp	r3, #0
  /* Refer to header of this file for more details on clock enabling          */
  /* procedure.                                                               */

  /* Actions performed only if ADC is coming from state reset:                */
  /* - Initialization of ADC MSP                                              */
  if (hadc->State == HAL_ADC_STATE_RESET)
 80033cc:	687b      	ldr	r3, [r7, #4]
 80033ce:	6a9b      	ldr	r3, [r3, #40]	; 0x28
 80033d0:	2b00      	cmp	r3, #0
 80033d2:	d109      	bne.n	80033e8 <HAL_ADC_Init+0x44>
  {
    /* Initialize ADC error code */
    ADC_CLEAR_ERRORCODE(hadc);
 80033d4:	687b      	ldr	r3, [r7, #4]
 80033d6:	2200      	movs	r2, #0
 80033d8:	62da      	str	r2, [r3, #44]	; 0x2c
    
    /* Allocate lock resource and initialize it */
    hadc->Lock = HAL_UNLOCKED;
 80033da:	687b      	ldr	r3, [r7, #4]
 80033dc:	2200      	movs	r2, #0
 80033de:	f883 2024 	strb.w	r2, [r3, #36]	; 0x24
    
    /* Init the low level hardware */
    hadc->MspInitCallback(hadc);
#else
    /* Init the low level hardware */
    HAL_ADC_MspInit(hadc);
 80033e2:	6878      	ldr	r0, [r7, #4]
 80033e4:	f7ff fd9a 	bl	8002f1c <HAL_ADC_MspInit>
  /* Stop potential conversion on going, on regular and injected groups */
  /* Disable ADC peripheral */
  /* Note: In case of ADC already enabled, precaution to not launch an        */
  /*       unwanted conversion while modifying register CR2 by writing 1 to   */
  /*       bit ADON.                                                          */
  tmp_hal_status = ADC_ConversionStop_Disable(hadc);
 80033e8:	6878      	ldr	r0, [r7, #4]
 80033ea:	f000 faff 	bl	80039ec <ADC_ConversionStop_Disable>
 80033ee:	4603      	mov	r3, r0
 80033f0:	75fb      	strb	r3, [r7, #23]
  
  
  /* Configuration of ADC parameters if previous preliminary actions are      */ 
  /* correctly completed.                                                     */
  if (HAL_IS_BIT_CLR(hadc->State, HAL_ADC_STATE_ERROR_INTERNAL) &&
 80033f2:	687b      	ldr	r3, [r7, #4]
 80033f4:	6a9b      	ldr	r3, [r3, #40]	; 0x28
 80033f6:	f003 0310 	and.w	r3, r3, #16
 80033fa:	2b00      	cmp	r3, #0
 80033fc:	f040 8099 	bne.w	8003532 <HAL_ADC_Init+0x18e>
 8003400:	7dfb      	ldrb	r3, [r7, #23]
 8003402:	2b00      	cmp	r3, #0
 8003404:	f040 8095 	bne.w	8003532 <HAL_ADC_Init+0x18e>
      (tmp_hal_status == HAL_OK)                                  )
  {
    /* Set ADC state */
    ADC_STATE_CLR_SET(hadc->State,
 8003408:	687b      	ldr	r3, [r7, #4]
 800340a:	6a9b      	ldr	r3, [r3, #40]	; 0x28
 800340c:	f423 5388 	bic.w	r3, r3, #4352	; 0x1100
 8003410:	f023 0302 	bic.w	r3, r3, #2
 8003414:	f043 0202 	orr.w	r2, r3, #2
 8003418:	687b      	ldr	r3, [r7, #4]
 800341a:	629a      	str	r2, [r3, #40]	; 0x28
    /*  - continuous conversion mode                                          */
    /* Note: External trigger polarity (ADC_CR2_EXTTRIG) is set into          */
    /*       HAL_ADC_Start_xxx functions because if set in this function,     */
    /*       a conversion on injected group would start a conversion also on  */
    /*       regular group after ADC enabling.                                */
    tmp_cr2 |= (hadc->Init.DataAlign                                          |
 800341c:	687b      	ldr	r3, [r7, #4]
 800341e:	685a      	ldr	r2, [r3, #4]
                ADC_CFGR_EXTSEL(hadc, hadc->Init.ExternalTrigConv)            |
 8003420:	687b      	ldr	r3, [r7, #4]
 8003422:	69db      	ldr	r3, [r3, #28]
    tmp_cr2 |= (hadc->Init.DataAlign                                          |
 8003424:	431a      	orrs	r2, r3
                ADC_CR2_CONTINUOUS((uint32_t)hadc->Init.ContinuousConvMode)   );
 8003426:	687b      	ldr	r3, [r7, #4]
 8003428:	7b1b      	ldrb	r3, [r3, #12]
 800342a:	005b      	lsls	r3, r3, #1
                ADC_CFGR_EXTSEL(hadc, hadc->Init.ExternalTrigConv)            |
 800342c:	4313      	orrs	r3, r2
    tmp_cr2 |= (hadc->Init.DataAlign                                          |
 800342e:	68ba      	ldr	r2, [r7, #8]
 8003430:	4313      	orrs	r3, r2
 8003432:	60bb      	str	r3, [r7, #8]

    /* Configuration of ADC:                                                  */
    /*  - scan mode                                                           */
    /*  - discontinuous mode disable/enable                                   */
    /*  - discontinuous mode number of conversions                            */
    tmp_cr1 |= (ADC_CR1_SCAN_SET(hadc->Init.ScanConvMode));
 8003434:	687b      	ldr	r3, [r7, #4]
 8003436:	689b      	ldr	r3, [r3, #8]
 8003438:	f5b3 7f80 	cmp.w	r3, #256	; 0x100
 800343c:	d003      	beq.n	8003446 <HAL_ADC_Init+0xa2>
 800343e:	687b      	ldr	r3, [r7, #4]
 8003440:	689b      	ldr	r3, [r3, #8]
 8003442:	2b01      	cmp	r3, #1
 8003444:	d102      	bne.n	800344c <HAL_ADC_Init+0xa8>
 8003446:	f44f 7380 	mov.w	r3, #256	; 0x100
 800344a:	e000      	b.n	800344e <HAL_ADC_Init+0xaa>
 800344c:	2300      	movs	r3, #0
 800344e:	693a      	ldr	r2, [r7, #16]
 8003450:	4313      	orrs	r3, r2
 8003452:	613b      	str	r3, [r7, #16]
    
    /* Enable discontinuous mode only if continuous mode is disabled */
    /* Note: If parameter "Init.ScanConvMode" is set to disable, parameter    */
    /*       discontinuous is set anyway, but will have no effect on ADC HW.  */
    if (hadc->Init.DiscontinuousConvMode == ENABLE)
 8003454:	687b      	ldr	r3, [r7, #4]
 8003456:	7d1b      	ldrb	r3, [r3, #20]
 8003458:	2b01      	cmp	r3, #1
 800345a:	d119      	bne.n	8003490 <HAL_ADC_Init+0xec>
    {
      if (hadc->Init.ContinuousConvMode == DISABLE)
 800345c:	687b      	ldr	r3, [r7, #4]
 800345e:	7b1b      	ldrb	r3, [r3, #12]
 8003460:	2b00      	cmp	r3, #0
 8003462:	d109      	bne.n	8003478 <HAL_ADC_Init+0xd4>
      {
        /* Enable the selected ADC regular discontinuous mode */
        /* Set the number of channels to be converted in discontinuous mode */
        SET_BIT(tmp_cr1, ADC_CR1_DISCEN                                            |
 8003464:	687b      	ldr	r3, [r7, #4]
 8003466:	699b      	ldr	r3, [r3, #24]
 8003468:	3b01      	subs	r3, #1
 800346a:	035a      	lsls	r2, r3, #13
 800346c:	693b      	ldr	r3, [r7, #16]
 800346e:	4313      	orrs	r3, r2
 8003470:	f443 6300 	orr.w	r3, r3, #2048	; 0x800
 8003474:	613b      	str	r3, [r7, #16]
 8003476:	e00b      	b.n	8003490 <HAL_ADC_Init+0xec>
      {
        /* ADC regular group settings continuous and sequencer discontinuous*/
        /* cannot be enabled simultaneously.                                */
        
        /* Update ADC state machine to error */
        SET_BIT(hadc->State, HAL_ADC_STATE_ERROR_CONFIG);
 8003478:	687b      	ldr	r3, [r7, #4]
 800347a:	6a9b      	ldr	r3, [r3, #40]	; 0x28
 800347c:	f043 0220 	orr.w	r2, r3, #32
 8003480:	687b      	ldr	r3, [r7, #4]
 8003482:	629a      	str	r2, [r3, #40]	; 0x28
        
        /* Set ADC error code to ADC IP internal error */
        SET_BIT(hadc->ErrorCode, HAL_ADC_ERROR_INTERNAL);
 8003484:	687b      	ldr	r3, [r7, #4]
 8003486:	6adb      	ldr	r3, [r3, #44]	; 0x2c
 8003488:	f043 0201 	orr.w	r2, r3, #1
 800348c:	687b      	ldr	r3, [r7, #4]
 800348e:	62da      	str	r2, [r3, #44]	; 0x2c
      }
    }
    
    /* Update ADC configuration register CR1 with previous settings */
      MODIFY_REG(hadc->Instance->CR1,
 8003490:	687b      	ldr	r3, [r7, #4]
 8003492:	681b      	ldr	r3, [r3, #0]
 8003494:	685b      	ldr	r3, [r3, #4]
 8003496:	f423 4169 	bic.w	r1, r3, #59648	; 0xe900
 800349a:	687b      	ldr	r3, [r7, #4]
 800349c:	681b      	ldr	r3, [r3, #0]
 800349e:	693a      	ldr	r2, [r7, #16]
 80034a0:	430a      	orrs	r2, r1
 80034a2:	605a      	str	r2, [r3, #4]
                 ADC_CR1_DISCEN  |
                 ADC_CR1_DISCNUM    ,
                 tmp_cr1             );
    
    /* Update ADC configuration register CR2 with previous settings */
      MODIFY_REG(hadc->Instance->CR2,
 80034a4:	687b      	ldr	r3, [r7, #4]
 80034a6:	681b      	ldr	r3, [r3, #0]
 80034a8:	689a      	ldr	r2, [r3, #8]
 80034aa:	4b28      	ldr	r3, [pc, #160]	; (800354c <HAL_ADC_Init+0x1a8>)
 80034ac:	4013      	ands	r3, r2
 80034ae:	687a      	ldr	r2, [r7, #4]
 80034b0:	6812      	ldr	r2, [r2, #0]
 80034b2:	68b9      	ldr	r1, [r7, #8]
 80034b4:	430b      	orrs	r3, r1
 80034b6:	6093      	str	r3, [r2, #8]
    /*   Note: Scan mode is present by hardware on this device and, if        */
    /*   disabled, discards automatically nb of conversions. Anyway, nb of    */
    /*   conversions is forced to 0x00 for alignment over all STM32 devices.  */
    /* - if scan mode is enabled, regular channels sequence length is set to  */
    /*   parameter "NbrOfConversion"                                          */
    if (ADC_CR1_SCAN_SET(hadc->Init.ScanConvMode) == ADC_SCAN_ENABLE)
 80034b8:	687b      	ldr	r3, [r7, #4]
 80034ba:	689b      	ldr	r3, [r3, #8]
 80034bc:	f5b3 7f80 	cmp.w	r3, #256	; 0x100
 80034c0:	d003      	beq.n	80034ca <HAL_ADC_Init+0x126>
 80034c2:	687b      	ldr	r3, [r7, #4]
 80034c4:	689b      	ldr	r3, [r3, #8]
 80034c6:	2b01      	cmp	r3, #1
 80034c8:	d104      	bne.n	80034d4 <HAL_ADC_Init+0x130>
    {
      tmp_sqr1 = ADC_SQR1_L_SHIFT(hadc->Init.NbrOfConversion);
 80034ca:	687b      	ldr	r3, [r7, #4]
 80034cc:	691b      	ldr	r3, [r3, #16]
 80034ce:	3b01      	subs	r3, #1
 80034d0:	051b      	lsls	r3, r3, #20
 80034d2:	60fb      	str	r3, [r7, #12]
    }
      
    MODIFY_REG(hadc->Instance->SQR1,
 80034d4:	687b      	ldr	r3, [r7, #4]
 80034d6:	681b      	ldr	r3, [r3, #0]
 80034d8:	6adb      	ldr	r3, [r3, #44]	; 0x2c
 80034da:	f423 0170 	bic.w	r1, r3, #15728640	; 0xf00000
 80034de:	687b      	ldr	r3, [r7, #4]
 80034e0:	681b      	ldr	r3, [r3, #0]
 80034e2:	68fa      	ldr	r2, [r7, #12]
 80034e4:	430a      	orrs	r2, r1
 80034e6:	62da      	str	r2, [r3, #44]	; 0x2c
    /* ensure of no potential problem of ADC core IP clocking.                */
    /* Check through register CR2 (excluding bits set in other functions:     */
    /* execution control bits (ADON, JSWSTART, SWSTART), regular group bits   */
    /* (DMA), injected group bits (JEXTTRIG and JEXTSEL), channel internal    */
    /* measurement path bit (TSVREFE).                                        */
    if (READ_BIT(hadc->Instance->CR2, ~(ADC_CR2_ADON | ADC_CR2_DMA |
 80034e8:	687b      	ldr	r3, [r7, #4]
 80034ea:	681b      	ldr	r3, [r3, #0]
 80034ec:	689a      	ldr	r2, [r3, #8]
 80034ee:	4b18      	ldr	r3, [pc, #96]	; (8003550 <HAL_ADC_Init+0x1ac>)
 80034f0:	4013      	ands	r3, r2
 80034f2:	68ba      	ldr	r2, [r7, #8]
 80034f4:	429a      	cmp	r2, r3
 80034f6:	d10b      	bne.n	8003510 <HAL_ADC_Init+0x16c>
                                        ADC_CR2_JEXTTRIG | ADC_CR2_JEXTSEL |
                                        ADC_CR2_TSVREFE                     ))
         == tmp_cr2)
    {
      /* Set ADC error code to none */
      ADC_CLEAR_ERRORCODE(hadc);
 80034f8:	687b      	ldr	r3, [r7, #4]
 80034fa:	2200      	movs	r2, #0
 80034fc:	62da      	str	r2, [r3, #44]	; 0x2c
      
      /* Set the ADC state */
      ADC_STATE_CLR_SET(hadc->State,
 80034fe:	687b      	ldr	r3, [r7, #4]
 8003500:	6a9b      	ldr	r3, [r3, #40]	; 0x28
 8003502:	f023 0303 	bic.w	r3, r3, #3
 8003506:	f043 0201 	orr.w	r2, r3, #1
 800350a:	687b      	ldr	r3, [r7, #4]
 800350c:	629a      	str	r2, [r3, #40]	; 0x28
    if (READ_BIT(hadc->Instance->CR2, ~(ADC_CR2_ADON | ADC_CR2_DMA |
 800350e:	e018      	b.n	8003542 <HAL_ADC_Init+0x19e>
                        HAL_ADC_STATE_READY);
    }
    else
    {
      /* Update ADC state machine to error */
      ADC_STATE_CLR_SET(hadc->State,
 8003510:	687b      	ldr	r3, [r7, #4]
 8003512:	6a9b      	ldr	r3, [r3, #40]	; 0x28
 8003514:	f023 0312 	bic.w	r3, r3, #18
 8003518:	f043 0210 	orr.w	r2, r3, #16
 800351c:	687b      	ldr	r3, [r7, #4]
 800351e:	629a      	str	r2, [r3, #40]	; 0x28
                        HAL_ADC_STATE_BUSY_INTERNAL,
                        HAL_ADC_STATE_ERROR_INTERNAL);
      
      /* Set ADC error code to ADC IP internal error */
      SET_BIT(hadc->ErrorCode, HAL_ADC_ERROR_INTERNAL);
 8003520:	687b      	ldr	r3, [r7, #4]
 8003522:	6adb      	ldr	r3, [r3, #44]	; 0x2c
 8003524:	f043 0201 	orr.w	r2, r3, #1
 8003528:	687b      	ldr	r3, [r7, #4]
 800352a:	62da      	str	r2, [r3, #44]	; 0x2c
      
      tmp_hal_status = HAL_ERROR;
 800352c:	2301      	movs	r3, #1
 800352e:	75fb      	strb	r3, [r7, #23]
    if (READ_BIT(hadc->Instance->CR2, ~(ADC_CR2_ADON | ADC_CR2_DMA |
 8003530:	e007      	b.n	8003542 <HAL_ADC_Init+0x19e>
  
  }
  else
  {
    /* Update ADC state machine to error */
    SET_BIT(hadc->State, HAL_ADC_STATE_ERROR_INTERNAL);
 8003532:	687b      	ldr	r3, [r7, #4]
 8003534:	6a9b      	ldr	r3, [r3, #40]	; 0x28
 8003536:	f043 0210 	orr.w	r2, r3, #16
 800353a:	687b      	ldr	r3, [r7, #4]
 800353c:	629a      	str	r2, [r3, #40]	; 0x28
        
    tmp_hal_status = HAL_ERROR;
 800353e:	2301      	movs	r3, #1
 8003540:	75fb      	strb	r3, [r7, #23]
  }
  
  /* Return function status */
  return tmp_hal_status;
 8003542:	7dfb      	ldrb	r3, [r7, #23]
}
 8003544:	4618      	mov	r0, r3
 8003546:	3718      	adds	r7, #24
 8003548:	46bd      	mov	sp, r7
 800354a:	bd80      	pop	{r7, pc}
 800354c:	ffe1f7fd 	.word	0xffe1f7fd
 8003550:	ff1f0efe 	.word	0xff1f0efe

08003554 <HAL_ADC_Start_DMA>:
  * @param  pData: The destination Buffer address.
  * @param  Length: The length of data to be transferred from ADC peripheral to memory.
  * @retval None
  */
HAL_StatusTypeDef HAL_ADC_Start_DMA(ADC_HandleTypeDef* hadc, uint32_t* pData, uint32_t Length)
{
 8003554:	b580      	push	{r7, lr}
 8003556:	b086      	sub	sp, #24
 8003558:	af00      	add	r7, sp, #0
 800355a:	60f8      	str	r0, [r7, #12]
 800355c:	60b9      	str	r1, [r7, #8]
 800355e:	607a      	str	r2, [r7, #4]
  HAL_StatusTypeDef tmp_hal_status = HAL_OK;
 8003560:	2300      	movs	r3, #0
 8003562:	75fb      	strb	r3, [r7, #23]
  assert_param(IS_ADC_DMA_CAPABILITY_INSTANCE(hadc->Instance));
    
  /* Verification if multimode is disabled (for devices with several ADC)     */
  /* If multimode is enabled, dedicated function multimode conversion         */
  /* start DMA must be used.                                                  */
  if(ADC_MULTIMODE_IS_ENABLE(hadc) == RESET)
 8003564:	68fb      	ldr	r3, [r7, #12]
 8003566:	681b      	ldr	r3, [r3, #0]
 8003568:	4a64      	ldr	r2, [pc, #400]	; (80036fc <HAL_ADC_Start_DMA+0x1a8>)
 800356a:	4293      	cmp	r3, r2
 800356c:	d004      	beq.n	8003578 <HAL_ADC_Start_DMA+0x24>
 800356e:	68fb      	ldr	r3, [r7, #12]
 8003570:	681b      	ldr	r3, [r3, #0]
 8003572:	4a63      	ldr	r2, [pc, #396]	; (8003700 <HAL_ADC_Start_DMA+0x1ac>)
 8003574:	4293      	cmp	r3, r2
 8003576:	d106      	bne.n	8003586 <HAL_ADC_Start_DMA+0x32>
 8003578:	4b60      	ldr	r3, [pc, #384]	; (80036fc <HAL_ADC_Start_DMA+0x1a8>)
 800357a:	685b      	ldr	r3, [r3, #4]
 800357c:	f403 2370 	and.w	r3, r3, #983040	; 0xf0000
 8003580:	2b00      	cmp	r3, #0
 8003582:	f040 80b3 	bne.w	80036ec <HAL_ADC_Start_DMA+0x198>
  {
    /* Process locked */
    __HAL_LOCK(hadc);
 8003586:	68fb      	ldr	r3, [r7, #12]
 8003588:	f893 3024 	ldrb.w	r3, [r3, #36]	; 0x24
 800358c:	2b01      	cmp	r3, #1
 800358e:	d101      	bne.n	8003594 <HAL_ADC_Start_DMA+0x40>
 8003590:	2302      	movs	r3, #2
 8003592:	e0ae      	b.n	80036f2 <HAL_ADC_Start_DMA+0x19e>
 8003594:	68fb      	ldr	r3, [r7, #12]
 8003596:	2201      	movs	r2, #1
 8003598:	f883 2024 	strb.w	r2, [r3, #36]	; 0x24
    
    /* Enable the ADC peripheral */
    tmp_hal_status = ADC_Enable(hadc);
 800359c:	68f8      	ldr	r0, [r7, #12]
 800359e:	f000 f9cb 	bl	8003938 <ADC_Enable>
 80035a2:	4603      	mov	r3, r0
 80035a4:	75fb      	strb	r3, [r7, #23]
    
    /* Start conversion if ADC is effectively enabled */
    if (tmp_hal_status == HAL_OK)
 80035a6:	7dfb      	ldrb	r3, [r7, #23]
 80035a8:	2b00      	cmp	r3, #0
 80035aa:	f040 809a 	bne.w	80036e2 <HAL_ADC_Start_DMA+0x18e>
    {
      /* Set ADC state                                                        */
      /* - Clear state bitfield related to regular group conversion results   */
      /* - Set state bitfield related to regular operation                    */
      ADC_STATE_CLR_SET(hadc->State,
 80035ae:	68fb      	ldr	r3, [r7, #12]
 80035b0:	6a9b      	ldr	r3, [r3, #40]	; 0x28
 80035b2:	f423 6370 	bic.w	r3, r3, #3840	; 0xf00
 80035b6:	f023 0301 	bic.w	r3, r3, #1
 80035ba:	f443 7280 	orr.w	r2, r3, #256	; 0x100
 80035be:	68fb      	ldr	r3, [r7, #12]
 80035c0:	629a      	str	r2, [r3, #40]	; 0x28
                        HAL_ADC_STATE_REG_BUSY);
    
    /* Set group injected state (from auto-injection) and multimode state     */
    /* for all cases of multimode: independent mode, multimode ADC master     */
    /* or multimode ADC slave (for devices with several ADCs):                */
    if (ADC_NONMULTIMODE_OR_MULTIMODEMASTER(hadc))
 80035c2:	68fb      	ldr	r3, [r7, #12]
 80035c4:	681b      	ldr	r3, [r3, #0]
 80035c6:	4a4e      	ldr	r2, [pc, #312]	; (8003700 <HAL_ADC_Start_DMA+0x1ac>)
 80035c8:	4293      	cmp	r3, r2
 80035ca:	d105      	bne.n	80035d8 <HAL_ADC_Start_DMA+0x84>
 80035cc:	4b4b      	ldr	r3, [pc, #300]	; (80036fc <HAL_ADC_Start_DMA+0x1a8>)
 80035ce:	685b      	ldr	r3, [r3, #4]
 80035d0:	f403 2370 	and.w	r3, r3, #983040	; 0xf0000
 80035d4:	2b00      	cmp	r3, #0
 80035d6:	d115      	bne.n	8003604 <HAL_ADC_Start_DMA+0xb0>
    {
      /* Set ADC state (ADC independent or master) */
      CLEAR_BIT(hadc->State, HAL_ADC_STATE_MULTIMODE_SLAVE);
 80035d8:	68fb      	ldr	r3, [r7, #12]
 80035da:	6a9b      	ldr	r3, [r3, #40]	; 0x28
 80035dc:	f423 1280 	bic.w	r2, r3, #1048576	; 0x100000
 80035e0:	68fb      	ldr	r3, [r7, #12]
 80035e2:	629a      	str	r2, [r3, #40]	; 0x28
      
      /* If conversions on group regular are also triggering group injected,  */
      /* update ADC state.                                                    */
      if (READ_BIT(hadc->Instance->CR1, ADC_CR1_JAUTO) != RESET)
 80035e4:	68fb      	ldr	r3, [r7, #12]
 80035e6:	681b      	ldr	r3, [r3, #0]
 80035e8:	685b      	ldr	r3, [r3, #4]
 80035ea:	f403 6380 	and.w	r3, r3, #1024	; 0x400
 80035ee:	2b00      	cmp	r3, #0
 80035f0:	d026      	beq.n	8003640 <HAL_ADC_Start_DMA+0xec>
      {
        ADC_STATE_CLR_SET(hadc->State, HAL_ADC_STATE_INJ_EOC, HAL_ADC_STATE_INJ_BUSY);  
 80035f2:	68fb      	ldr	r3, [r7, #12]
 80035f4:	6a9b      	ldr	r3, [r3, #40]	; 0x28
 80035f6:	f423 5340 	bic.w	r3, r3, #12288	; 0x3000
 80035fa:	f443 5280 	orr.w	r2, r3, #4096	; 0x1000
 80035fe:	68fb      	ldr	r3, [r7, #12]
 8003600:	629a      	str	r2, [r3, #40]	; 0x28
      if (READ_BIT(hadc->Instance->CR1, ADC_CR1_JAUTO) != RESET)
 8003602:	e01d      	b.n	8003640 <HAL_ADC_Start_DMA+0xec>
      }
    }
    else
    {
      /* Set ADC state (ADC slave) */
      SET_BIT(hadc->State, HAL_ADC_STATE_MULTIMODE_SLAVE);
 8003604:	68fb      	ldr	r3, [r7, #12]
 8003606:	6a9b      	ldr	r3, [r3, #40]	; 0x28
 8003608:	f443 1280 	orr.w	r2, r3, #1048576	; 0x100000
 800360c:	68fb      	ldr	r3, [r7, #12]
 800360e:	629a      	str	r2, [r3, #40]	; 0x28
      
      /* If conversions on group regular are also triggering group injected,  */
      /* update ADC state.                                                    */
      if (ADC_MULTIMODE_AUTO_INJECTED(hadc))
 8003610:	68fb      	ldr	r3, [r7, #12]
 8003612:	681b      	ldr	r3, [r3, #0]
 8003614:	4a39      	ldr	r2, [pc, #228]	; (80036fc <HAL_ADC_Start_DMA+0x1a8>)
 8003616:	4293      	cmp	r3, r2
 8003618:	d004      	beq.n	8003624 <HAL_ADC_Start_DMA+0xd0>
 800361a:	68fb      	ldr	r3, [r7, #12]
 800361c:	681b      	ldr	r3, [r3, #0]
 800361e:	4a38      	ldr	r2, [pc, #224]	; (8003700 <HAL_ADC_Start_DMA+0x1ac>)
 8003620:	4293      	cmp	r3, r2
 8003622:	d10d      	bne.n	8003640 <HAL_ADC_Start_DMA+0xec>
 8003624:	4b35      	ldr	r3, [pc, #212]	; (80036fc <HAL_ADC_Start_DMA+0x1a8>)
 8003626:	685b      	ldr	r3, [r3, #4]
 8003628:	f403 6380 	and.w	r3, r3, #1024	; 0x400
 800362c:	2b00      	cmp	r3, #0
 800362e:	d007      	beq.n	8003640 <HAL_ADC_Start_DMA+0xec>
      {
        ADC_STATE_CLR_SET(hadc->State, HAL_ADC_STATE_INJ_EOC, HAL_ADC_STATE_INJ_BUSY);
 8003630:	68fb      	ldr	r3, [r7, #12]
 8003632:	6a9b      	ldr	r3, [r3, #40]	; 0x28
 8003634:	f423 5340 	bic.w	r3, r3, #12288	; 0x3000
 8003638:	f443 5280 	orr.w	r2, r3, #4096	; 0x1000
 800363c:	68fb      	ldr	r3, [r7, #12]
 800363e:	629a      	str	r2, [r3, #40]	; 0x28
      }
    }
      
      /* State machine update: Check if an injected conversion is ongoing */
      if (HAL_IS_BIT_SET(hadc->State, HAL_ADC_STATE_INJ_BUSY))
 8003640:	68fb      	ldr	r3, [r7, #12]
 8003642:	6a9b      	ldr	r3, [r3, #40]	; 0x28
 8003644:	f403 5380 	and.w	r3, r3, #4096	; 0x1000
 8003648:	2b00      	cmp	r3, #0
 800364a:	d006      	beq.n	800365a <HAL_ADC_Start_DMA+0x106>
      {
        /* Reset ADC error code fields related to conversions on group regular */
        CLEAR_BIT(hadc->ErrorCode, (HAL_ADC_ERROR_OVR | HAL_ADC_ERROR_DMA));         
 800364c:	68fb      	ldr	r3, [r7, #12]
 800364e:	6adb      	ldr	r3, [r3, #44]	; 0x2c
 8003650:	f023 0206 	bic.w	r2, r3, #6
 8003654:	68fb      	ldr	r3, [r7, #12]
 8003656:	62da      	str	r2, [r3, #44]	; 0x2c
 8003658:	e002      	b.n	8003660 <HAL_ADC_Start_DMA+0x10c>
      }
      else
      {
        /* Reset ADC all error code fields */
        ADC_CLEAR_ERRORCODE(hadc);
 800365a:	68fb      	ldr	r3, [r7, #12]
 800365c:	2200      	movs	r2, #0
 800365e:	62da      	str	r2, [r3, #44]	; 0x2c
      }
      
      /* Process unlocked */
      /* Unlock before starting ADC conversions: in case of potential         */
      /* interruption, to let the process to ADC IRQ Handler.                 */
      __HAL_UNLOCK(hadc);
 8003660:	68fb      	ldr	r3, [r7, #12]
 8003662:	2200      	movs	r2, #0
 8003664:	f883 2024 	strb.w	r2, [r3, #36]	; 0x24
      
      /* Set the DMA transfer complete callback */
      hadc->DMA_Handle->XferCpltCallback = ADC_DMAConvCplt;
 8003668:	68fb      	ldr	r3, [r7, #12]
 800366a:	6a1b      	ldr	r3, [r3, #32]
 800366c:	4a25      	ldr	r2, [pc, #148]	; (8003704 <HAL_ADC_Start_DMA+0x1b0>)
 800366e:	629a      	str	r2, [r3, #40]	; 0x28

      /* Set the DMA half transfer complete callback */
      hadc->DMA_Handle->XferHalfCpltCallback = ADC_DMAHalfConvCplt;
 8003670:	68fb      	ldr	r3, [r7, #12]
 8003672:	6a1b      	ldr	r3, [r3, #32]
 8003674:	4a24      	ldr	r2, [pc, #144]	; (8003708 <HAL_ADC_Start_DMA+0x1b4>)
 8003676:	62da      	str	r2, [r3, #44]	; 0x2c
      
      /* Set the DMA error callback */
      hadc->DMA_Handle->XferErrorCallback = ADC_DMAError;
 8003678:	68fb      	ldr	r3, [r7, #12]
 800367a:	6a1b      	ldr	r3, [r3, #32]
 800367c:	4a23      	ldr	r2, [pc, #140]	; (800370c <HAL_ADC_Start_DMA+0x1b8>)
 800367e:	631a      	str	r2, [r3, #48]	; 0x30
      /* start (in case of SW start):                                         */
      
      /* Clear regular group conversion flag and overrun flag */
      /* (To ensure of no unknown state from potential previous ADC           */
      /* operations)                                                          */
      __HAL_ADC_CLEAR_FLAG(hadc, ADC_FLAG_EOC);
 8003680:	68fb      	ldr	r3, [r7, #12]
 8003682:	681b      	ldr	r3, [r3, #0]
 8003684:	f06f 0202 	mvn.w	r2, #2
 8003688:	601a      	str	r2, [r3, #0]
      
      /* Enable ADC DMA mode */
      SET_BIT(hadc->Instance->CR2, ADC_CR2_DMA);
 800368a:	68fb      	ldr	r3, [r7, #12]
 800368c:	681b      	ldr	r3, [r3, #0]
 800368e:	689a      	ldr	r2, [r3, #8]
 8003690:	68fb      	ldr	r3, [r7, #12]
 8003692:	681b      	ldr	r3, [r3, #0]
 8003694:	f442 7280 	orr.w	r2, r2, #256	; 0x100
 8003698:	609a      	str	r2, [r3, #8]
      
      /* Start the DMA channel */
      HAL_DMA_Start_IT(hadc->DMA_Handle, (uint32_t)&hadc->Instance->DR, (uint32_t)pData, Length);
 800369a:	68fb      	ldr	r3, [r7, #12]
 800369c:	6a18      	ldr	r0, [r3, #32]
 800369e:	68fb      	ldr	r3, [r7, #12]
 80036a0:	681b      	ldr	r3, [r3, #0]
 80036a2:	334c      	adds	r3, #76	; 0x4c
 80036a4:	4619      	mov	r1, r3
 80036a6:	68ba      	ldr	r2, [r7, #8]
 80036a8:	687b      	ldr	r3, [r7, #4]
 80036aa:	f000 fbaf 	bl	8003e0c <HAL_DMA_Start_IT>
      
      /* Enable conversion of regular group.                                  */
      /* If software start has been selected, conversion starts immediately.  */
      /* If external trigger has been selected, conversion will start at next */
      /* trigger event.                                                       */
      if (ADC_IS_SOFTWARE_START_REGULAR(hadc))
 80036ae:	68fb      	ldr	r3, [r7, #12]
 80036b0:	681b      	ldr	r3, [r3, #0]
 80036b2:	689b      	ldr	r3, [r3, #8]
 80036b4:	f403 2360 	and.w	r3, r3, #917504	; 0xe0000
 80036b8:	f5b3 2f60 	cmp.w	r3, #917504	; 0xe0000
 80036bc:	d108      	bne.n	80036d0 <HAL_ADC_Start_DMA+0x17c>
      {
        /* Start ADC conversion on regular group with SW start */
        SET_BIT(hadc->Instance->CR2, (ADC_CR2_SWSTART | ADC_CR2_EXTTRIG));
 80036be:	68fb      	ldr	r3, [r7, #12]
 80036c0:	681b      	ldr	r3, [r3, #0]
 80036c2:	689a      	ldr	r2, [r3, #8]
 80036c4:	68fb      	ldr	r3, [r7, #12]
 80036c6:	681b      	ldr	r3, [r3, #0]
 80036c8:	f442 02a0 	orr.w	r2, r2, #5242880	; 0x500000
 80036cc:	609a      	str	r2, [r3, #8]
    if (tmp_hal_status == HAL_OK)
 80036ce:	e00f      	b.n	80036f0 <HAL_ADC_Start_DMA+0x19c>
      }
      else
      {
        /* Start ADC conversion on regular group with external trigger */
        SET_BIT(hadc->Instance->CR2, ADC_CR2_EXTTRIG);
 80036d0:	68fb      	ldr	r3, [r7, #12]
 80036d2:	681b      	ldr	r3, [r3, #0]
 80036d4:	689a      	ldr	r2, [r3, #8]
 80036d6:	68fb      	ldr	r3, [r7, #12]
 80036d8:	681b      	ldr	r3, [r3, #0]
 80036da:	f442 1280 	orr.w	r2, r2, #1048576	; 0x100000
 80036de:	609a      	str	r2, [r3, #8]
    if (tmp_hal_status == HAL_OK)
 80036e0:	e006      	b.n	80036f0 <HAL_ADC_Start_DMA+0x19c>
      }
    }
    else
    {
      /* Process unlocked */
      __HAL_UNLOCK(hadc);
 80036e2:	68fb      	ldr	r3, [r7, #12]
 80036e4:	2200      	movs	r2, #0
 80036e6:	f883 2024 	strb.w	r2, [r3, #36]	; 0x24
    if (tmp_hal_status == HAL_OK)
 80036ea:	e001      	b.n	80036f0 <HAL_ADC_Start_DMA+0x19c>
    }
  }
  else
  {
    tmp_hal_status = HAL_ERROR;
 80036ec:	2301      	movs	r3, #1
 80036ee:	75fb      	strb	r3, [r7, #23]
  }
  
  /* Return function status */
  return tmp_hal_status;
 80036f0:	7dfb      	ldrb	r3, [r7, #23]
}
 80036f2:	4618      	mov	r0, r3
 80036f4:	3718      	adds	r7, #24
 80036f6:	46bd      	mov	sp, r7
 80036f8:	bd80      	pop	{r7, pc}
 80036fa:	bf00      	nop
 80036fc:	40012400 	.word	0x40012400
 8003700:	40012800 	.word	0x40012800
 8003704:	08003a6f 	.word	0x08003a6f
 8003708:	08003aeb 	.word	0x08003aeb
 800370c:	08003b07 	.word	0x08003b07

08003710 <HAL_ADC_ConvCpltCallback>:
  * @brief  Conversion complete callback in non blocking mode 
  * @param  hadc: ADC handle
  * @retval None
  */
__weak void HAL_ADC_ConvCpltCallback(ADC_HandleTypeDef* hadc)
{
 8003710:	b480      	push	{r7}
 8003712:	b083      	sub	sp, #12
 8003714:	af00      	add	r7, sp, #0
 8003716:	6078      	str	r0, [r7, #4]
  /* Prevent unused argument(s) compilation warning */
  UNUSED(hadc);
  /* NOTE : This function should not be modified. When the callback is needed,
            function HAL_ADC_ConvCpltCallback must be implemented in the user file.
   */
}
 8003718:	bf00      	nop
 800371a:	370c      	adds	r7, #12
 800371c:	46bd      	mov	sp, r7
 800371e:	bc80      	pop	{r7}
 8003720:	4770      	bx	lr

08003722 <HAL_ADC_ConvHalfCpltCallback>:
  * @brief  Conversion DMA half-transfer callback in non blocking mode 
  * @param  hadc: ADC handle
  * @retval None
  */
__weak void HAL_ADC_ConvHalfCpltCallback(ADC_HandleTypeDef* hadc)
{
 8003722:	b480      	push	{r7}
 8003724:	b083      	sub	sp, #12
 8003726:	af00      	add	r7, sp, #0
 8003728:	6078      	str	r0, [r7, #4]
  /* Prevent unused argument(s) compilation warning */
  UNUSED(hadc);
  /* NOTE : This function should not be modified. When the callback is needed,
            function HAL_ADC_ConvHalfCpltCallback must be implemented in the user file.
  */
}
 800372a:	bf00      	nop
 800372c:	370c      	adds	r7, #12
 800372e:	46bd      	mov	sp, r7
 8003730:	bc80      	pop	{r7}
 8003732:	4770      	bx	lr

08003734 <HAL_ADC_ErrorCallback>:
  *        (ADC conversion with interruption or transfer by DMA)
  * @param  hadc: ADC handle
  * @retval None
  */
__weak void HAL_ADC_ErrorCallback(ADC_HandleTypeDef *hadc)
{
 8003734:	b480      	push	{r7}
 8003736:	b083      	sub	sp, #12
 8003738:	af00      	add	r7, sp, #0
 800373a:	6078      	str	r0, [r7, #4]
  /* Prevent unused argument(s) compilation warning */
  UNUSED(hadc);
  /* NOTE : This function should not be modified. When the callback is needed,
            function HAL_ADC_ErrorCallback must be implemented in the user file.
  */
}
 800373c:	bf00      	nop
 800373e:	370c      	adds	r7, #12
 8003740:	46bd      	mov	sp, r7
 8003742:	bc80      	pop	{r7}
 8003744:	4770      	bx	lr
	...

08003748 <HAL_ADC_ConfigChannel>:
  * @param  hadc: ADC handle
  * @param  sConfig: Structure of ADC channel for regular group.
  * @retval HAL status
  */
HAL_StatusTypeDef HAL_ADC_ConfigChannel(ADC_HandleTypeDef* hadc, ADC_ChannelConfTypeDef* sConfig)
{ 
 8003748:	b480      	push	{r7}
 800374a:	b085      	sub	sp, #20
 800374c:	af00      	add	r7, sp, #0
 800374e:	6078      	str	r0, [r7, #4]
 8003750:	6039      	str	r1, [r7, #0]
  HAL_StatusTypeDef tmp_hal_status = HAL_OK;
 8003752:	2300      	movs	r3, #0
 8003754:	73fb      	strb	r3, [r7, #15]
  __IO uint32_t wait_loop_index = 0U;
 8003756:	2300      	movs	r3, #0
 8003758:	60bb      	str	r3, [r7, #8]
  assert_param(IS_ADC_CHANNEL(sConfig->Channel));
  assert_param(IS_ADC_REGULAR_RANK(sConfig->Rank));
  assert_param(IS_ADC_SAMPLE_TIME(sConfig->SamplingTime));
  
  /* Process locked */
  __HAL_LOCK(hadc);
 800375a:	687b      	ldr	r3, [r7, #4]
 800375c:	f893 3024 	ldrb.w	r3, [r3, #36]	; 0x24
 8003760:	2b01      	cmp	r3, #1
 8003762:	d101      	bne.n	8003768 <HAL_ADC_ConfigChannel+0x20>
 8003764:	2302      	movs	r3, #2
 8003766:	e0dc      	b.n	8003922 <HAL_ADC_ConfigChannel+0x1da>
 8003768:	687b      	ldr	r3, [r7, #4]
 800376a:	2201      	movs	r2, #1
 800376c:	f883 2024 	strb.w	r2, [r3, #36]	; 0x24
  
  
  /* Regular sequence configuration */
  /* For Rank 1 to 6 */
  if (sConfig->Rank < 7U)
 8003770:	683b      	ldr	r3, [r7, #0]
 8003772:	685b      	ldr	r3, [r3, #4]
 8003774:	2b06      	cmp	r3, #6
 8003776:	d81c      	bhi.n	80037b2 <HAL_ADC_ConfigChannel+0x6a>
  {
    MODIFY_REG(hadc->Instance->SQR3                        ,
 8003778:	687b      	ldr	r3, [r7, #4]
 800377a:	681b      	ldr	r3, [r3, #0]
 800377c:	6b59      	ldr	r1, [r3, #52]	; 0x34
 800377e:	683b      	ldr	r3, [r7, #0]
 8003780:	685a      	ldr	r2, [r3, #4]
 8003782:	4613      	mov	r3, r2
 8003784:	009b      	lsls	r3, r3, #2
 8003786:	4413      	add	r3, r2
 8003788:	3b05      	subs	r3, #5
 800378a:	221f      	movs	r2, #31
 800378c:	fa02 f303 	lsl.w	r3, r2, r3
 8003790:	43db      	mvns	r3, r3
 8003792:	4019      	ands	r1, r3
 8003794:	683b      	ldr	r3, [r7, #0]
 8003796:	6818      	ldr	r0, [r3, #0]
 8003798:	683b      	ldr	r3, [r7, #0]
 800379a:	685a      	ldr	r2, [r3, #4]
 800379c:	4613      	mov	r3, r2
 800379e:	009b      	lsls	r3, r3, #2
 80037a0:	4413      	add	r3, r2
 80037a2:	3b05      	subs	r3, #5
 80037a4:	fa00 f203 	lsl.w	r2, r0, r3
 80037a8:	687b      	ldr	r3, [r7, #4]
 80037aa:	681b      	ldr	r3, [r3, #0]
 80037ac:	430a      	orrs	r2, r1
 80037ae:	635a      	str	r2, [r3, #52]	; 0x34
 80037b0:	e03c      	b.n	800382c <HAL_ADC_ConfigChannel+0xe4>
               ADC_SQR3_RK(ADC_SQR3_SQ1, sConfig->Rank)    ,
               ADC_SQR3_RK(sConfig->Channel, sConfig->Rank) );
  }
  /* For Rank 7 to 12 */
  else if (sConfig->Rank < 13U)
 80037b2:	683b      	ldr	r3, [r7, #0]
 80037b4:	685b      	ldr	r3, [r3, #4]
 80037b6:	2b0c      	cmp	r3, #12
 80037b8:	d81c      	bhi.n	80037f4 <HAL_ADC_ConfigChannel+0xac>
  {
    MODIFY_REG(hadc->Instance->SQR2                        ,
 80037ba:	687b      	ldr	r3, [r7, #4]
 80037bc:	681b      	ldr	r3, [r3, #0]
 80037be:	6b19      	ldr	r1, [r3, #48]	; 0x30
 80037c0:	683b      	ldr	r3, [r7, #0]
 80037c2:	685a      	ldr	r2, [r3, #4]
 80037c4:	4613      	mov	r3, r2
 80037c6:	009b      	lsls	r3, r3, #2
 80037c8:	4413      	add	r3, r2
 80037ca:	3b23      	subs	r3, #35	; 0x23
 80037cc:	221f      	movs	r2, #31
 80037ce:	fa02 f303 	lsl.w	r3, r2, r3
 80037d2:	43db      	mvns	r3, r3
 80037d4:	4019      	ands	r1, r3
 80037d6:	683b      	ldr	r3, [r7, #0]
 80037d8:	6818      	ldr	r0, [r3, #0]
 80037da:	683b      	ldr	r3, [r7, #0]
 80037dc:	685a      	ldr	r2, [r3, #4]
 80037de:	4613      	mov	r3, r2
 80037e0:	009b      	lsls	r3, r3, #2
 80037e2:	4413      	add	r3, r2
 80037e4:	3b23      	subs	r3, #35	; 0x23
 80037e6:	fa00 f203 	lsl.w	r2, r0, r3
 80037ea:	687b      	ldr	r3, [r7, #4]
 80037ec:	681b      	ldr	r3, [r3, #0]
 80037ee:	430a      	orrs	r2, r1
 80037f0:	631a      	str	r2, [r3, #48]	; 0x30
 80037f2:	e01b      	b.n	800382c <HAL_ADC_ConfigChannel+0xe4>
               ADC_SQR2_RK(sConfig->Channel, sConfig->Rank) );
  }
  /* For Rank 13 to 16 */
  else
  {
    MODIFY_REG(hadc->Instance->SQR1                        ,
 80037f4:	687b      	ldr	r3, [r7, #4]
 80037f6:	681b      	ldr	r3, [r3, #0]
 80037f8:	6ad9      	ldr	r1, [r3, #44]	; 0x2c
 80037fa:	683b      	ldr	r3, [r7, #0]
 80037fc:	685a      	ldr	r2, [r3, #4]
 80037fe:	4613      	mov	r3, r2
 8003800:	009b      	lsls	r3, r3, #2
 8003802:	4413      	add	r3, r2
 8003804:	3b41      	subs	r3, #65	; 0x41
 8003806:	221f      	movs	r2, #31
 8003808:	fa02 f303 	lsl.w	r3, r2, r3
 800380c:	43db      	mvns	r3, r3
 800380e:	4019      	ands	r1, r3
 8003810:	683b      	ldr	r3, [r7, #0]
 8003812:	6818      	ldr	r0, [r3, #0]
 8003814:	683b      	ldr	r3, [r7, #0]
 8003816:	685a      	ldr	r2, [r3, #4]
 8003818:	4613      	mov	r3, r2
 800381a:	009b      	lsls	r3, r3, #2
 800381c:	4413      	add	r3, r2
 800381e:	3b41      	subs	r3, #65	; 0x41
 8003820:	fa00 f203 	lsl.w	r2, r0, r3
 8003824:	687b      	ldr	r3, [r7, #4]
 8003826:	681b      	ldr	r3, [r3, #0]
 8003828:	430a      	orrs	r2, r1
 800382a:	62da      	str	r2, [r3, #44]	; 0x2c
  }
  
  
  /* Channel sampling time configuration */
  /* For channels 10 to 17 */
  if (sConfig->Channel >= ADC_CHANNEL_10)
 800382c:	683b      	ldr	r3, [r7, #0]
 800382e:	681b      	ldr	r3, [r3, #0]
 8003830:	2b09      	cmp	r3, #9
 8003832:	d91c      	bls.n	800386e <HAL_ADC_ConfigChannel+0x126>
  {
    MODIFY_REG(hadc->Instance->SMPR1                             ,
 8003834:	687b      	ldr	r3, [r7, #4]
 8003836:	681b      	ldr	r3, [r3, #0]
 8003838:	68d9      	ldr	r1, [r3, #12]
 800383a:	683b      	ldr	r3, [r7, #0]
 800383c:	681a      	ldr	r2, [r3, #0]
 800383e:	4613      	mov	r3, r2
 8003840:	005b      	lsls	r3, r3, #1
 8003842:	4413      	add	r3, r2
 8003844:	3b1e      	subs	r3, #30
 8003846:	2207      	movs	r2, #7
 8003848:	fa02 f303 	lsl.w	r3, r2, r3
 800384c:	43db      	mvns	r3, r3
 800384e:	4019      	ands	r1, r3
 8003850:	683b      	ldr	r3, [r7, #0]
 8003852:	6898      	ldr	r0, [r3, #8]
 8003854:	683b      	ldr	r3, [r7, #0]
 8003856:	681a      	ldr	r2, [r3, #0]
 8003858:	4613      	mov	r3, r2
 800385a:	005b      	lsls	r3, r3, #1
 800385c:	4413      	add	r3, r2
 800385e:	3b1e      	subs	r3, #30
 8003860:	fa00 f203 	lsl.w	r2, r0, r3
 8003864:	687b      	ldr	r3, [r7, #4]
 8003866:	681b      	ldr	r3, [r3, #0]
 8003868:	430a      	orrs	r2, r1
 800386a:	60da      	str	r2, [r3, #12]
 800386c:	e019      	b.n	80038a2 <HAL_ADC_ConfigChannel+0x15a>
               ADC_SMPR1(ADC_SMPR1_SMP10, sConfig->Channel)      ,
               ADC_SMPR1(sConfig->SamplingTime, sConfig->Channel) );
  }
  else /* For channels 0 to 9 */
  {
    MODIFY_REG(hadc->Instance->SMPR2                             ,
 800386e:	687b      	ldr	r3, [r7, #4]
 8003870:	681b      	ldr	r3, [r3, #0]
 8003872:	6919      	ldr	r1, [r3, #16]
 8003874:	683b      	ldr	r3, [r7, #0]
 8003876:	681a      	ldr	r2, [r3, #0]
 8003878:	4613      	mov	r3, r2
 800387a:	005b      	lsls	r3, r3, #1
 800387c:	4413      	add	r3, r2
 800387e:	2207      	movs	r2, #7
 8003880:	fa02 f303 	lsl.w	r3, r2, r3
 8003884:	43db      	mvns	r3, r3
 8003886:	4019      	ands	r1, r3
 8003888:	683b      	ldr	r3, [r7, #0]
 800388a:	6898      	ldr	r0, [r3, #8]
 800388c:	683b      	ldr	r3, [r7, #0]
 800388e:	681a      	ldr	r2, [r3, #0]
 8003890:	4613      	mov	r3, r2
 8003892:	005b      	lsls	r3, r3, #1
 8003894:	4413      	add	r3, r2
 8003896:	fa00 f203 	lsl.w	r2, r0, r3
 800389a:	687b      	ldr	r3, [r7, #4]
 800389c:	681b      	ldr	r3, [r3, #0]
 800389e:	430a      	orrs	r2, r1
 80038a0:	611a      	str	r2, [r3, #16]
               ADC_SMPR2(sConfig->SamplingTime, sConfig->Channel) );
  }
  
  /* If ADC1 Channel_16 or Channel_17 is selected, enable Temperature sensor  */
  /* and VREFINT measurement path.                                            */
  if ((sConfig->Channel == ADC_CHANNEL_TEMPSENSOR) ||
 80038a2:	683b      	ldr	r3, [r7, #0]
 80038a4:	681b      	ldr	r3, [r3, #0]
 80038a6:	2b10      	cmp	r3, #16
 80038a8:	d003      	beq.n	80038b2 <HAL_ADC_ConfigChannel+0x16a>
      (sConfig->Channel == ADC_CHANNEL_VREFINT)      )
 80038aa:	683b      	ldr	r3, [r7, #0]
 80038ac:	681b      	ldr	r3, [r3, #0]
  if ((sConfig->Channel == ADC_CHANNEL_TEMPSENSOR) ||
 80038ae:	2b11      	cmp	r3, #17
 80038b0:	d132      	bne.n	8003918 <HAL_ADC_ConfigChannel+0x1d0>
  {
    /* For STM32F1 devices with several ADC: Only ADC1 can access internal    */
    /* measurement channels (VrefInt/TempSensor). If these channels are       */
    /* intended to be set on other ADC instances, an error is reported.       */
    if (hadc->Instance == ADC1)
 80038b2:	687b      	ldr	r3, [r7, #4]
 80038b4:	681b      	ldr	r3, [r3, #0]
 80038b6:	4a1d      	ldr	r2, [pc, #116]	; (800392c <HAL_ADC_ConfigChannel+0x1e4>)
 80038b8:	4293      	cmp	r3, r2
 80038ba:	d125      	bne.n	8003908 <HAL_ADC_ConfigChannel+0x1c0>
    {
      if (READ_BIT(hadc->Instance->CR2, ADC_CR2_TSVREFE) == RESET)
 80038bc:	687b      	ldr	r3, [r7, #4]
 80038be:	681b      	ldr	r3, [r3, #0]
 80038c0:	689b      	ldr	r3, [r3, #8]
 80038c2:	f403 0300 	and.w	r3, r3, #8388608	; 0x800000
 80038c6:	2b00      	cmp	r3, #0
 80038c8:	d126      	bne.n	8003918 <HAL_ADC_ConfigChannel+0x1d0>
      {
        SET_BIT(hadc->Instance->CR2, ADC_CR2_TSVREFE);
 80038ca:	687b      	ldr	r3, [r7, #4]
 80038cc:	681b      	ldr	r3, [r3, #0]
 80038ce:	689a      	ldr	r2, [r3, #8]
 80038d0:	687b      	ldr	r3, [r7, #4]
 80038d2:	681b      	ldr	r3, [r3, #0]
 80038d4:	f442 0200 	orr.w	r2, r2, #8388608	; 0x800000
 80038d8:	609a      	str	r2, [r3, #8]
        
        if (sConfig->Channel == ADC_CHANNEL_TEMPSENSOR)
 80038da:	683b      	ldr	r3, [r7, #0]
 80038dc:	681b      	ldr	r3, [r3, #0]
 80038de:	2b10      	cmp	r3, #16
 80038e0:	d11a      	bne.n	8003918 <HAL_ADC_ConfigChannel+0x1d0>
        {
          /* Delay for temperature sensor stabilization time */
          /* Compute number of CPU cycles to wait for */
          wait_loop_index = (ADC_TEMPSENSOR_DELAY_US * (SystemCoreClock / 1000000U));
 80038e2:	4b13      	ldr	r3, [pc, #76]	; (8003930 <HAL_ADC_ConfigChannel+0x1e8>)
 80038e4:	681b      	ldr	r3, [r3, #0]
 80038e6:	4a13      	ldr	r2, [pc, #76]	; (8003934 <HAL_ADC_ConfigChannel+0x1ec>)
 80038e8:	fba2 2303 	umull	r2, r3, r2, r3
 80038ec:	0c9a      	lsrs	r2, r3, #18
 80038ee:	4613      	mov	r3, r2
 80038f0:	009b      	lsls	r3, r3, #2
 80038f2:	4413      	add	r3, r2
 80038f4:	005b      	lsls	r3, r3, #1
 80038f6:	60bb      	str	r3, [r7, #8]
          while(wait_loop_index != 0U)
 80038f8:	e002      	b.n	8003900 <HAL_ADC_ConfigChannel+0x1b8>
          {
            wait_loop_index--;
 80038fa:	68bb      	ldr	r3, [r7, #8]
 80038fc:	3b01      	subs	r3, #1
 80038fe:	60bb      	str	r3, [r7, #8]
          while(wait_loop_index != 0U)
 8003900:	68bb      	ldr	r3, [r7, #8]
 8003902:	2b00      	cmp	r3, #0
 8003904:	d1f9      	bne.n	80038fa <HAL_ADC_ConfigChannel+0x1b2>
 8003906:	e007      	b.n	8003918 <HAL_ADC_ConfigChannel+0x1d0>
      }
    }
    else
    {
      /* Update ADC state machine to error */
      SET_BIT(hadc->State, HAL_ADC_STATE_ERROR_CONFIG);
 8003908:	687b      	ldr	r3, [r7, #4]
 800390a:	6a9b      	ldr	r3, [r3, #40]	; 0x28
 800390c:	f043 0220 	orr.w	r2, r3, #32
 8003910:	687b      	ldr	r3, [r7, #4]
 8003912:	629a      	str	r2, [r3, #40]	; 0x28
      
      tmp_hal_status = HAL_ERROR;
 8003914:	2301      	movs	r3, #1
 8003916:	73fb      	strb	r3, [r7, #15]
    }
  }
  
  /* Process unlocked */
  __HAL_UNLOCK(hadc);
 8003918:	687b      	ldr	r3, [r7, #4]
 800391a:	2200      	movs	r2, #0
 800391c:	f883 2024 	strb.w	r2, [r3, #36]	; 0x24
  
  /* Return function status */
  return tmp_hal_status;
 8003920:	7bfb      	ldrb	r3, [r7, #15]
}
 8003922:	4618      	mov	r0, r3
 8003924:	3714      	adds	r7, #20
 8003926:	46bd      	mov	sp, r7
 8003928:	bc80      	pop	{r7}
 800392a:	4770      	bx	lr
 800392c:	40012400 	.word	0x40012400
 8003930:	20000014 	.word	0x20000014
 8003934:	431bde83 	.word	0x431bde83

08003938 <ADC_Enable>:
  *         and voltage regulator must be enabled (done into HAL_ADC_Init()).
  * @param  hadc: ADC handle
  * @retval HAL status.
  */
HAL_StatusTypeDef ADC_Enable(ADC_HandleTypeDef* hadc)
{
 8003938:	b580      	push	{r7, lr}
 800393a:	b084      	sub	sp, #16
 800393c:	af00      	add	r7, sp, #0
 800393e:	6078      	str	r0, [r7, #4]
  uint32_t tickstart = 0U;
 8003940:	2300      	movs	r3, #0
 8003942:	60fb      	str	r3, [r7, #12]
  __IO uint32_t wait_loop_index = 0U;
 8003944:	2300      	movs	r3, #0
 8003946:	60bb      	str	r3, [r7, #8]
  
  /* ADC enable and wait for ADC ready (in case of ADC is disabled or         */
  /* enabling phase not yet completed: flag ADC ready not yet set).           */
  /* Timeout implemented to not be stuck if ADC cannot be enabled (possible   */
  /* causes: ADC clock not running, ...).                                     */
  if (ADC_IS_ENABLE(hadc) == RESET)
 8003948:	687b      	ldr	r3, [r7, #4]
 800394a:	681b      	ldr	r3, [r3, #0]
 800394c:	689b      	ldr	r3, [r3, #8]
 800394e:	f003 0301 	and.w	r3, r3, #1
 8003952:	2b01      	cmp	r3, #1
 8003954:	d040      	beq.n	80039d8 <ADC_Enable+0xa0>
  {
    /* Enable the Peripheral */
    __HAL_ADC_ENABLE(hadc);
 8003956:	687b      	ldr	r3, [r7, #4]
 8003958:	681b      	ldr	r3, [r3, #0]
 800395a:	689a      	ldr	r2, [r3, #8]
 800395c:	687b      	ldr	r3, [r7, #4]
 800395e:	681b      	ldr	r3, [r3, #0]
 8003960:	f042 0201 	orr.w	r2, r2, #1
 8003964:	609a      	str	r2, [r3, #8]
    
    /* Delay for ADC stabilization time */
    /* Compute number of CPU cycles to wait for */
    wait_loop_index = (ADC_STAB_DELAY_US * (SystemCoreClock / 1000000U));
 8003966:	4b1f      	ldr	r3, [pc, #124]	; (80039e4 <ADC_Enable+0xac>)
 8003968:	681b      	ldr	r3, [r3, #0]
 800396a:	4a1f      	ldr	r2, [pc, #124]	; (80039e8 <ADC_Enable+0xb0>)
 800396c:	fba2 2303 	umull	r2, r3, r2, r3
 8003970:	0c9b      	lsrs	r3, r3, #18
 8003972:	60bb      	str	r3, [r7, #8]
    while(wait_loop_index != 0U)
 8003974:	e002      	b.n	800397c <ADC_Enable+0x44>
    {
      wait_loop_index--;
 8003976:	68bb      	ldr	r3, [r7, #8]
 8003978:	3b01      	subs	r3, #1
 800397a:	60bb      	str	r3, [r7, #8]
    while(wait_loop_index != 0U)
 800397c:	68bb      	ldr	r3, [r7, #8]
 800397e:	2b00      	cmp	r3, #0
 8003980:	d1f9      	bne.n	8003976 <ADC_Enable+0x3e>
    }
    
    /* Get tick count */
    tickstart = HAL_GetTick();
 8003982:	f7ff fce1 	bl	8003348 <HAL_GetTick>
 8003986:	60f8      	str	r0, [r7, #12]

    /* Wait for ADC effectively enabled */
    while(ADC_IS_ENABLE(hadc) == RESET)
 8003988:	e01f      	b.n	80039ca <ADC_Enable+0x92>
    {
      if((HAL_GetTick() - tickstart) > ADC_ENABLE_TIMEOUT)
 800398a:	f7ff fcdd 	bl	8003348 <HAL_GetTick>
 800398e:	4602      	mov	r2, r0
 8003990:	68fb      	ldr	r3, [r7, #12]
 8003992:	1ad3      	subs	r3, r2, r3
 8003994:	2b02      	cmp	r3, #2
 8003996:	d918      	bls.n	80039ca <ADC_Enable+0x92>
      {
        /* New check to avoid false timeout detection in case of preemption */
        if(ADC_IS_ENABLE(hadc) == RESET)
 8003998:	687b      	ldr	r3, [r7, #4]
 800399a:	681b      	ldr	r3, [r3, #0]
 800399c:	689b      	ldr	r3, [r3, #8]
 800399e:	f003 0301 	and.w	r3, r3, #1
 80039a2:	2b01      	cmp	r3, #1
 80039a4:	d011      	beq.n	80039ca <ADC_Enable+0x92>
        {
          /* Update ADC state machine to error */
          SET_BIT(hadc->State, HAL_ADC_STATE_ERROR_INTERNAL);
 80039a6:	687b      	ldr	r3, [r7, #4]
 80039a8:	6a9b      	ldr	r3, [r3, #40]	; 0x28
 80039aa:	f043 0210 	orr.w	r2, r3, #16
 80039ae:	687b      	ldr	r3, [r7, #4]
 80039b0:	629a      	str	r2, [r3, #40]	; 0x28

          /* Set ADC error code to ADC IP internal error */
          SET_BIT(hadc->ErrorCode, HAL_ADC_ERROR_INTERNAL);
 80039b2:	687b      	ldr	r3, [r7, #4]
 80039b4:	6adb      	ldr	r3, [r3, #44]	; 0x2c
 80039b6:	f043 0201 	orr.w	r2, r3, #1
 80039ba:	687b      	ldr	r3, [r7, #4]
 80039bc:	62da      	str	r2, [r3, #44]	; 0x2c

          /* Process unlocked */
          __HAL_UNLOCK(hadc);
 80039be:	687b      	ldr	r3, [r7, #4]
 80039c0:	2200      	movs	r2, #0
 80039c2:	f883 2024 	strb.w	r2, [r3, #36]	; 0x24

          return HAL_ERROR;
 80039c6:	2301      	movs	r3, #1
 80039c8:	e007      	b.n	80039da <ADC_Enable+0xa2>
    while(ADC_IS_ENABLE(hadc) == RESET)
 80039ca:	687b      	ldr	r3, [r7, #4]
 80039cc:	681b      	ldr	r3, [r3, #0]
 80039ce:	689b      	ldr	r3, [r3, #8]
 80039d0:	f003 0301 	and.w	r3, r3, #1
 80039d4:	2b01      	cmp	r3, #1
 80039d6:	d1d8      	bne.n	800398a <ADC_Enable+0x52>
      }
    }
  }
   
  /* Return HAL status */
  return HAL_OK;
 80039d8:	2300      	movs	r3, #0
}
 80039da:	4618      	mov	r0, r3
 80039dc:	3710      	adds	r7, #16
 80039de:	46bd      	mov	sp, r7
 80039e0:	bd80      	pop	{r7, pc}
 80039e2:	bf00      	nop
 80039e4:	20000014 	.word	0x20000014
 80039e8:	431bde83 	.word	0x431bde83

080039ec <ADC_ConversionStop_Disable>:
  *         stopped to disable the ADC.
  * @param  hadc: ADC handle
  * @retval HAL status.
  */
HAL_StatusTypeDef ADC_ConversionStop_Disable(ADC_HandleTypeDef* hadc)
{
 80039ec:	b580      	push	{r7, lr}
 80039ee:	b084      	sub	sp, #16
 80039f0:	af00      	add	r7, sp, #0
 80039f2:	6078      	str	r0, [r7, #4]
  uint32_t tickstart = 0U;
 80039f4:	2300      	movs	r3, #0
 80039f6:	60fb      	str	r3, [r7, #12]
  
  /* Verification if ADC is not already disabled */
  if (ADC_IS_ENABLE(hadc) != RESET)
 80039f8:	687b      	ldr	r3, [r7, #4]
 80039fa:	681b      	ldr	r3, [r3, #0]
 80039fc:	689b      	ldr	r3, [r3, #8]
 80039fe:	f003 0301 	and.w	r3, r3, #1
 8003a02:	2b01      	cmp	r3, #1
 8003a04:	d12e      	bne.n	8003a64 <ADC_ConversionStop_Disable+0x78>
  {
    /* Disable the ADC peripheral */
    __HAL_ADC_DISABLE(hadc);
 8003a06:	687b      	ldr	r3, [r7, #4]
 8003a08:	681b      	ldr	r3, [r3, #0]
 8003a0a:	689a      	ldr	r2, [r3, #8]
 8003a0c:	687b      	ldr	r3, [r7, #4]
 8003a0e:	681b      	ldr	r3, [r3, #0]
 8003a10:	f022 0201 	bic.w	r2, r2, #1
 8003a14:	609a      	str	r2, [r3, #8]
     
    /* Get tick count */
    tickstart = HAL_GetTick();
 8003a16:	f7ff fc97 	bl	8003348 <HAL_GetTick>
 8003a1a:	60f8      	str	r0, [r7, #12]
    
    /* Wait for ADC effectively disabled */
    while(ADC_IS_ENABLE(hadc) != RESET)
 8003a1c:	e01b      	b.n	8003a56 <ADC_ConversionStop_Disable+0x6a>
    {
      if((HAL_GetTick() - tickstart) > ADC_DISABLE_TIMEOUT)
 8003a1e:	f7ff fc93 	bl	8003348 <HAL_GetTick>
 8003a22:	4602      	mov	r2, r0
 8003a24:	68fb      	ldr	r3, [r7, #12]
 8003a26:	1ad3      	subs	r3, r2, r3
 8003a28:	2b02      	cmp	r3, #2
 8003a2a:	d914      	bls.n	8003a56 <ADC_ConversionStop_Disable+0x6a>
      {
        /* New check to avoid false timeout detection in case of preemption */
        if(ADC_IS_ENABLE(hadc) != RESET)
 8003a2c:	687b      	ldr	r3, [r7, #4]
 8003a2e:	681b      	ldr	r3, [r3, #0]
 8003a30:	689b      	ldr	r3, [r3, #8]
 8003a32:	f003 0301 	and.w	r3, r3, #1
 8003a36:	2b01      	cmp	r3, #1
 8003a38:	d10d      	bne.n	8003a56 <ADC_ConversionStop_Disable+0x6a>
        {
          /* Update ADC state machine to error */
          SET_BIT(hadc->State, HAL_ADC_STATE_ERROR_INTERNAL);
 8003a3a:	687b      	ldr	r3, [r7, #4]
 8003a3c:	6a9b      	ldr	r3, [r3, #40]	; 0x28
 8003a3e:	f043 0210 	orr.w	r2, r3, #16
 8003a42:	687b      	ldr	r3, [r7, #4]
 8003a44:	629a      	str	r2, [r3, #40]	; 0x28

          /* Set ADC error code to ADC IP internal error */
          SET_BIT(hadc->ErrorCode, HAL_ADC_ERROR_INTERNAL);
 8003a46:	687b      	ldr	r3, [r7, #4]
 8003a48:	6adb      	ldr	r3, [r3, #44]	; 0x2c
 8003a4a:	f043 0201 	orr.w	r2, r3, #1
 8003a4e:	687b      	ldr	r3, [r7, #4]
 8003a50:	62da      	str	r2, [r3, #44]	; 0x2c

          return HAL_ERROR;
 8003a52:	2301      	movs	r3, #1
 8003a54:	e007      	b.n	8003a66 <ADC_ConversionStop_Disable+0x7a>
    while(ADC_IS_ENABLE(hadc) != RESET)
 8003a56:	687b      	ldr	r3, [r7, #4]
 8003a58:	681b      	ldr	r3, [r3, #0]
 8003a5a:	689b      	ldr	r3, [r3, #8]
 8003a5c:	f003 0301 	and.w	r3, r3, #1
 8003a60:	2b01      	cmp	r3, #1
 8003a62:	d0dc      	beq.n	8003a1e <ADC_ConversionStop_Disable+0x32>
      }
    }
  }
  
  /* Return HAL status */
  return HAL_OK;
 8003a64:	2300      	movs	r3, #0
}
 8003a66:	4618      	mov	r0, r3
 8003a68:	3710      	adds	r7, #16
 8003a6a:	46bd      	mov	sp, r7
 8003a6c:	bd80      	pop	{r7, pc}

08003a6e <ADC_DMAConvCplt>:
  * @brief  DMA transfer complete callback. 
  * @param  hdma: pointer to DMA handle.
  * @retval None
  */
void ADC_DMAConvCplt(DMA_HandleTypeDef *hdma)
{
 8003a6e:	b580      	push	{r7, lr}
 8003a70:	b084      	sub	sp, #16
 8003a72:	af00      	add	r7, sp, #0
 8003a74:	6078      	str	r0, [r7, #4]
  /* Retrieve ADC handle corresponding to current DMA handle */
  ADC_HandleTypeDef* hadc = ( ADC_HandleTypeDef* )((DMA_HandleTypeDef* )hdma)->Parent;
 8003a76:	687b      	ldr	r3, [r7, #4]
 8003a78:	6a5b      	ldr	r3, [r3, #36]	; 0x24
 8003a7a:	60fb      	str	r3, [r7, #12]
 
  /* Update state machine on conversion status if not in error state */
  if (HAL_IS_BIT_CLR(hadc->State, HAL_ADC_STATE_ERROR_INTERNAL | HAL_ADC_STATE_ERROR_DMA))
 8003a7c:	68fb      	ldr	r3, [r7, #12]
 8003a7e:	6a9b      	ldr	r3, [r3, #40]	; 0x28
 8003a80:	f003 0350 	and.w	r3, r3, #80	; 0x50
 8003a84:	2b00      	cmp	r3, #0
 8003a86:	d127      	bne.n	8003ad8 <ADC_DMAConvCplt+0x6a>
  {
    /* Update ADC state machine */
    SET_BIT(hadc->State, HAL_ADC_STATE_REG_EOC);
 8003a88:	68fb      	ldr	r3, [r7, #12]
 8003a8a:	6a9b      	ldr	r3, [r3, #40]	; 0x28
 8003a8c:	f443 7200 	orr.w	r2, r3, #512	; 0x200
 8003a90:	68fb      	ldr	r3, [r7, #12]
 8003a92:	629a      	str	r2, [r3, #40]	; 0x28
    /* Determine whether any further conversion upcoming on group regular     */
    /* by external trigger, continuous mode or scan sequence on going.        */
    /* Note: On STM32F1 devices, in case of sequencer enabled                 */
    /*       (several ranks selected), end of conversion flag is raised       */
    /*       at the end of the sequence.                                      */
    if(ADC_IS_SOFTWARE_START_REGULAR(hadc)        && 
 8003a94:	68fb      	ldr	r3, [r7, #12]
 8003a96:	681b      	ldr	r3, [r3, #0]
 8003a98:	689b      	ldr	r3, [r3, #8]
 8003a9a:	f403 2360 	and.w	r3, r3, #917504	; 0xe0000
 8003a9e:	f5b3 2f60 	cmp.w	r3, #917504	; 0xe0000
 8003aa2:	d115      	bne.n	8003ad0 <ADC_DMAConvCplt+0x62>
       (hadc->Init.ContinuousConvMode == DISABLE)   )
 8003aa4:	68fb      	ldr	r3, [r7, #12]
 8003aa6:	7b1b      	ldrb	r3, [r3, #12]
    if(ADC_IS_SOFTWARE_START_REGULAR(hadc)        && 
 8003aa8:	2b00      	cmp	r3, #0
 8003aaa:	d111      	bne.n	8003ad0 <ADC_DMAConvCplt+0x62>
    {
      /* Set ADC state */
      CLEAR_BIT(hadc->State, HAL_ADC_STATE_REG_BUSY);   
 8003aac:	68fb      	ldr	r3, [r7, #12]
 8003aae:	6a9b      	ldr	r3, [r3, #40]	; 0x28
 8003ab0:	f423 7280 	bic.w	r2, r3, #256	; 0x100
 8003ab4:	68fb      	ldr	r3, [r7, #12]
 8003ab6:	629a      	str	r2, [r3, #40]	; 0x28
      
      if (HAL_IS_BIT_CLR(hadc->State, HAL_ADC_STATE_INJ_BUSY))
 8003ab8:	68fb      	ldr	r3, [r7, #12]
 8003aba:	6a9b      	ldr	r3, [r3, #40]	; 0x28
 8003abc:	f403 5380 	and.w	r3, r3, #4096	; 0x1000
 8003ac0:	2b00      	cmp	r3, #0
 8003ac2:	d105      	bne.n	8003ad0 <ADC_DMAConvCplt+0x62>
      {
        SET_BIT(hadc->State, HAL_ADC_STATE_READY);
 8003ac4:	68fb      	ldr	r3, [r7, #12]
 8003ac6:	6a9b      	ldr	r3, [r3, #40]	; 0x28
 8003ac8:	f043 0201 	orr.w	r2, r3, #1
 8003acc:	68fb      	ldr	r3, [r7, #12]
 8003ace:	629a      	str	r2, [r3, #40]	; 0x28
    
    /* Conversion complete callback */
#if (USE_HAL_ADC_REGISTER_CALLBACKS == 1)
    hadc->ConvCpltCallback(hadc);
#else
    HAL_ADC_ConvCpltCallback(hadc);
 8003ad0:	68f8      	ldr	r0, [r7, #12]
 8003ad2:	f7ff fe1d 	bl	8003710 <HAL_ADC_ConvCpltCallback>
  else
  {
    /* Call DMA error callback */
    hadc->DMA_Handle->XferErrorCallback(hdma);
  }
}
 8003ad6:	e004      	b.n	8003ae2 <ADC_DMAConvCplt+0x74>
    hadc->DMA_Handle->XferErrorCallback(hdma);
 8003ad8:	68fb      	ldr	r3, [r7, #12]
 8003ada:	6a1b      	ldr	r3, [r3, #32]
 8003adc:	6b1b      	ldr	r3, [r3, #48]	; 0x30
 8003ade:	6878      	ldr	r0, [r7, #4]
 8003ae0:	4798      	blx	r3
}
 8003ae2:	bf00      	nop
 8003ae4:	3710      	adds	r7, #16
 8003ae6:	46bd      	mov	sp, r7
 8003ae8:	bd80      	pop	{r7, pc}

08003aea <ADC_DMAHalfConvCplt>:
  * @brief  DMA half transfer complete callback. 
  * @param  hdma: pointer to DMA handle.
  * @retval None
  */
void ADC_DMAHalfConvCplt(DMA_HandleTypeDef *hdma)   
{
 8003aea:	b580      	push	{r7, lr}
 8003aec:	b084      	sub	sp, #16
 8003aee:	af00      	add	r7, sp, #0
 8003af0:	6078      	str	r0, [r7, #4]
  /* Retrieve ADC handle corresponding to current DMA handle */
  ADC_HandleTypeDef* hadc = ( ADC_HandleTypeDef* )((DMA_HandleTypeDef* )hdma)->Parent;
 8003af2:	687b      	ldr	r3, [r7, #4]
 8003af4:	6a5b      	ldr	r3, [r3, #36]	; 0x24
 8003af6:	60fb      	str	r3, [r7, #12]
  
  /* Half conversion callback */
#if (USE_HAL_ADC_REGISTER_CALLBACKS == 1)
    hadc->ConvHalfCpltCallback(hadc);
#else
  HAL_ADC_ConvHalfCpltCallback(hadc);
 8003af8:	68f8      	ldr	r0, [r7, #12]
 8003afa:	f7ff fe12 	bl	8003722 <HAL_ADC_ConvHalfCpltCallback>
#endif /* USE_HAL_ADC_REGISTER_CALLBACKS */
}
 8003afe:	bf00      	nop
 8003b00:	3710      	adds	r7, #16
 8003b02:	46bd      	mov	sp, r7
 8003b04:	bd80      	pop	{r7, pc}

08003b06 <ADC_DMAError>:
  * @brief  DMA error callback 
  * @param  hdma: pointer to DMA handle.
  * @retval None
  */
void ADC_DMAError(DMA_HandleTypeDef *hdma)   
{
 8003b06:	b580      	push	{r7, lr}
 8003b08:	b084      	sub	sp, #16
 8003b0a:	af00      	add	r7, sp, #0
 8003b0c:	6078      	str	r0, [r7, #4]
  /* Retrieve ADC handle corresponding to current DMA handle */
  ADC_HandleTypeDef* hadc = ( ADC_HandleTypeDef* )((DMA_HandleTypeDef* )hdma)->Parent;
 8003b0e:	687b      	ldr	r3, [r7, #4]
 8003b10:	6a5b      	ldr	r3, [r3, #36]	; 0x24
 8003b12:	60fb      	str	r3, [r7, #12]
  
  /* Set ADC state */
  SET_BIT(hadc->State, HAL_ADC_STATE_ERROR_DMA);
 8003b14:	68fb      	ldr	r3, [r7, #12]
 8003b16:	6a9b      	ldr	r3, [r3, #40]	; 0x28
 8003b18:	f043 0240 	orr.w	r2, r3, #64	; 0x40
 8003b1c:	68fb      	ldr	r3, [r7, #12]
 8003b1e:	629a      	str	r2, [r3, #40]	; 0x28
  
  /* Set ADC error code to DMA error */
  SET_BIT(hadc->ErrorCode, HAL_ADC_ERROR_DMA);
 8003b20:	68fb      	ldr	r3, [r7, #12]
 8003b22:	6adb      	ldr	r3, [r3, #44]	; 0x2c
 8003b24:	f043 0204 	orr.w	r2, r3, #4
 8003b28:	68fb      	ldr	r3, [r7, #12]
 8003b2a:	62da      	str	r2, [r3, #44]	; 0x2c
  
  /* Error callback */
#if (USE_HAL_ADC_REGISTER_CALLBACKS == 1)
  hadc->ErrorCallback(hadc);
#else
  HAL_ADC_ErrorCallback(hadc);
 8003b2c:	68f8      	ldr	r0, [r7, #12]
 8003b2e:	f7ff fe01 	bl	8003734 <HAL_ADC_ErrorCallback>
#endif /* USE_HAL_ADC_REGISTER_CALLBACKS */
}
 8003b32:	bf00      	nop
 8003b34:	3710      	adds	r7, #16
 8003b36:	46bd      	mov	sp, r7
 8003b38:	bd80      	pop	{r7, pc}
	...

08003b3c <__NVIC_SetPriorityGrouping>:
           In case of a conflict between priority grouping and available
           priority bits (__NVIC_PRIO_BITS), the smallest possible priority group is set.
  \param [in]      PriorityGroup  Priority grouping field.
 */
__STATIC_INLINE void __NVIC_SetPriorityGrouping(uint32_t PriorityGroup)
{
 8003b3c:	b480      	push	{r7}
 8003b3e:	b085      	sub	sp, #20
 8003b40:	af00      	add	r7, sp, #0
 8003b42:	6078      	str	r0, [r7, #4]
  uint32_t reg_value;
  uint32_t PriorityGroupTmp = (PriorityGroup & (uint32_t)0x07UL);             /* only values 0..7 are used          */
 8003b44:	687b      	ldr	r3, [r7, #4]
 8003b46:	f003 0307 	and.w	r3, r3, #7
 8003b4a:	60fb      	str	r3, [r7, #12]

  reg_value  =  SCB->AIRCR;                                                   /* read old register configuration    */
 8003b4c:	4b0c      	ldr	r3, [pc, #48]	; (8003b80 <__NVIC_SetPriorityGrouping+0x44>)
 8003b4e:	68db      	ldr	r3, [r3, #12]
 8003b50:	60bb      	str	r3, [r7, #8]
  reg_value &= ~((uint32_t)(SCB_AIRCR_VECTKEY_Msk | SCB_AIRCR_PRIGROUP_Msk)); /* clear bits to change               */
 8003b52:	68ba      	ldr	r2, [r7, #8]
 8003b54:	f64f 03ff 	movw	r3, #63743	; 0xf8ff
 8003b58:	4013      	ands	r3, r2
 8003b5a:	60bb      	str	r3, [r7, #8]
  reg_value  =  (reg_value                                   |
                ((uint32_t)0x5FAUL << SCB_AIRCR_VECTKEY_Pos) |
                (PriorityGroupTmp << SCB_AIRCR_PRIGROUP_Pos) );               /* Insert write key and priority group */
 8003b5c:	68fb      	ldr	r3, [r7, #12]
 8003b5e:	021a      	lsls	r2, r3, #8
                ((uint32_t)0x5FAUL << SCB_AIRCR_VECTKEY_Pos) |
 8003b60:	68bb      	ldr	r3, [r7, #8]
 8003b62:	4313      	orrs	r3, r2
  reg_value  =  (reg_value                                   |
 8003b64:	f043 63bf 	orr.w	r3, r3, #100139008	; 0x5f80000
 8003b68:	f443 3300 	orr.w	r3, r3, #131072	; 0x20000
 8003b6c:	60bb      	str	r3, [r7, #8]
  SCB->AIRCR =  reg_value;
 8003b6e:	4a04      	ldr	r2, [pc, #16]	; (8003b80 <__NVIC_SetPriorityGrouping+0x44>)
 8003b70:	68bb      	ldr	r3, [r7, #8]
 8003b72:	60d3      	str	r3, [r2, #12]
}
 8003b74:	bf00      	nop
 8003b76:	3714      	adds	r7, #20
 8003b78:	46bd      	mov	sp, r7
 8003b7a:	bc80      	pop	{r7}
 8003b7c:	4770      	bx	lr
 8003b7e:	bf00      	nop
 8003b80:	e000ed00 	.word	0xe000ed00

08003b84 <__NVIC_GetPriorityGrouping>:
  \brief   Get Priority Grouping
  \details Reads the priority grouping field from the NVIC Interrupt Controller.
  \return                Priority grouping field (SCB->AIRCR [10:8] PRIGROUP field).
 */
__STATIC_INLINE uint32_t __NVIC_GetPriorityGrouping(void)
{
 8003b84:	b480      	push	{r7}
 8003b86:	af00      	add	r7, sp, #0
  return ((uint32_t)((SCB->AIRCR & SCB_AIRCR_PRIGROUP_Msk) >> SCB_AIRCR_PRIGROUP_Pos));
 8003b88:	4b04      	ldr	r3, [pc, #16]	; (8003b9c <__NVIC_GetPriorityGrouping+0x18>)
 8003b8a:	68db      	ldr	r3, [r3, #12]
 8003b8c:	0a1b      	lsrs	r3, r3, #8
 8003b8e:	f003 0307 	and.w	r3, r3, #7
}
 8003b92:	4618      	mov	r0, r3
 8003b94:	46bd      	mov	sp, r7
 8003b96:	bc80      	pop	{r7}
 8003b98:	4770      	bx	lr
 8003b9a:	bf00      	nop
 8003b9c:	e000ed00 	.word	0xe000ed00

08003ba0 <__NVIC_EnableIRQ>:
  \details Enables a device specific interrupt in the NVIC interrupt controller.
  \param [in]      IRQn  Device specific interrupt number.
  \note    IRQn must not be negative.
 */
__STATIC_INLINE void __NVIC_EnableIRQ(IRQn_Type IRQn)
{
 8003ba0:	b480      	push	{r7}
 8003ba2:	b083      	sub	sp, #12
 8003ba4:	af00      	add	r7, sp, #0
 8003ba6:	4603      	mov	r3, r0
 8003ba8:	71fb      	strb	r3, [r7, #7]
  if ((int32_t)(IRQn) >= 0)
 8003baa:	f997 3007 	ldrsb.w	r3, [r7, #7]
 8003bae:	2b00      	cmp	r3, #0
 8003bb0:	db0b      	blt.n	8003bca <__NVIC_EnableIRQ+0x2a>
  {
    NVIC->ISER[(((uint32_t)IRQn) >> 5UL)] = (uint32_t)(1UL << (((uint32_t)IRQn) & 0x1FUL));
 8003bb2:	79fb      	ldrb	r3, [r7, #7]
 8003bb4:	f003 021f 	and.w	r2, r3, #31
 8003bb8:	4906      	ldr	r1, [pc, #24]	; (8003bd4 <__NVIC_EnableIRQ+0x34>)
 8003bba:	f997 3007 	ldrsb.w	r3, [r7, #7]
 8003bbe:	095b      	lsrs	r3, r3, #5
 8003bc0:	2001      	movs	r0, #1
 8003bc2:	fa00 f202 	lsl.w	r2, r0, r2
 8003bc6:	f841 2023 	str.w	r2, [r1, r3, lsl #2]
  }
}
 8003bca:	bf00      	nop
 8003bcc:	370c      	adds	r7, #12
 8003bce:	46bd      	mov	sp, r7
 8003bd0:	bc80      	pop	{r7}
 8003bd2:	4770      	bx	lr
 8003bd4:	e000e100 	.word	0xe000e100

08003bd8 <__NVIC_SetPriority>:
  \param [in]      IRQn  Interrupt number.
  \param [in]  priority  Priority to set.
  \note    The priority cannot be set for every processor exception.
 */
__STATIC_INLINE void __NVIC_SetPriority(IRQn_Type IRQn, uint32_t priority)
{
 8003bd8:	b480      	push	{r7}
 8003bda:	b083      	sub	sp, #12
 8003bdc:	af00      	add	r7, sp, #0
 8003bde:	4603      	mov	r3, r0
 8003be0:	6039      	str	r1, [r7, #0]
 8003be2:	71fb      	strb	r3, [r7, #7]
  if ((int32_t)(IRQn) >= 0)
 8003be4:	f997 3007 	ldrsb.w	r3, [r7, #7]
 8003be8:	2b00      	cmp	r3, #0
 8003bea:	db0a      	blt.n	8003c02 <__NVIC_SetPriority+0x2a>
  {
    NVIC->IP[((uint32_t)IRQn)]               = (uint8_t)((priority << (8U - __NVIC_PRIO_BITS)) & (uint32_t)0xFFUL);
 8003bec:	683b      	ldr	r3, [r7, #0]
 8003bee:	b2da      	uxtb	r2, r3
 8003bf0:	490c      	ldr	r1, [pc, #48]	; (8003c24 <__NVIC_SetPriority+0x4c>)
 8003bf2:	f997 3007 	ldrsb.w	r3, [r7, #7]
 8003bf6:	0112      	lsls	r2, r2, #4
 8003bf8:	b2d2      	uxtb	r2, r2
 8003bfa:	440b      	add	r3, r1
 8003bfc:	f883 2300 	strb.w	r2, [r3, #768]	; 0x300
  }
  else
  {
    SCB->SHP[(((uint32_t)IRQn) & 0xFUL)-4UL] = (uint8_t)((priority << (8U - __NVIC_PRIO_BITS)) & (uint32_t)0xFFUL);
  }
}
 8003c00:	e00a      	b.n	8003c18 <__NVIC_SetPriority+0x40>
    SCB->SHP[(((uint32_t)IRQn) & 0xFUL)-4UL] = (uint8_t)((priority << (8U - __NVIC_PRIO_BITS)) & (uint32_t)0xFFUL);
 8003c02:	683b      	ldr	r3, [r7, #0]
 8003c04:	b2da      	uxtb	r2, r3
 8003c06:	4908      	ldr	r1, [pc, #32]	; (8003c28 <__NVIC_SetPriority+0x50>)
 8003c08:	79fb      	ldrb	r3, [r7, #7]
 8003c0a:	f003 030f 	and.w	r3, r3, #15
 8003c0e:	3b04      	subs	r3, #4
 8003c10:	0112      	lsls	r2, r2, #4
 8003c12:	b2d2      	uxtb	r2, r2
 8003c14:	440b      	add	r3, r1
 8003c16:	761a      	strb	r2, [r3, #24]
}
 8003c18:	bf00      	nop
 8003c1a:	370c      	adds	r7, #12
 8003c1c:	46bd      	mov	sp, r7
 8003c1e:	bc80      	pop	{r7}
 8003c20:	4770      	bx	lr
 8003c22:	bf00      	nop
 8003c24:	e000e100 	.word	0xe000e100
 8003c28:	e000ed00 	.word	0xe000ed00

08003c2c <NVIC_EncodePriority>:
  \param [in]   PreemptPriority  Preemptive priority value (starting from 0).
  \param [in]       SubPriority  Subpriority value (starting from 0).
  \return                        Encoded priority. Value can be used in the function \ref NVIC_SetPriority().
 */
__STATIC_INLINE uint32_t NVIC_EncodePriority (uint32_t PriorityGroup, uint32_t PreemptPriority, uint32_t SubPriority)
{
 8003c2c:	b480      	push	{r7}
 8003c2e:	b089      	sub	sp, #36	; 0x24
 8003c30:	af00      	add	r7, sp, #0
 8003c32:	60f8      	str	r0, [r7, #12]
 8003c34:	60b9      	str	r1, [r7, #8]
 8003c36:	607a      	str	r2, [r7, #4]
  uint32_t PriorityGroupTmp = (PriorityGroup & (uint32_t)0x07UL);   /* only values 0..7 are used          */
 8003c38:	68fb      	ldr	r3, [r7, #12]
 8003c3a:	f003 0307 	and.w	r3, r3, #7
 8003c3e:	61fb      	str	r3, [r7, #28]
  uint32_t PreemptPriorityBits;
  uint32_t SubPriorityBits;

  PreemptPriorityBits = ((7UL - PriorityGroupTmp) > (uint32_t)(__NVIC_PRIO_BITS)) ? (uint32_t)(__NVIC_PRIO_BITS) : (uint32_t)(7UL - PriorityGroupTmp);
 8003c40:	69fb      	ldr	r3, [r7, #28]
 8003c42:	f1c3 0307 	rsb	r3, r3, #7
 8003c46:	2b04      	cmp	r3, #4
 8003c48:	bf28      	it	cs
 8003c4a:	2304      	movcs	r3, #4
 8003c4c:	61bb      	str	r3, [r7, #24]
  SubPriorityBits     = ((PriorityGroupTmp + (uint32_t)(__NVIC_PRIO_BITS)) < (uint32_t)7UL) ? (uint32_t)0UL : (uint32_t)((PriorityGroupTmp - 7UL) + (uint32_t)(__NVIC_PRIO_BITS));
 8003c4e:	69fb      	ldr	r3, [r7, #28]
 8003c50:	3304      	adds	r3, #4
 8003c52:	2b06      	cmp	r3, #6
 8003c54:	d902      	bls.n	8003c5c <NVIC_EncodePriority+0x30>
 8003c56:	69fb      	ldr	r3, [r7, #28]
 8003c58:	3b03      	subs	r3, #3
 8003c5a:	e000      	b.n	8003c5e <NVIC_EncodePriority+0x32>
 8003c5c:	2300      	movs	r3, #0
 8003c5e:	617b      	str	r3, [r7, #20]

  return (
           ((PreemptPriority & (uint32_t)((1UL << (PreemptPriorityBits)) - 1UL)) << SubPriorityBits) |
 8003c60:	f04f 32ff 	mov.w	r2, #4294967295
 8003c64:	69bb      	ldr	r3, [r7, #24]
 8003c66:	fa02 f303 	lsl.w	r3, r2, r3
 8003c6a:	43da      	mvns	r2, r3
 8003c6c:	68bb      	ldr	r3, [r7, #8]
 8003c6e:	401a      	ands	r2, r3
 8003c70:	697b      	ldr	r3, [r7, #20]
 8003c72:	409a      	lsls	r2, r3
           ((SubPriority     & (uint32_t)((1UL << (SubPriorityBits    )) - 1UL)))
 8003c74:	f04f 31ff 	mov.w	r1, #4294967295
 8003c78:	697b      	ldr	r3, [r7, #20]
 8003c7a:	fa01 f303 	lsl.w	r3, r1, r3
 8003c7e:	43d9      	mvns	r1, r3
 8003c80:	687b      	ldr	r3, [r7, #4]
 8003c82:	400b      	ands	r3, r1
           ((PreemptPriority & (uint32_t)((1UL << (PreemptPriorityBits)) - 1UL)) << SubPriorityBits) |
 8003c84:	4313      	orrs	r3, r2
         );
}
 8003c86:	4618      	mov	r0, r3
 8003c88:	3724      	adds	r7, #36	; 0x24
 8003c8a:	46bd      	mov	sp, r7
 8003c8c:	bc80      	pop	{r7}
 8003c8e:	4770      	bx	lr

08003c90 <SysTick_Config>:
  \note    When the variable <b>__Vendor_SysTickConfig</b> is set to 1, then the
           function <b>SysTick_Config</b> is not included. In this case, the file <b><i>device</i>.h</b>
           must contain a vendor-specific implementation of this function.
 */
__STATIC_INLINE uint32_t SysTick_Config(uint32_t ticks)
{
 8003c90:	b580      	push	{r7, lr}
 8003c92:	b082      	sub	sp, #8
 8003c94:	af00      	add	r7, sp, #0
 8003c96:	6078      	str	r0, [r7, #4]
  if ((ticks - 1UL) > SysTick_LOAD_RELOAD_Msk)
 8003c98:	687b      	ldr	r3, [r7, #4]
 8003c9a:	3b01      	subs	r3, #1
 8003c9c:	f1b3 7f80 	cmp.w	r3, #16777216	; 0x1000000
 8003ca0:	d301      	bcc.n	8003ca6 <SysTick_Config+0x16>
  {
    return (1UL);                                                   /* Reload value impossible */
 8003ca2:	2301      	movs	r3, #1
 8003ca4:	e00f      	b.n	8003cc6 <SysTick_Config+0x36>
  }

  SysTick->LOAD  = (uint32_t)(ticks - 1UL);                         /* set reload register */
 8003ca6:	4a0a      	ldr	r2, [pc, #40]	; (8003cd0 <SysTick_Config+0x40>)
 8003ca8:	687b      	ldr	r3, [r7, #4]
 8003caa:	3b01      	subs	r3, #1
 8003cac:	6053      	str	r3, [r2, #4]
  NVIC_SetPriority (SysTick_IRQn, (1UL << __NVIC_PRIO_BITS) - 1UL); /* set Priority for Systick Interrupt */
 8003cae:	210f      	movs	r1, #15
 8003cb0:	f04f 30ff 	mov.w	r0, #4294967295
 8003cb4:	f7ff ff90 	bl	8003bd8 <__NVIC_SetPriority>
  SysTick->VAL   = 0UL;                                             /* Load the SysTick Counter Value */
 8003cb8:	4b05      	ldr	r3, [pc, #20]	; (8003cd0 <SysTick_Config+0x40>)
 8003cba:	2200      	movs	r2, #0
 8003cbc:	609a      	str	r2, [r3, #8]
  SysTick->CTRL  = SysTick_CTRL_CLKSOURCE_Msk |
 8003cbe:	4b04      	ldr	r3, [pc, #16]	; (8003cd0 <SysTick_Config+0x40>)
 8003cc0:	2207      	movs	r2, #7
 8003cc2:	601a      	str	r2, [r3, #0]
                   SysTick_CTRL_TICKINT_Msk   |
                   SysTick_CTRL_ENABLE_Msk;                         /* Enable SysTick IRQ and SysTick Timer */
  return (0UL);                                                     /* Function successful */
 8003cc4:	2300      	movs	r3, #0
}
 8003cc6:	4618      	mov	r0, r3
 8003cc8:	3708      	adds	r7, #8
 8003cca:	46bd      	mov	sp, r7
 8003ccc:	bd80      	pop	{r7, pc}
 8003cce:	bf00      	nop
 8003cd0:	e000e010 	.word	0xe000e010

08003cd4 <HAL_NVIC_SetPriorityGrouping>:
  * @note   When the NVIC_PriorityGroup_0 is selected, IRQ preemption is no more possible. 
  *         The pending IRQ priority will be managed only by the subpriority. 
  * @retval None
  */
void HAL_NVIC_SetPriorityGrouping(uint32_t PriorityGroup)
{
 8003cd4:	b580      	push	{r7, lr}
 8003cd6:	b082      	sub	sp, #8
 8003cd8:	af00      	add	r7, sp, #0
 8003cda:	6078      	str	r0, [r7, #4]
  /* Check the parameters */
  assert_param(IS_NVIC_PRIORITY_GROUP(PriorityGroup));
  
  /* Set the PRIGROUP[10:8] bits according to the PriorityGroup parameter value */
  NVIC_SetPriorityGrouping(PriorityGroup);
 8003cdc:	6878      	ldr	r0, [r7, #4]
 8003cde:	f7ff ff2d 	bl	8003b3c <__NVIC_SetPriorityGrouping>
}
 8003ce2:	bf00      	nop
 8003ce4:	3708      	adds	r7, #8
 8003ce6:	46bd      	mov	sp, r7
 8003ce8:	bd80      	pop	{r7, pc}

08003cea <HAL_NVIC_SetPriority>:
  *         This parameter can be a value between 0 and 15
  *         A lower priority value indicates a higher priority.          
  * @retval None
  */
void HAL_NVIC_SetPriority(IRQn_Type IRQn, uint32_t PreemptPriority, uint32_t SubPriority)
{ 
 8003cea:	b580      	push	{r7, lr}
 8003cec:	b086      	sub	sp, #24
 8003cee:	af00      	add	r7, sp, #0
 8003cf0:	4603      	mov	r3, r0
 8003cf2:	60b9      	str	r1, [r7, #8]
 8003cf4:	607a      	str	r2, [r7, #4]
 8003cf6:	73fb      	strb	r3, [r7, #15]
  uint32_t prioritygroup = 0x00U;
 8003cf8:	2300      	movs	r3, #0
 8003cfa:	617b      	str	r3, [r7, #20]
  
  /* Check the parameters */
  assert_param(IS_NVIC_SUB_PRIORITY(SubPriority));
  assert_param(IS_NVIC_PREEMPTION_PRIORITY(PreemptPriority));
  
  prioritygroup = NVIC_GetPriorityGrouping();
 8003cfc:	f7ff ff42 	bl	8003b84 <__NVIC_GetPriorityGrouping>
 8003d00:	6178      	str	r0, [r7, #20]
  
  NVIC_SetPriority(IRQn, NVIC_EncodePriority(prioritygroup, PreemptPriority, SubPriority));
 8003d02:	687a      	ldr	r2, [r7, #4]
 8003d04:	68b9      	ldr	r1, [r7, #8]
 8003d06:	6978      	ldr	r0, [r7, #20]
 8003d08:	f7ff ff90 	bl	8003c2c <NVIC_EncodePriority>
 8003d0c:	4602      	mov	r2, r0
 8003d0e:	f997 300f 	ldrsb.w	r3, [r7, #15]
 8003d12:	4611      	mov	r1, r2
 8003d14:	4618      	mov	r0, r3
 8003d16:	f7ff ff5f 	bl	8003bd8 <__NVIC_SetPriority>
}
 8003d1a:	bf00      	nop
 8003d1c:	3718      	adds	r7, #24
 8003d1e:	46bd      	mov	sp, r7
 8003d20:	bd80      	pop	{r7, pc}

08003d22 <HAL_NVIC_EnableIRQ>:
  *         This parameter can be an enumerator of IRQn_Type enumeration
  *         (For the complete STM32 Devices IRQ Channels list, please refer to the appropriate CMSIS device file (stm32f10xxx.h))
  * @retval None
  */
void HAL_NVIC_EnableIRQ(IRQn_Type IRQn)
{
 8003d22:	b580      	push	{r7, lr}
 8003d24:	b082      	sub	sp, #8
 8003d26:	af00      	add	r7, sp, #0
 8003d28:	4603      	mov	r3, r0
 8003d2a:	71fb      	strb	r3, [r7, #7]
  /* Check the parameters */
  assert_param(IS_NVIC_DEVICE_IRQ(IRQn));

  /* Enable interrupt */
  NVIC_EnableIRQ(IRQn);
 8003d2c:	f997 3007 	ldrsb.w	r3, [r7, #7]
 8003d30:	4618      	mov	r0, r3
 8003d32:	f7ff ff35 	bl	8003ba0 <__NVIC_EnableIRQ>
}
 8003d36:	bf00      	nop
 8003d38:	3708      	adds	r7, #8
 8003d3a:	46bd      	mov	sp, r7
 8003d3c:	bd80      	pop	{r7, pc}

08003d3e <HAL_SYSTICK_Config>:
  * @param  TicksNumb: Specifies the ticks Number of ticks between two interrupts.
  * @retval status:  - 0  Function succeeded.
  *                  - 1  Function failed.
  */
uint32_t HAL_SYSTICK_Config(uint32_t TicksNumb)
{
 8003d3e:	b580      	push	{r7, lr}
 8003d40:	b082      	sub	sp, #8
 8003d42:	af00      	add	r7, sp, #0
 8003d44:	6078      	str	r0, [r7, #4]
   return SysTick_Config(TicksNumb);
 8003d46:	6878      	ldr	r0, [r7, #4]
 8003d48:	f7ff ffa2 	bl	8003c90 <SysTick_Config>
 8003d4c:	4603      	mov	r3, r0
}
 8003d4e:	4618      	mov	r0, r3
 8003d50:	3708      	adds	r7, #8
 8003d52:	46bd      	mov	sp, r7
 8003d54:	bd80      	pop	{r7, pc}
	...

08003d58 <HAL_DMA_Init>:
  * @param  hdma: Pointer to a DMA_HandleTypeDef structure that contains
  *               the configuration information for the specified DMA Channel.
  * @retval HAL status
  */
HAL_StatusTypeDef HAL_DMA_Init(DMA_HandleTypeDef *hdma)
{
 8003d58:	b480      	push	{r7}
 8003d5a:	b085      	sub	sp, #20
 8003d5c:	af00      	add	r7, sp, #0
 8003d5e:	6078      	str	r0, [r7, #4]
  uint32_t tmp = 0U;
 8003d60:	2300      	movs	r3, #0
 8003d62:	60fb      	str	r3, [r7, #12]

  /* Check the DMA handle allocation */
  if(hdma == NULL)
 8003d64:	687b      	ldr	r3, [r7, #4]
 8003d66:	2b00      	cmp	r3, #0
 8003d68:	d101      	bne.n	8003d6e <HAL_DMA_Init+0x16>
  {
    return HAL_ERROR;
 8003d6a:	2301      	movs	r3, #1
 8003d6c:	e043      	b.n	8003df6 <HAL_DMA_Init+0x9e>
    hdma->ChannelIndex = (((uint32_t)hdma->Instance - (uint32_t)DMA2_Channel1) / ((uint32_t)DMA2_Channel2 - (uint32_t)DMA2_Channel1)) << 2;
    hdma->DmaBaseAddress = DMA2;
  }
#else
  /* DMA1 */
  hdma->ChannelIndex = (((uint32_t)hdma->Instance - (uint32_t)DMA1_Channel1) / ((uint32_t)DMA1_Channel2 - (uint32_t)DMA1_Channel1)) << 2;
 8003d6e:	687b      	ldr	r3, [r7, #4]
 8003d70:	681b      	ldr	r3, [r3, #0]
 8003d72:	461a      	mov	r2, r3
 8003d74:	4b22      	ldr	r3, [pc, #136]	; (8003e00 <HAL_DMA_Init+0xa8>)
 8003d76:	4413      	add	r3, r2
 8003d78:	4a22      	ldr	r2, [pc, #136]	; (8003e04 <HAL_DMA_Init+0xac>)
 8003d7a:	fba2 2303 	umull	r2, r3, r2, r3
 8003d7e:	091b      	lsrs	r3, r3, #4
 8003d80:	009a      	lsls	r2, r3, #2
 8003d82:	687b      	ldr	r3, [r7, #4]
 8003d84:	641a      	str	r2, [r3, #64]	; 0x40
  hdma->DmaBaseAddress = DMA1;
 8003d86:	687b      	ldr	r3, [r7, #4]
 8003d88:	4a1f      	ldr	r2, [pc, #124]	; (8003e08 <HAL_DMA_Init+0xb0>)
 8003d8a:	63da      	str	r2, [r3, #60]	; 0x3c
#endif /* DMA2 */

  /* Change DMA peripheral state */
  hdma->State = HAL_DMA_STATE_BUSY;
 8003d8c:	687b      	ldr	r3, [r7, #4]
 8003d8e:	2202      	movs	r2, #2
 8003d90:	f883 2021 	strb.w	r2, [r3, #33]	; 0x21

  /* Get the CR register value */
  tmp = hdma->Instance->CCR;
 8003d94:	687b      	ldr	r3, [r7, #4]
 8003d96:	681b      	ldr	r3, [r3, #0]
 8003d98:	681b      	ldr	r3, [r3, #0]
 8003d9a:	60fb      	str	r3, [r7, #12]

  /* Clear PL, MSIZE, PSIZE, MINC, PINC, CIRC and DIR bits */
  tmp &= ((uint32_t)~(DMA_CCR_PL    | DMA_CCR_MSIZE  | DMA_CCR_PSIZE  | \
 8003d9c:	68fb      	ldr	r3, [r7, #12]
 8003d9e:	f423 537f 	bic.w	r3, r3, #16320	; 0x3fc0
 8003da2:	f023 0330 	bic.w	r3, r3, #48	; 0x30
 8003da6:	60fb      	str	r3, [r7, #12]
                      DMA_CCR_MINC  | DMA_CCR_PINC   | DMA_CCR_CIRC   | \
                      DMA_CCR_DIR));

  /* Prepare the DMA Channel configuration */
  tmp |=  hdma->Init.Direction        |
 8003da8:	687b      	ldr	r3, [r7, #4]
 8003daa:	685a      	ldr	r2, [r3, #4]
          hdma->Init.PeriphInc           | hdma->Init.MemInc           |
 8003dac:	687b      	ldr	r3, [r7, #4]
 8003dae:	689b      	ldr	r3, [r3, #8]
  tmp |=  hdma->Init.Direction        |
 8003db0:	431a      	orrs	r2, r3
          hdma->Init.PeriphInc           | hdma->Init.MemInc           |
 8003db2:	687b      	ldr	r3, [r7, #4]
 8003db4:	68db      	ldr	r3, [r3, #12]
 8003db6:	431a      	orrs	r2, r3
          hdma->Init.PeriphDataAlignment | hdma->Init.MemDataAlignment |
 8003db8:	687b      	ldr	r3, [r7, #4]
 8003dba:	691b      	ldr	r3, [r3, #16]
          hdma->Init.PeriphInc           | hdma->Init.MemInc           |
 8003dbc:	431a      	orrs	r2, r3
          hdma->Init.PeriphDataAlignment | hdma->Init.MemDataAlignment |
 8003dbe:	687b      	ldr	r3, [r7, #4]
 8003dc0:	695b      	ldr	r3, [r3, #20]
 8003dc2:	431a      	orrs	r2, r3
          hdma->Init.Mode                | hdma->Init.Priority;
 8003dc4:	687b      	ldr	r3, [r7, #4]
 8003dc6:	699b      	ldr	r3, [r3, #24]
          hdma->Init.PeriphDataAlignment | hdma->Init.MemDataAlignment |
 8003dc8:	431a      	orrs	r2, r3
          hdma->Init.Mode                | hdma->Init.Priority;
 8003dca:	687b      	ldr	r3, [r7, #4]
 8003dcc:	69db      	ldr	r3, [r3, #28]
 8003dce:	4313      	orrs	r3, r2
  tmp |=  hdma->Init.Direction        |
 8003dd0:	68fa      	ldr	r2, [r7, #12]
 8003dd2:	4313      	orrs	r3, r2
 8003dd4:	60fb      	str	r3, [r7, #12]

  /* Write to DMA Channel CR register */
  hdma->Instance->CCR = tmp;
 8003dd6:	687b      	ldr	r3, [r7, #4]
 8003dd8:	681b      	ldr	r3, [r3, #0]
 8003dda:	68fa      	ldr	r2, [r7, #12]
 8003ddc:	601a      	str	r2, [r3, #0]

  /* Initialise the error code */
  hdma->ErrorCode = HAL_DMA_ERROR_NONE;
 8003dde:	687b      	ldr	r3, [r7, #4]
 8003de0:	2200      	movs	r2, #0
 8003de2:	639a      	str	r2, [r3, #56]	; 0x38

  /* Initialize the DMA state*/
  hdma->State = HAL_DMA_STATE_READY;
 8003de4:	687b      	ldr	r3, [r7, #4]
 8003de6:	2201      	movs	r2, #1
 8003de8:	f883 2021 	strb.w	r2, [r3, #33]	; 0x21
  /* Allocate lock resource and initialize it */
  hdma->Lock = HAL_UNLOCKED;
 8003dec:	687b      	ldr	r3, [r7, #4]
 8003dee:	2200      	movs	r2, #0
 8003df0:	f883 2020 	strb.w	r2, [r3, #32]

  return HAL_OK;
 8003df4:	2300      	movs	r3, #0
}
 8003df6:	4618      	mov	r0, r3
 8003df8:	3714      	adds	r7, #20
 8003dfa:	46bd      	mov	sp, r7
 8003dfc:	bc80      	pop	{r7}
 8003dfe:	4770      	bx	lr
 8003e00:	bffdfff8 	.word	0xbffdfff8
 8003e04:	cccccccd 	.word	0xcccccccd
 8003e08:	40020000 	.word	0x40020000

08003e0c <HAL_DMA_Start_IT>:
  * @param  DstAddress: The destination memory Buffer address
  * @param  DataLength: The length of data to be transferred from source to destination
  * @retval HAL status
  */
HAL_StatusTypeDef HAL_DMA_Start_IT(DMA_HandleTypeDef *hdma, uint32_t SrcAddress, uint32_t DstAddress, uint32_t DataLength)
{
 8003e0c:	b580      	push	{r7, lr}
 8003e0e:	b086      	sub	sp, #24
 8003e10:	af00      	add	r7, sp, #0
 8003e12:	60f8      	str	r0, [r7, #12]
 8003e14:	60b9      	str	r1, [r7, #8]
 8003e16:	607a      	str	r2, [r7, #4]
 8003e18:	603b      	str	r3, [r7, #0]
  HAL_StatusTypeDef status = HAL_OK;
 8003e1a:	2300      	movs	r3, #0
 8003e1c:	75fb      	strb	r3, [r7, #23]

  /* Check the parameters */
  assert_param(IS_DMA_BUFFER_SIZE(DataLength));

  /* Process locked */
  __HAL_LOCK(hdma);
 8003e1e:	68fb      	ldr	r3, [r7, #12]
 8003e20:	f893 3020 	ldrb.w	r3, [r3, #32]
 8003e24:	2b01      	cmp	r3, #1
 8003e26:	d101      	bne.n	8003e2c <HAL_DMA_Start_IT+0x20>
 8003e28:	2302      	movs	r3, #2
 8003e2a:	e04a      	b.n	8003ec2 <HAL_DMA_Start_IT+0xb6>
 8003e2c:	68fb      	ldr	r3, [r7, #12]
 8003e2e:	2201      	movs	r2, #1
 8003e30:	f883 2020 	strb.w	r2, [r3, #32]
  
  if(HAL_DMA_STATE_READY == hdma->State)
 8003e34:	68fb      	ldr	r3, [r7, #12]
 8003e36:	f893 3021 	ldrb.w	r3, [r3, #33]	; 0x21
 8003e3a:	2b01      	cmp	r3, #1
 8003e3c:	d13a      	bne.n	8003eb4 <HAL_DMA_Start_IT+0xa8>
  {
    /* Change DMA peripheral state */
    hdma->State = HAL_DMA_STATE_BUSY;
 8003e3e:	68fb      	ldr	r3, [r7, #12]
 8003e40:	2202      	movs	r2, #2
 8003e42:	f883 2021 	strb.w	r2, [r3, #33]	; 0x21
    hdma->ErrorCode = HAL_DMA_ERROR_NONE;
 8003e46:	68fb      	ldr	r3, [r7, #12]
 8003e48:	2200      	movs	r2, #0
 8003e4a:	639a      	str	r2, [r3, #56]	; 0x38
    
    /* Disable the peripheral */
    __HAL_DMA_DISABLE(hdma);
 8003e4c:	68fb      	ldr	r3, [r7, #12]
 8003e4e:	681b      	ldr	r3, [r3, #0]
 8003e50:	681a      	ldr	r2, [r3, #0]
 8003e52:	68fb      	ldr	r3, [r7, #12]
 8003e54:	681b      	ldr	r3, [r3, #0]
 8003e56:	f022 0201 	bic.w	r2, r2, #1
 8003e5a:	601a      	str	r2, [r3, #0]
    
    /* Configure the source, destination address and the data length & clear flags*/
    DMA_SetConfig(hdma, SrcAddress, DstAddress, DataLength);
 8003e5c:	683b      	ldr	r3, [r7, #0]
 8003e5e:	687a      	ldr	r2, [r7, #4]
 8003e60:	68b9      	ldr	r1, [r7, #8]
 8003e62:	68f8      	ldr	r0, [r7, #12]
 8003e64:	f000 f9ae 	bl	80041c4 <DMA_SetConfig>
    
    /* Enable the transfer complete interrupt */
    /* Enable the transfer Error interrupt */
    if(NULL != hdma->XferHalfCpltCallback)
 8003e68:	68fb      	ldr	r3, [r7, #12]
 8003e6a:	6adb      	ldr	r3, [r3, #44]	; 0x2c
 8003e6c:	2b00      	cmp	r3, #0
 8003e6e:	d008      	beq.n	8003e82 <HAL_DMA_Start_IT+0x76>
    {
      /* Enable the Half transfer complete interrupt as well */
      __HAL_DMA_ENABLE_IT(hdma, (DMA_IT_TC | DMA_IT_HT | DMA_IT_TE));
 8003e70:	68fb      	ldr	r3, [r7, #12]
 8003e72:	681b      	ldr	r3, [r3, #0]
 8003e74:	681a      	ldr	r2, [r3, #0]
 8003e76:	68fb      	ldr	r3, [r7, #12]
 8003e78:	681b      	ldr	r3, [r3, #0]
 8003e7a:	f042 020e 	orr.w	r2, r2, #14
 8003e7e:	601a      	str	r2, [r3, #0]
 8003e80:	e00f      	b.n	8003ea2 <HAL_DMA_Start_IT+0x96>
    }
    else
    {
      __HAL_DMA_DISABLE_IT(hdma, DMA_IT_HT);
 8003e82:	68fb      	ldr	r3, [r7, #12]
 8003e84:	681b      	ldr	r3, [r3, #0]
 8003e86:	681a      	ldr	r2, [r3, #0]
 8003e88:	68fb      	ldr	r3, [r7, #12]
 8003e8a:	681b      	ldr	r3, [r3, #0]
 8003e8c:	f022 0204 	bic.w	r2, r2, #4
 8003e90:	601a      	str	r2, [r3, #0]
      __HAL_DMA_ENABLE_IT(hdma, (DMA_IT_TC | DMA_IT_TE));
 8003e92:	68fb      	ldr	r3, [r7, #12]
 8003e94:	681b      	ldr	r3, [r3, #0]
 8003e96:	681a      	ldr	r2, [r3, #0]
 8003e98:	68fb      	ldr	r3, [r7, #12]
 8003e9a:	681b      	ldr	r3, [r3, #0]
 8003e9c:	f042 020a 	orr.w	r2, r2, #10
 8003ea0:	601a      	str	r2, [r3, #0]
    }
    /* Enable the Peripheral */
    __HAL_DMA_ENABLE(hdma);
 8003ea2:	68fb      	ldr	r3, [r7, #12]
 8003ea4:	681b      	ldr	r3, [r3, #0]
 8003ea6:	681a      	ldr	r2, [r3, #0]
 8003ea8:	68fb      	ldr	r3, [r7, #12]
 8003eaa:	681b      	ldr	r3, [r3, #0]
 8003eac:	f042 0201 	orr.w	r2, r2, #1
 8003eb0:	601a      	str	r2, [r3, #0]
 8003eb2:	e005      	b.n	8003ec0 <HAL_DMA_Start_IT+0xb4>
  }
  else
  {      
    /* Process Unlocked */
    __HAL_UNLOCK(hdma); 
 8003eb4:	68fb      	ldr	r3, [r7, #12]
 8003eb6:	2200      	movs	r2, #0
 8003eb8:	f883 2020 	strb.w	r2, [r3, #32]

    /* Remain BUSY */
    status = HAL_BUSY;
 8003ebc:	2302      	movs	r3, #2
 8003ebe:	75fb      	strb	r3, [r7, #23]
  }    
  return status;
 8003ec0:	7dfb      	ldrb	r3, [r7, #23]
}
 8003ec2:	4618      	mov	r0, r3
 8003ec4:	3718      	adds	r7, #24
 8003ec6:	46bd      	mov	sp, r7
 8003ec8:	bd80      	pop	{r7, pc}
	...

08003ecc <HAL_DMA_Abort_IT>:
  * @param  hdma  : pointer to a DMA_HandleTypeDef structure that contains
  *                 the configuration information for the specified DMA Channel.
  * @retval HAL status
  */
HAL_StatusTypeDef HAL_DMA_Abort_IT(DMA_HandleTypeDef *hdma)
{  
 8003ecc:	b580      	push	{r7, lr}
 8003ece:	b084      	sub	sp, #16
 8003ed0:	af00      	add	r7, sp, #0
 8003ed2:	6078      	str	r0, [r7, #4]
  HAL_StatusTypeDef status = HAL_OK;
 8003ed4:	2300      	movs	r3, #0
 8003ed6:	73fb      	strb	r3, [r7, #15]
  
  if(HAL_DMA_STATE_BUSY != hdma->State)
 8003ed8:	687b      	ldr	r3, [r7, #4]
 8003eda:	f893 3021 	ldrb.w	r3, [r3, #33]	; 0x21
 8003ede:	2b02      	cmp	r3, #2
 8003ee0:	d005      	beq.n	8003eee <HAL_DMA_Abort_IT+0x22>
  {
    /* no transfer ongoing */
    hdma->ErrorCode = HAL_DMA_ERROR_NO_XFER;
 8003ee2:	687b      	ldr	r3, [r7, #4]
 8003ee4:	2204      	movs	r2, #4
 8003ee6:	639a      	str	r2, [r3, #56]	; 0x38
        
    status = HAL_ERROR;
 8003ee8:	2301      	movs	r3, #1
 8003eea:	73fb      	strb	r3, [r7, #15]
 8003eec:	e051      	b.n	8003f92 <HAL_DMA_Abort_IT+0xc6>
  }
  else
  { 
    /* Disable DMA IT */
    __HAL_DMA_DISABLE_IT(hdma, (DMA_IT_TC | DMA_IT_HT | DMA_IT_TE));
 8003eee:	687b      	ldr	r3, [r7, #4]
 8003ef0:	681b      	ldr	r3, [r3, #0]
 8003ef2:	681a      	ldr	r2, [r3, #0]
 8003ef4:	687b      	ldr	r3, [r7, #4]
 8003ef6:	681b      	ldr	r3, [r3, #0]
 8003ef8:	f022 020e 	bic.w	r2, r2, #14
 8003efc:	601a      	str	r2, [r3, #0]

    /* Disable the channel */
    __HAL_DMA_DISABLE(hdma);
 8003efe:	687b      	ldr	r3, [r7, #4]
 8003f00:	681b      	ldr	r3, [r3, #0]
 8003f02:	681a      	ldr	r2, [r3, #0]
 8003f04:	687b      	ldr	r3, [r7, #4]
 8003f06:	681b      	ldr	r3, [r3, #0]
 8003f08:	f022 0201 	bic.w	r2, r2, #1
 8003f0c:	601a      	str	r2, [r3, #0]

    /* Clear all flags */
    __HAL_DMA_CLEAR_FLAG(hdma, __HAL_DMA_GET_GI_FLAG_INDEX(hdma));
 8003f0e:	687b      	ldr	r3, [r7, #4]
 8003f10:	681b      	ldr	r3, [r3, #0]
 8003f12:	4a22      	ldr	r2, [pc, #136]	; (8003f9c <HAL_DMA_Abort_IT+0xd0>)
 8003f14:	4293      	cmp	r3, r2
 8003f16:	d029      	beq.n	8003f6c <HAL_DMA_Abort_IT+0xa0>
 8003f18:	687b      	ldr	r3, [r7, #4]
 8003f1a:	681b      	ldr	r3, [r3, #0]
 8003f1c:	4a20      	ldr	r2, [pc, #128]	; (8003fa0 <HAL_DMA_Abort_IT+0xd4>)
 8003f1e:	4293      	cmp	r3, r2
 8003f20:	d022      	beq.n	8003f68 <HAL_DMA_Abort_IT+0x9c>
 8003f22:	687b      	ldr	r3, [r7, #4]
 8003f24:	681b      	ldr	r3, [r3, #0]
 8003f26:	4a1f      	ldr	r2, [pc, #124]	; (8003fa4 <HAL_DMA_Abort_IT+0xd8>)
 8003f28:	4293      	cmp	r3, r2
 8003f2a:	d01a      	beq.n	8003f62 <HAL_DMA_Abort_IT+0x96>
 8003f2c:	687b      	ldr	r3, [r7, #4]
 8003f2e:	681b      	ldr	r3, [r3, #0]
 8003f30:	4a1d      	ldr	r2, [pc, #116]	; (8003fa8 <HAL_DMA_Abort_IT+0xdc>)
 8003f32:	4293      	cmp	r3, r2
 8003f34:	d012      	beq.n	8003f5c <HAL_DMA_Abort_IT+0x90>
 8003f36:	687b      	ldr	r3, [r7, #4]
 8003f38:	681b      	ldr	r3, [r3, #0]
 8003f3a:	4a1c      	ldr	r2, [pc, #112]	; (8003fac <HAL_DMA_Abort_IT+0xe0>)
 8003f3c:	4293      	cmp	r3, r2
 8003f3e:	d00a      	beq.n	8003f56 <HAL_DMA_Abort_IT+0x8a>
 8003f40:	687b      	ldr	r3, [r7, #4]
 8003f42:	681b      	ldr	r3, [r3, #0]
 8003f44:	4a1a      	ldr	r2, [pc, #104]	; (8003fb0 <HAL_DMA_Abort_IT+0xe4>)
 8003f46:	4293      	cmp	r3, r2
 8003f48:	d102      	bne.n	8003f50 <HAL_DMA_Abort_IT+0x84>
 8003f4a:	f44f 1380 	mov.w	r3, #1048576	; 0x100000
 8003f4e:	e00e      	b.n	8003f6e <HAL_DMA_Abort_IT+0xa2>
 8003f50:	f04f 7380 	mov.w	r3, #16777216	; 0x1000000
 8003f54:	e00b      	b.n	8003f6e <HAL_DMA_Abort_IT+0xa2>
 8003f56:	f44f 3380 	mov.w	r3, #65536	; 0x10000
 8003f5a:	e008      	b.n	8003f6e <HAL_DMA_Abort_IT+0xa2>
 8003f5c:	f44f 5380 	mov.w	r3, #4096	; 0x1000
 8003f60:	e005      	b.n	8003f6e <HAL_DMA_Abort_IT+0xa2>
 8003f62:	f44f 7380 	mov.w	r3, #256	; 0x100
 8003f66:	e002      	b.n	8003f6e <HAL_DMA_Abort_IT+0xa2>
 8003f68:	2310      	movs	r3, #16
 8003f6a:	e000      	b.n	8003f6e <HAL_DMA_Abort_IT+0xa2>
 8003f6c:	2301      	movs	r3, #1
 8003f6e:	4a11      	ldr	r2, [pc, #68]	; (8003fb4 <HAL_DMA_Abort_IT+0xe8>)
 8003f70:	6053      	str	r3, [r2, #4]

    /* Change the DMA state */
    hdma->State = HAL_DMA_STATE_READY;
 8003f72:	687b      	ldr	r3, [r7, #4]
 8003f74:	2201      	movs	r2, #1
 8003f76:	f883 2021 	strb.w	r2, [r3, #33]	; 0x21

    /* Process Unlocked */
    __HAL_UNLOCK(hdma);
 8003f7a:	687b      	ldr	r3, [r7, #4]
 8003f7c:	2200      	movs	r2, #0
 8003f7e:	f883 2020 	strb.w	r2, [r3, #32]

    /* Call User Abort callback */
    if(hdma->XferAbortCallback != NULL)
 8003f82:	687b      	ldr	r3, [r7, #4]
 8003f84:	6b5b      	ldr	r3, [r3, #52]	; 0x34
 8003f86:	2b00      	cmp	r3, #0
 8003f88:	d003      	beq.n	8003f92 <HAL_DMA_Abort_IT+0xc6>
    {
      hdma->XferAbortCallback(hdma);
 8003f8a:	687b      	ldr	r3, [r7, #4]
 8003f8c:	6b5b      	ldr	r3, [r3, #52]	; 0x34
 8003f8e:	6878      	ldr	r0, [r7, #4]
 8003f90:	4798      	blx	r3
    } 
  }
  return status;
 8003f92:	7bfb      	ldrb	r3, [r7, #15]
}
 8003f94:	4618      	mov	r0, r3
 8003f96:	3710      	adds	r7, #16
 8003f98:	46bd      	mov	sp, r7
 8003f9a:	bd80      	pop	{r7, pc}
 8003f9c:	40020008 	.word	0x40020008
 8003fa0:	4002001c 	.word	0x4002001c
 8003fa4:	40020030 	.word	0x40020030
 8003fa8:	40020044 	.word	0x40020044
 8003fac:	40020058 	.word	0x40020058
 8003fb0:	4002006c 	.word	0x4002006c
 8003fb4:	40020000 	.word	0x40020000

08003fb8 <HAL_DMA_IRQHandler>:
  * @param  hdma: pointer to a DMA_HandleTypeDef structure that contains
  *               the configuration information for the specified DMA Channel.  
  * @retval None
  */
void HAL_DMA_IRQHandler(DMA_HandleTypeDef *hdma)
{
 8003fb8:	b580      	push	{r7, lr}
 8003fba:	b084      	sub	sp, #16
 8003fbc:	af00      	add	r7, sp, #0
 8003fbe:	6078      	str	r0, [r7, #4]
  uint32_t flag_it = hdma->DmaBaseAddress->ISR;
 8003fc0:	687b      	ldr	r3, [r7, #4]
 8003fc2:	6bdb      	ldr	r3, [r3, #60]	; 0x3c
 8003fc4:	681b      	ldr	r3, [r3, #0]
 8003fc6:	60fb      	str	r3, [r7, #12]
  uint32_t source_it = hdma->Instance->CCR;
 8003fc8:	687b      	ldr	r3, [r7, #4]
 8003fca:	681b      	ldr	r3, [r3, #0]
 8003fcc:	681b      	ldr	r3, [r3, #0]
 8003fce:	60bb      	str	r3, [r7, #8]
  
  /* Half Transfer Complete Interrupt management ******************************/
  if (((flag_it & (DMA_FLAG_HT1 << hdma->ChannelIndex)) != RESET) && ((source_it & DMA_IT_HT) != RESET))
 8003fd0:	687b      	ldr	r3, [r7, #4]
 8003fd2:	6c1b      	ldr	r3, [r3, #64]	; 0x40
 8003fd4:	2204      	movs	r2, #4
 8003fd6:	409a      	lsls	r2, r3
 8003fd8:	68fb      	ldr	r3, [r7, #12]
 8003fda:	4013      	ands	r3, r2
 8003fdc:	2b00      	cmp	r3, #0
 8003fde:	d04f      	beq.n	8004080 <HAL_DMA_IRQHandler+0xc8>
 8003fe0:	68bb      	ldr	r3, [r7, #8]
 8003fe2:	f003 0304 	and.w	r3, r3, #4
 8003fe6:	2b00      	cmp	r3, #0
 8003fe8:	d04a      	beq.n	8004080 <HAL_DMA_IRQHandler+0xc8>
  {
    /* Disable the half transfer interrupt if the DMA mode is not CIRCULAR */
    if((hdma->Instance->CCR & DMA_CCR_CIRC) == 0U)
 8003fea:	687b      	ldr	r3, [r7, #4]
 8003fec:	681b      	ldr	r3, [r3, #0]
 8003fee:	681b      	ldr	r3, [r3, #0]
 8003ff0:	f003 0320 	and.w	r3, r3, #32
 8003ff4:	2b00      	cmp	r3, #0
 8003ff6:	d107      	bne.n	8004008 <HAL_DMA_IRQHandler+0x50>
    {
      /* Disable the half transfer interrupt */
      __HAL_DMA_DISABLE_IT(hdma, DMA_IT_HT);
 8003ff8:	687b      	ldr	r3, [r7, #4]
 8003ffa:	681b      	ldr	r3, [r3, #0]
 8003ffc:	681a      	ldr	r2, [r3, #0]
 8003ffe:	687b      	ldr	r3, [r7, #4]
 8004000:	681b      	ldr	r3, [r3, #0]
 8004002:	f022 0204 	bic.w	r2, r2, #4
 8004006:	601a      	str	r2, [r3, #0]
    }
    /* Clear the half transfer complete flag */
    __HAL_DMA_CLEAR_FLAG(hdma, __HAL_DMA_GET_HT_FLAG_INDEX(hdma));
 8004008:	687b      	ldr	r3, [r7, #4]
 800400a:	681b      	ldr	r3, [r3, #0]
 800400c:	4a66      	ldr	r2, [pc, #408]	; (80041a8 <HAL_DMA_IRQHandler+0x1f0>)
 800400e:	4293      	cmp	r3, r2
 8004010:	d029      	beq.n	8004066 <HAL_DMA_IRQHandler+0xae>
 8004012:	687b      	ldr	r3, [r7, #4]
 8004014:	681b      	ldr	r3, [r3, #0]
 8004016:	4a65      	ldr	r2, [pc, #404]	; (80041ac <HAL_DMA_IRQHandler+0x1f4>)
 8004018:	4293      	cmp	r3, r2
 800401a:	d022      	beq.n	8004062 <HAL_DMA_IRQHandler+0xaa>
 800401c:	687b      	ldr	r3, [r7, #4]
 800401e:	681b      	ldr	r3, [r3, #0]
 8004020:	4a63      	ldr	r2, [pc, #396]	; (80041b0 <HAL_DMA_IRQHandler+0x1f8>)
 8004022:	4293      	cmp	r3, r2
 8004024:	d01a      	beq.n	800405c <HAL_DMA_IRQHandler+0xa4>
 8004026:	687b      	ldr	r3, [r7, #4]
 8004028:	681b      	ldr	r3, [r3, #0]
 800402a:	4a62      	ldr	r2, [pc, #392]	; (80041b4 <HAL_DMA_IRQHandler+0x1fc>)
 800402c:	4293      	cmp	r3, r2
 800402e:	d012      	beq.n	8004056 <HAL_DMA_IRQHandler+0x9e>
 8004030:	687b      	ldr	r3, [r7, #4]
 8004032:	681b      	ldr	r3, [r3, #0]
 8004034:	4a60      	ldr	r2, [pc, #384]	; (80041b8 <HAL_DMA_IRQHandler+0x200>)
 8004036:	4293      	cmp	r3, r2
 8004038:	d00a      	beq.n	8004050 <HAL_DMA_IRQHandler+0x98>
 800403a:	687b      	ldr	r3, [r7, #4]
 800403c:	681b      	ldr	r3, [r3, #0]
 800403e:	4a5f      	ldr	r2, [pc, #380]	; (80041bc <HAL_DMA_IRQHandler+0x204>)
 8004040:	4293      	cmp	r3, r2
 8004042:	d102      	bne.n	800404a <HAL_DMA_IRQHandler+0x92>
 8004044:	f44f 0380 	mov.w	r3, #4194304	; 0x400000
 8004048:	e00e      	b.n	8004068 <HAL_DMA_IRQHandler+0xb0>
 800404a:	f04f 6380 	mov.w	r3, #67108864	; 0x4000000
 800404e:	e00b      	b.n	8004068 <HAL_DMA_IRQHandler+0xb0>
 8004050:	f44f 2380 	mov.w	r3, #262144	; 0x40000
 8004054:	e008      	b.n	8004068 <HAL_DMA_IRQHandler+0xb0>
 8004056:	f44f 4380 	mov.w	r3, #16384	; 0x4000
 800405a:	e005      	b.n	8004068 <HAL_DMA_IRQHandler+0xb0>
 800405c:	f44f 6380 	mov.w	r3, #1024	; 0x400
 8004060:	e002      	b.n	8004068 <HAL_DMA_IRQHandler+0xb0>
 8004062:	2340      	movs	r3, #64	; 0x40
 8004064:	e000      	b.n	8004068 <HAL_DMA_IRQHandler+0xb0>
 8004066:	2304      	movs	r3, #4
 8004068:	4a55      	ldr	r2, [pc, #340]	; (80041c0 <HAL_DMA_IRQHandler+0x208>)
 800406a:	6053      	str	r3, [r2, #4]

    /* DMA peripheral state is not updated in Half Transfer */
    /* but in Transfer Complete case */

    if(hdma->XferHalfCpltCallback != NULL)
 800406c:	687b      	ldr	r3, [r7, #4]
 800406e:	6adb      	ldr	r3, [r3, #44]	; 0x2c
 8004070:	2b00      	cmp	r3, #0
 8004072:	f000 8094 	beq.w	800419e <HAL_DMA_IRQHandler+0x1e6>
    {
      /* Half transfer callback */
      hdma->XferHalfCpltCallback(hdma);
 8004076:	687b      	ldr	r3, [r7, #4]
 8004078:	6adb      	ldr	r3, [r3, #44]	; 0x2c
 800407a:	6878      	ldr	r0, [r7, #4]
 800407c:	4798      	blx	r3
    if(hdma->XferHalfCpltCallback != NULL)
 800407e:	e08e      	b.n	800419e <HAL_DMA_IRQHandler+0x1e6>
    }
  }

  /* Transfer Complete Interrupt management ***********************************/
  else if (((flag_it & (DMA_FLAG_TC1 << hdma->ChannelIndex)) != RESET) && ((source_it & DMA_IT_TC) != RESET))
 8004080:	687b      	ldr	r3, [r7, #4]
 8004082:	6c1b      	ldr	r3, [r3, #64]	; 0x40
 8004084:	2202      	movs	r2, #2
 8004086:	409a      	lsls	r2, r3
 8004088:	68fb      	ldr	r3, [r7, #12]
 800408a:	4013      	ands	r3, r2
 800408c:	2b00      	cmp	r3, #0
 800408e:	d056      	beq.n	800413e <HAL_DMA_IRQHandler+0x186>
 8004090:	68bb      	ldr	r3, [r7, #8]
 8004092:	f003 0302 	and.w	r3, r3, #2
 8004096:	2b00      	cmp	r3, #0
 8004098:	d051      	beq.n	800413e <HAL_DMA_IRQHandler+0x186>
  {
    if((hdma->Instance->CCR & DMA_CCR_CIRC) == 0U)
 800409a:	687b      	ldr	r3, [r7, #4]
 800409c:	681b      	ldr	r3, [r3, #0]
 800409e:	681b      	ldr	r3, [r3, #0]
 80040a0:	f003 0320 	and.w	r3, r3, #32
 80040a4:	2b00      	cmp	r3, #0
 80040a6:	d10b      	bne.n	80040c0 <HAL_DMA_IRQHandler+0x108>
    {
      /* Disable the transfer complete and error interrupt */
      __HAL_DMA_DISABLE_IT(hdma, DMA_IT_TE | DMA_IT_TC);  
 80040a8:	687b      	ldr	r3, [r7, #4]
 80040aa:	681b      	ldr	r3, [r3, #0]
 80040ac:	681a      	ldr	r2, [r3, #0]
 80040ae:	687b      	ldr	r3, [r7, #4]
 80040b0:	681b      	ldr	r3, [r3, #0]
 80040b2:	f022 020a 	bic.w	r2, r2, #10
 80040b6:	601a      	str	r2, [r3, #0]

      /* Change the DMA state */
      hdma->State = HAL_DMA_STATE_READY;
 80040b8:	687b      	ldr	r3, [r7, #4]
 80040ba:	2201      	movs	r2, #1
 80040bc:	f883 2021 	strb.w	r2, [r3, #33]	; 0x21
    }
    /* Clear the transfer complete flag */
      __HAL_DMA_CLEAR_FLAG(hdma, __HAL_DMA_GET_TC_FLAG_INDEX(hdma));
 80040c0:	687b      	ldr	r3, [r7, #4]
 80040c2:	681b      	ldr	r3, [r3, #0]
 80040c4:	4a38      	ldr	r2, [pc, #224]	; (80041a8 <HAL_DMA_IRQHandler+0x1f0>)
 80040c6:	4293      	cmp	r3, r2
 80040c8:	d029      	beq.n	800411e <HAL_DMA_IRQHandler+0x166>
 80040ca:	687b      	ldr	r3, [r7, #4]
 80040cc:	681b      	ldr	r3, [r3, #0]
 80040ce:	4a37      	ldr	r2, [pc, #220]	; (80041ac <HAL_DMA_IRQHandler+0x1f4>)
 80040d0:	4293      	cmp	r3, r2
 80040d2:	d022      	beq.n	800411a <HAL_DMA_IRQHandler+0x162>
 80040d4:	687b      	ldr	r3, [r7, #4]
 80040d6:	681b      	ldr	r3, [r3, #0]
 80040d8:	4a35      	ldr	r2, [pc, #212]	; (80041b0 <HAL_DMA_IRQHandler+0x1f8>)
 80040da:	4293      	cmp	r3, r2
 80040dc:	d01a      	beq.n	8004114 <HAL_DMA_IRQHandler+0x15c>
 80040de:	687b      	ldr	r3, [r7, #4]
 80040e0:	681b      	ldr	r3, [r3, #0]
 80040e2:	4a34      	ldr	r2, [pc, #208]	; (80041b4 <HAL_DMA_IRQHandler+0x1fc>)
 80040e4:	4293      	cmp	r3, r2
 80040e6:	d012      	beq.n	800410e <HAL_DMA_IRQHandler+0x156>
 80040e8:	687b      	ldr	r3, [r7, #4]
 80040ea:	681b      	ldr	r3, [r3, #0]
 80040ec:	4a32      	ldr	r2, [pc, #200]	; (80041b8 <HAL_DMA_IRQHandler+0x200>)
 80040ee:	4293      	cmp	r3, r2
 80040f0:	d00a      	beq.n	8004108 <HAL_DMA_IRQHandler+0x150>
 80040f2:	687b      	ldr	r3, [r7, #4]
 80040f4:	681b      	ldr	r3, [r3, #0]
 80040f6:	4a31      	ldr	r2, [pc, #196]	; (80041bc <HAL_DMA_IRQHandler+0x204>)
 80040f8:	4293      	cmp	r3, r2
 80040fa:	d102      	bne.n	8004102 <HAL_DMA_IRQHandler+0x14a>
 80040fc:	f44f 1300 	mov.w	r3, #2097152	; 0x200000
 8004100:	e00e      	b.n	8004120 <HAL_DMA_IRQHandler+0x168>
 8004102:	f04f 7300 	mov.w	r3, #33554432	; 0x2000000
 8004106:	e00b      	b.n	8004120 <HAL_DMA_IRQHandler+0x168>
 8004108:	f44f 3300 	mov.w	r3, #131072	; 0x20000
 800410c:	e008      	b.n	8004120 <HAL_DMA_IRQHandler+0x168>
 800410e:	f44f 5300 	mov.w	r3, #8192	; 0x2000
 8004112:	e005      	b.n	8004120 <HAL_DMA_IRQHandler+0x168>
 8004114:	f44f 7300 	mov.w	r3, #512	; 0x200
 8004118:	e002      	b.n	8004120 <HAL_DMA_IRQHandler+0x168>
 800411a:	2320      	movs	r3, #32
 800411c:	e000      	b.n	8004120 <HAL_DMA_IRQHandler+0x168>
 800411e:	2302      	movs	r3, #2
 8004120:	4a27      	ldr	r2, [pc, #156]	; (80041c0 <HAL_DMA_IRQHandler+0x208>)
 8004122:	6053      	str	r3, [r2, #4]

    /* Process Unlocked */
    __HAL_UNLOCK(hdma);
 8004124:	687b      	ldr	r3, [r7, #4]
 8004126:	2200      	movs	r2, #0
 8004128:	f883 2020 	strb.w	r2, [r3, #32]

    if(hdma->XferCpltCallback != NULL)
 800412c:	687b      	ldr	r3, [r7, #4]
 800412e:	6a9b      	ldr	r3, [r3, #40]	; 0x28
 8004130:	2b00      	cmp	r3, #0
 8004132:	d034      	beq.n	800419e <HAL_DMA_IRQHandler+0x1e6>
    {
      /* Transfer complete callback */
      hdma->XferCpltCallback(hdma);
 8004134:	687b      	ldr	r3, [r7, #4]
 8004136:	6a9b      	ldr	r3, [r3, #40]	; 0x28
 8004138:	6878      	ldr	r0, [r7, #4]
 800413a:	4798      	blx	r3
    if(hdma->XferCpltCallback != NULL)
 800413c:	e02f      	b.n	800419e <HAL_DMA_IRQHandler+0x1e6>
    }
  }

  /* Transfer Error Interrupt management **************************************/
  else if (( RESET != (flag_it & (DMA_FLAG_TE1 << hdma->ChannelIndex))) && (RESET != (source_it & DMA_IT_TE)))
 800413e:	687b      	ldr	r3, [r7, #4]
 8004140:	6c1b      	ldr	r3, [r3, #64]	; 0x40
 8004142:	2208      	movs	r2, #8
 8004144:	409a      	lsls	r2, r3
 8004146:	68fb      	ldr	r3, [r7, #12]
 8004148:	4013      	ands	r3, r2
 800414a:	2b00      	cmp	r3, #0
 800414c:	d028      	beq.n	80041a0 <HAL_DMA_IRQHandler+0x1e8>
 800414e:	68bb      	ldr	r3, [r7, #8]
 8004150:	f003 0308 	and.w	r3, r3, #8
 8004154:	2b00      	cmp	r3, #0
 8004156:	d023      	beq.n	80041a0 <HAL_DMA_IRQHandler+0x1e8>
  {
    /* When a DMA transfer error occurs */
    /* A hardware clear of its EN bits is performed */
    /* Disable ALL DMA IT */
    __HAL_DMA_DISABLE_IT(hdma, (DMA_IT_TC | DMA_IT_HT | DMA_IT_TE));
 8004158:	687b      	ldr	r3, [r7, #4]
 800415a:	681b      	ldr	r3, [r3, #0]
 800415c:	681a      	ldr	r2, [r3, #0]
 800415e:	687b      	ldr	r3, [r7, #4]
 8004160:	681b      	ldr	r3, [r3, #0]
 8004162:	f022 020e 	bic.w	r2, r2, #14
 8004166:	601a      	str	r2, [r3, #0]

    /* Clear all flags */
    hdma->DmaBaseAddress->IFCR = (DMA_ISR_GIF1 << hdma->ChannelIndex);
 8004168:	687b      	ldr	r3, [r7, #4]
 800416a:	6c1a      	ldr	r2, [r3, #64]	; 0x40
 800416c:	687b      	ldr	r3, [r7, #4]
 800416e:	6bdb      	ldr	r3, [r3, #60]	; 0x3c
 8004170:	2101      	movs	r1, #1
 8004172:	fa01 f202 	lsl.w	r2, r1, r2
 8004176:	605a      	str	r2, [r3, #4]

    /* Update error code */
    hdma->ErrorCode = HAL_DMA_ERROR_TE;
 8004178:	687b      	ldr	r3, [r7, #4]
 800417a:	2201      	movs	r2, #1
 800417c:	639a      	str	r2, [r3, #56]	; 0x38

    /* Change the DMA state */
    hdma->State = HAL_DMA_STATE_READY;
 800417e:	687b      	ldr	r3, [r7, #4]
 8004180:	2201      	movs	r2, #1
 8004182:	f883 2021 	strb.w	r2, [r3, #33]	; 0x21

    /* Process Unlocked */
    __HAL_UNLOCK(hdma);
 8004186:	687b      	ldr	r3, [r7, #4]
 8004188:	2200      	movs	r2, #0
 800418a:	f883 2020 	strb.w	r2, [r3, #32]

    if (hdma->XferErrorCallback != NULL)
 800418e:	687b      	ldr	r3, [r7, #4]
 8004190:	6b1b      	ldr	r3, [r3, #48]	; 0x30
 8004192:	2b00      	cmp	r3, #0
 8004194:	d004      	beq.n	80041a0 <HAL_DMA_IRQHandler+0x1e8>
    {
      /* Transfer error callback */
      hdma->XferErrorCallback(hdma);
 8004196:	687b      	ldr	r3, [r7, #4]
 8004198:	6b1b      	ldr	r3, [r3, #48]	; 0x30
 800419a:	6878      	ldr	r0, [r7, #4]
 800419c:	4798      	blx	r3
    }
  }
  return;
 800419e:	bf00      	nop
 80041a0:	bf00      	nop
}
 80041a2:	3710      	adds	r7, #16
 80041a4:	46bd      	mov	sp, r7
 80041a6:	bd80      	pop	{r7, pc}
 80041a8:	40020008 	.word	0x40020008
 80041ac:	4002001c 	.word	0x4002001c
 80041b0:	40020030 	.word	0x40020030
 80041b4:	40020044 	.word	0x40020044
 80041b8:	40020058 	.word	0x40020058
 80041bc:	4002006c 	.word	0x4002006c
 80041c0:	40020000 	.word	0x40020000

080041c4 <DMA_SetConfig>:
  * @param  DstAddress: The destination memory Buffer address
  * @param  DataLength: The length of data to be transferred from source to destination
  * @retval HAL status
  */
static void DMA_SetConfig(DMA_HandleTypeDef *hdma, uint32_t SrcAddress, uint32_t DstAddress, uint32_t DataLength)
{
 80041c4:	b480      	push	{r7}
 80041c6:	b085      	sub	sp, #20
 80041c8:	af00      	add	r7, sp, #0
 80041ca:	60f8      	str	r0, [r7, #12]
 80041cc:	60b9      	str	r1, [r7, #8]
 80041ce:	607a      	str	r2, [r7, #4]
 80041d0:	603b      	str	r3, [r7, #0]
  /* Clear all flags */
  hdma->DmaBaseAddress->IFCR = (DMA_ISR_GIF1 << hdma->ChannelIndex);
 80041d2:	68fb      	ldr	r3, [r7, #12]
 80041d4:	6c1a      	ldr	r2, [r3, #64]	; 0x40
 80041d6:	68fb      	ldr	r3, [r7, #12]
 80041d8:	6bdb      	ldr	r3, [r3, #60]	; 0x3c
 80041da:	2101      	movs	r1, #1
 80041dc:	fa01 f202 	lsl.w	r2, r1, r2
 80041e0:	605a      	str	r2, [r3, #4]

  /* Configure DMA Channel data length */
  hdma->Instance->CNDTR = DataLength;
 80041e2:	68fb      	ldr	r3, [r7, #12]
 80041e4:	681b      	ldr	r3, [r3, #0]
 80041e6:	683a      	ldr	r2, [r7, #0]
 80041e8:	605a      	str	r2, [r3, #4]

  /* Memory to Peripheral */
  if((hdma->Init.Direction) == DMA_MEMORY_TO_PERIPH)
 80041ea:	68fb      	ldr	r3, [r7, #12]
 80041ec:	685b      	ldr	r3, [r3, #4]
 80041ee:	2b10      	cmp	r3, #16
 80041f0:	d108      	bne.n	8004204 <DMA_SetConfig+0x40>
  {
    /* Configure DMA Channel destination address */
    hdma->Instance->CPAR = DstAddress;
 80041f2:	68fb      	ldr	r3, [r7, #12]
 80041f4:	681b      	ldr	r3, [r3, #0]
 80041f6:	687a      	ldr	r2, [r7, #4]
 80041f8:	609a      	str	r2, [r3, #8]

    /* Configure DMA Channel source address */
    hdma->Instance->CMAR = SrcAddress;
 80041fa:	68fb      	ldr	r3, [r7, #12]
 80041fc:	681b      	ldr	r3, [r3, #0]
 80041fe:	68ba      	ldr	r2, [r7, #8]
 8004200:	60da      	str	r2, [r3, #12]
    hdma->Instance->CPAR = SrcAddress;

    /* Configure DMA Channel destination address */
    hdma->Instance->CMAR = DstAddress;
  }
}
 8004202:	e007      	b.n	8004214 <DMA_SetConfig+0x50>
    hdma->Instance->CPAR = SrcAddress;
 8004204:	68fb      	ldr	r3, [r7, #12]
 8004206:	681b      	ldr	r3, [r3, #0]
 8004208:	68ba      	ldr	r2, [r7, #8]
 800420a:	609a      	str	r2, [r3, #8]
    hdma->Instance->CMAR = DstAddress;
 800420c:	68fb      	ldr	r3, [r7, #12]
 800420e:	681b      	ldr	r3, [r3, #0]
 8004210:	687a      	ldr	r2, [r7, #4]
 8004212:	60da      	str	r2, [r3, #12]
}
 8004214:	bf00      	nop
 8004216:	3714      	adds	r7, #20
 8004218:	46bd      	mov	sp, r7
 800421a:	bc80      	pop	{r7}
 800421c:	4770      	bx	lr
	...

08004220 <HAL_GPIO_Init>:
  * @param  GPIO_Init: pointer to a GPIO_InitTypeDef structure that contains
  *         the configuration information for the specified GPIO peripheral.
  * @retval None
  */
void HAL_GPIO_Init(GPIO_TypeDef  *GPIOx, GPIO_InitTypeDef *GPIO_Init)
{
 8004220:	b480      	push	{r7}
 8004222:	b08b      	sub	sp, #44	; 0x2c
 8004224:	af00      	add	r7, sp, #0
 8004226:	6078      	str	r0, [r7, #4]
 8004228:	6039      	str	r1, [r7, #0]
  uint32_t position = 0x00u;
 800422a:	2300      	movs	r3, #0
 800422c:	627b      	str	r3, [r7, #36]	; 0x24
  uint32_t ioposition;
  uint32_t iocurrent;
  uint32_t temp;
  uint32_t config = 0x00u;
 800422e:	2300      	movs	r3, #0
 8004230:	623b      	str	r3, [r7, #32]
  assert_param(IS_GPIO_ALL_INSTANCE(GPIOx));
  assert_param(IS_GPIO_PIN(GPIO_Init->Pin));
  assert_param(IS_GPIO_MODE(GPIO_Init->Mode));

  /* Configure the port pins */
  while (((GPIO_Init->Pin) >> position) != 0x00u)
 8004232:	e169      	b.n	8004508 <HAL_GPIO_Init+0x2e8>
  {
    /* Get the IO position */
    ioposition = (0x01uL << position);
 8004234:	2201      	movs	r2, #1
 8004236:	6a7b      	ldr	r3, [r7, #36]	; 0x24
 8004238:	fa02 f303 	lsl.w	r3, r2, r3
 800423c:	61fb      	str	r3, [r7, #28]

    /* Get the current IO position */
    iocurrent = (uint32_t)(GPIO_Init->Pin) & ioposition;
 800423e:	683b      	ldr	r3, [r7, #0]
 8004240:	681b      	ldr	r3, [r3, #0]
 8004242:	69fa      	ldr	r2, [r7, #28]
 8004244:	4013      	ands	r3, r2
 8004246:	61bb      	str	r3, [r7, #24]

    if (iocurrent == ioposition)
 8004248:	69ba      	ldr	r2, [r7, #24]
 800424a:	69fb      	ldr	r3, [r7, #28]
 800424c:	429a      	cmp	r2, r3
 800424e:	f040 8158 	bne.w	8004502 <HAL_GPIO_Init+0x2e2>
    {
      /* Check the Alternate function parameters */
      assert_param(IS_GPIO_AF_INSTANCE(GPIOx));

      /* Based on the required mode, filling config variable with MODEy[1:0] and CNFy[3:2] corresponding bits */
      switch (GPIO_Init->Mode)
 8004252:	683b      	ldr	r3, [r7, #0]
 8004254:	685b      	ldr	r3, [r3, #4]
 8004256:	4a9a      	ldr	r2, [pc, #616]	; (80044c0 <HAL_GPIO_Init+0x2a0>)
 8004258:	4293      	cmp	r3, r2
 800425a:	d05e      	beq.n	800431a <HAL_GPIO_Init+0xfa>
 800425c:	4a98      	ldr	r2, [pc, #608]	; (80044c0 <HAL_GPIO_Init+0x2a0>)
 800425e:	4293      	cmp	r3, r2
 8004260:	d875      	bhi.n	800434e <HAL_GPIO_Init+0x12e>
 8004262:	4a98      	ldr	r2, [pc, #608]	; (80044c4 <HAL_GPIO_Init+0x2a4>)
 8004264:	4293      	cmp	r3, r2
 8004266:	d058      	beq.n	800431a <HAL_GPIO_Init+0xfa>
 8004268:	4a96      	ldr	r2, [pc, #600]	; (80044c4 <HAL_GPIO_Init+0x2a4>)
 800426a:	4293      	cmp	r3, r2
 800426c:	d86f      	bhi.n	800434e <HAL_GPIO_Init+0x12e>
 800426e:	4a96      	ldr	r2, [pc, #600]	; (80044c8 <HAL_GPIO_Init+0x2a8>)
 8004270:	4293      	cmp	r3, r2
 8004272:	d052      	beq.n	800431a <HAL_GPIO_Init+0xfa>
 8004274:	4a94      	ldr	r2, [pc, #592]	; (80044c8 <HAL_GPIO_Init+0x2a8>)
 8004276:	4293      	cmp	r3, r2
 8004278:	d869      	bhi.n	800434e <HAL_GPIO_Init+0x12e>
 800427a:	4a94      	ldr	r2, [pc, #592]	; (80044cc <HAL_GPIO_Init+0x2ac>)
 800427c:	4293      	cmp	r3, r2
 800427e:	d04c      	beq.n	800431a <HAL_GPIO_Init+0xfa>
 8004280:	4a92      	ldr	r2, [pc, #584]	; (80044cc <HAL_GPIO_Init+0x2ac>)
 8004282:	4293      	cmp	r3, r2
 8004284:	d863      	bhi.n	800434e <HAL_GPIO_Init+0x12e>
 8004286:	4a92      	ldr	r2, [pc, #584]	; (80044d0 <HAL_GPIO_Init+0x2b0>)
 8004288:	4293      	cmp	r3, r2
 800428a:	d046      	beq.n	800431a <HAL_GPIO_Init+0xfa>
 800428c:	4a90      	ldr	r2, [pc, #576]	; (80044d0 <HAL_GPIO_Init+0x2b0>)
 800428e:	4293      	cmp	r3, r2
 8004290:	d85d      	bhi.n	800434e <HAL_GPIO_Init+0x12e>
 8004292:	2b12      	cmp	r3, #18
 8004294:	d82a      	bhi.n	80042ec <HAL_GPIO_Init+0xcc>
 8004296:	2b12      	cmp	r3, #18
 8004298:	d859      	bhi.n	800434e <HAL_GPIO_Init+0x12e>
 800429a:	a201      	add	r2, pc, #4	; (adr r2, 80042a0 <HAL_GPIO_Init+0x80>)
 800429c:	f852 f023 	ldr.w	pc, [r2, r3, lsl #2]
 80042a0:	0800431b 	.word	0x0800431b
 80042a4:	080042f5 	.word	0x080042f5
 80042a8:	08004307 	.word	0x08004307
 80042ac:	08004349 	.word	0x08004349
 80042b0:	0800434f 	.word	0x0800434f
 80042b4:	0800434f 	.word	0x0800434f
 80042b8:	0800434f 	.word	0x0800434f
 80042bc:	0800434f 	.word	0x0800434f
 80042c0:	0800434f 	.word	0x0800434f
 80042c4:	0800434f 	.word	0x0800434f
 80042c8:	0800434f 	.word	0x0800434f
 80042cc:	0800434f 	.word	0x0800434f
 80042d0:	0800434f 	.word	0x0800434f
 80042d4:	0800434f 	.word	0x0800434f
 80042d8:	0800434f 	.word	0x0800434f
 80042dc:	0800434f 	.word	0x0800434f
 80042e0:	0800434f 	.word	0x0800434f
 80042e4:	080042fd 	.word	0x080042fd
 80042e8:	08004311 	.word	0x08004311
 80042ec:	4a79      	ldr	r2, [pc, #484]	; (80044d4 <HAL_GPIO_Init+0x2b4>)
 80042ee:	4293      	cmp	r3, r2
 80042f0:	d013      	beq.n	800431a <HAL_GPIO_Init+0xfa>
          config = GPIO_CR_MODE_INPUT + GPIO_CR_CNF_ANALOG;
          break;

        /* Parameters are checked with assert_param */
        default:
          break;
 80042f2:	e02c      	b.n	800434e <HAL_GPIO_Init+0x12e>
          config = GPIO_Init->Speed + GPIO_CR_CNF_GP_OUTPUT_PP;
 80042f4:	683b      	ldr	r3, [r7, #0]
 80042f6:	68db      	ldr	r3, [r3, #12]
 80042f8:	623b      	str	r3, [r7, #32]
          break;
 80042fa:	e029      	b.n	8004350 <HAL_GPIO_Init+0x130>
          config = GPIO_Init->Speed + GPIO_CR_CNF_GP_OUTPUT_OD;
 80042fc:	683b      	ldr	r3, [r7, #0]
 80042fe:	68db      	ldr	r3, [r3, #12]
 8004300:	3304      	adds	r3, #4
 8004302:	623b      	str	r3, [r7, #32]
          break;
 8004304:	e024      	b.n	8004350 <HAL_GPIO_Init+0x130>
          config = GPIO_Init->Speed + GPIO_CR_CNF_AF_OUTPUT_PP;
 8004306:	683b      	ldr	r3, [r7, #0]
 8004308:	68db      	ldr	r3, [r3, #12]
 800430a:	3308      	adds	r3, #8
 800430c:	623b      	str	r3, [r7, #32]
          break;
 800430e:	e01f      	b.n	8004350 <HAL_GPIO_Init+0x130>
          config = GPIO_Init->Speed + GPIO_CR_CNF_AF_OUTPUT_OD;
 8004310:	683b      	ldr	r3, [r7, #0]
 8004312:	68db      	ldr	r3, [r3, #12]
 8004314:	330c      	adds	r3, #12
 8004316:	623b      	str	r3, [r7, #32]
          break;
 8004318:	e01a      	b.n	8004350 <HAL_GPIO_Init+0x130>
          if (GPIO_Init->Pull == GPIO_NOPULL)
 800431a:	683b      	ldr	r3, [r7, #0]
 800431c:	689b      	ldr	r3, [r3, #8]
 800431e:	2b00      	cmp	r3, #0
 8004320:	d102      	bne.n	8004328 <HAL_GPIO_Init+0x108>
            config = GPIO_CR_MODE_INPUT + GPIO_CR_CNF_INPUT_FLOATING;
 8004322:	2304      	movs	r3, #4
 8004324:	623b      	str	r3, [r7, #32]
          break;
 8004326:	e013      	b.n	8004350 <HAL_GPIO_Init+0x130>
          else if (GPIO_Init->Pull == GPIO_PULLUP)
 8004328:	683b      	ldr	r3, [r7, #0]
 800432a:	689b      	ldr	r3, [r3, #8]
 800432c:	2b01      	cmp	r3, #1
 800432e:	d105      	bne.n	800433c <HAL_GPIO_Init+0x11c>
            config = GPIO_CR_MODE_INPUT + GPIO_CR_CNF_INPUT_PU_PD;
 8004330:	2308      	movs	r3, #8
 8004332:	623b      	str	r3, [r7, #32]
            GPIOx->BSRR = ioposition;
 8004334:	687b      	ldr	r3, [r7, #4]
 8004336:	69fa      	ldr	r2, [r7, #28]
 8004338:	611a      	str	r2, [r3, #16]
          break;
 800433a:	e009      	b.n	8004350 <HAL_GPIO_Init+0x130>
            config = GPIO_CR_MODE_INPUT + GPIO_CR_CNF_INPUT_PU_PD;
 800433c:	2308      	movs	r3, #8
 800433e:	623b      	str	r3, [r7, #32]
            GPIOx->BRR = ioposition;
 8004340:	687b      	ldr	r3, [r7, #4]
 8004342:	69fa      	ldr	r2, [r7, #28]
 8004344:	615a      	str	r2, [r3, #20]
          break;
 8004346:	e003      	b.n	8004350 <HAL_GPIO_Init+0x130>
          config = GPIO_CR_MODE_INPUT + GPIO_CR_CNF_ANALOG;
 8004348:	2300      	movs	r3, #0
 800434a:	623b      	str	r3, [r7, #32]
          break;
 800434c:	e000      	b.n	8004350 <HAL_GPIO_Init+0x130>
          break;
 800434e:	bf00      	nop
      }

      /* Check if the current bit belongs to first half or last half of the pin count number
       in order to address CRH or CRL register*/
      configregister = (iocurrent < GPIO_PIN_8) ? &GPIOx->CRL     : &GPIOx->CRH;
 8004350:	69bb      	ldr	r3, [r7, #24]
 8004352:	2bff      	cmp	r3, #255	; 0xff
 8004354:	d801      	bhi.n	800435a <HAL_GPIO_Init+0x13a>
 8004356:	687b      	ldr	r3, [r7, #4]
 8004358:	e001      	b.n	800435e <HAL_GPIO_Init+0x13e>
 800435a:	687b      	ldr	r3, [r7, #4]
 800435c:	3304      	adds	r3, #4
 800435e:	617b      	str	r3, [r7, #20]
      registeroffset = (iocurrent < GPIO_PIN_8) ? (position << 2u) : ((position - 8u) << 2u);
 8004360:	69bb      	ldr	r3, [r7, #24]
 8004362:	2bff      	cmp	r3, #255	; 0xff
 8004364:	d802      	bhi.n	800436c <HAL_GPIO_Init+0x14c>
 8004366:	6a7b      	ldr	r3, [r7, #36]	; 0x24
 8004368:	009b      	lsls	r3, r3, #2
 800436a:	e002      	b.n	8004372 <HAL_GPIO_Init+0x152>
 800436c:	6a7b      	ldr	r3, [r7, #36]	; 0x24
 800436e:	3b08      	subs	r3, #8
 8004370:	009b      	lsls	r3, r3, #2
 8004372:	613b      	str	r3, [r7, #16]

      /* Apply the new configuration of the pin to the register */
      MODIFY_REG((*configregister), ((GPIO_CRL_MODE0 | GPIO_CRL_CNF0) << registeroffset), (config << registeroffset));
 8004374:	697b      	ldr	r3, [r7, #20]
 8004376:	681a      	ldr	r2, [r3, #0]
 8004378:	210f      	movs	r1, #15
 800437a:	693b      	ldr	r3, [r7, #16]
 800437c:	fa01 f303 	lsl.w	r3, r1, r3
 8004380:	43db      	mvns	r3, r3
 8004382:	401a      	ands	r2, r3
 8004384:	6a39      	ldr	r1, [r7, #32]
 8004386:	693b      	ldr	r3, [r7, #16]
 8004388:	fa01 f303 	lsl.w	r3, r1, r3
 800438c:	431a      	orrs	r2, r3
 800438e:	697b      	ldr	r3, [r7, #20]
 8004390:	601a      	str	r2, [r3, #0]

      /*--------------------- EXTI Mode Configuration ------------------------*/
      /* Configure the External Interrupt or event for the current IO */
      if ((GPIO_Init->Mode & EXTI_MODE) == EXTI_MODE)
 8004392:	683b      	ldr	r3, [r7, #0]
 8004394:	685b      	ldr	r3, [r3, #4]
 8004396:	f003 5380 	and.w	r3, r3, #268435456	; 0x10000000
 800439a:	2b00      	cmp	r3, #0
 800439c:	f000 80b1 	beq.w	8004502 <HAL_GPIO_Init+0x2e2>
      {
        /* Enable AFIO Clock */
        __HAL_RCC_AFIO_CLK_ENABLE();
 80043a0:	4b4d      	ldr	r3, [pc, #308]	; (80044d8 <HAL_GPIO_Init+0x2b8>)
 80043a2:	699b      	ldr	r3, [r3, #24]
 80043a4:	4a4c      	ldr	r2, [pc, #304]	; (80044d8 <HAL_GPIO_Init+0x2b8>)
 80043a6:	f043 0301 	orr.w	r3, r3, #1
 80043aa:	6193      	str	r3, [r2, #24]
 80043ac:	4b4a      	ldr	r3, [pc, #296]	; (80044d8 <HAL_GPIO_Init+0x2b8>)
 80043ae:	699b      	ldr	r3, [r3, #24]
 80043b0:	f003 0301 	and.w	r3, r3, #1
 80043b4:	60bb      	str	r3, [r7, #8]
 80043b6:	68bb      	ldr	r3, [r7, #8]
        temp = AFIO->EXTICR[position >> 2u];
 80043b8:	4a48      	ldr	r2, [pc, #288]	; (80044dc <HAL_GPIO_Init+0x2bc>)
 80043ba:	6a7b      	ldr	r3, [r7, #36]	; 0x24
 80043bc:	089b      	lsrs	r3, r3, #2
 80043be:	3302      	adds	r3, #2
 80043c0:	f852 3023 	ldr.w	r3, [r2, r3, lsl #2]
 80043c4:	60fb      	str	r3, [r7, #12]
        CLEAR_BIT(temp, (0x0Fu) << (4u * (position & 0x03u)));
 80043c6:	6a7b      	ldr	r3, [r7, #36]	; 0x24
 80043c8:	f003 0303 	and.w	r3, r3, #3
 80043cc:	009b      	lsls	r3, r3, #2
 80043ce:	220f      	movs	r2, #15
 80043d0:	fa02 f303 	lsl.w	r3, r2, r3
 80043d4:	43db      	mvns	r3, r3
 80043d6:	68fa      	ldr	r2, [r7, #12]
 80043d8:	4013      	ands	r3, r2
 80043da:	60fb      	str	r3, [r7, #12]
        SET_BIT(temp, (GPIO_GET_INDEX(GPIOx)) << (4u * (position & 0x03u)));
 80043dc:	687b      	ldr	r3, [r7, #4]
 80043de:	4a40      	ldr	r2, [pc, #256]	; (80044e0 <HAL_GPIO_Init+0x2c0>)
 80043e0:	4293      	cmp	r3, r2
 80043e2:	d013      	beq.n	800440c <HAL_GPIO_Init+0x1ec>
 80043e4:	687b      	ldr	r3, [r7, #4]
 80043e6:	4a3f      	ldr	r2, [pc, #252]	; (80044e4 <HAL_GPIO_Init+0x2c4>)
 80043e8:	4293      	cmp	r3, r2
 80043ea:	d00d      	beq.n	8004408 <HAL_GPIO_Init+0x1e8>
 80043ec:	687b      	ldr	r3, [r7, #4]
 80043ee:	4a3e      	ldr	r2, [pc, #248]	; (80044e8 <HAL_GPIO_Init+0x2c8>)
 80043f0:	4293      	cmp	r3, r2
 80043f2:	d007      	beq.n	8004404 <HAL_GPIO_Init+0x1e4>
 80043f4:	687b      	ldr	r3, [r7, #4]
 80043f6:	4a3d      	ldr	r2, [pc, #244]	; (80044ec <HAL_GPIO_Init+0x2cc>)
 80043f8:	4293      	cmp	r3, r2
 80043fa:	d101      	bne.n	8004400 <HAL_GPIO_Init+0x1e0>
 80043fc:	2303      	movs	r3, #3
 80043fe:	e006      	b.n	800440e <HAL_GPIO_Init+0x1ee>
 8004400:	2304      	movs	r3, #4
 8004402:	e004      	b.n	800440e <HAL_GPIO_Init+0x1ee>
 8004404:	2302      	movs	r3, #2
 8004406:	e002      	b.n	800440e <HAL_GPIO_Init+0x1ee>
 8004408:	2301      	movs	r3, #1
 800440a:	e000      	b.n	800440e <HAL_GPIO_Init+0x1ee>
 800440c:	2300      	movs	r3, #0
 800440e:	6a7a      	ldr	r2, [r7, #36]	; 0x24
 8004410:	f002 0203 	and.w	r2, r2, #3
 8004414:	0092      	lsls	r2, r2, #2
 8004416:	4093      	lsls	r3, r2
 8004418:	68fa      	ldr	r2, [r7, #12]
 800441a:	4313      	orrs	r3, r2
 800441c:	60fb      	str	r3, [r7, #12]
        AFIO->EXTICR[position >> 2u] = temp;
 800441e:	492f      	ldr	r1, [pc, #188]	; (80044dc <HAL_GPIO_Init+0x2bc>)
 8004420:	6a7b      	ldr	r3, [r7, #36]	; 0x24
 8004422:	089b      	lsrs	r3, r3, #2
 8004424:	3302      	adds	r3, #2
 8004426:	68fa      	ldr	r2, [r7, #12]
 8004428:	f841 2023 	str.w	r2, [r1, r3, lsl #2]


        /* Configure the interrupt mask */
        if ((GPIO_Init->Mode & GPIO_MODE_IT) == GPIO_MODE_IT)
 800442c:	683b      	ldr	r3, [r7, #0]
 800442e:	685b      	ldr	r3, [r3, #4]
 8004430:	f403 3380 	and.w	r3, r3, #65536	; 0x10000
 8004434:	2b00      	cmp	r3, #0
 8004436:	d006      	beq.n	8004446 <HAL_GPIO_Init+0x226>
        {
          SET_BIT(EXTI->IMR, iocurrent);
 8004438:	4b2d      	ldr	r3, [pc, #180]	; (80044f0 <HAL_GPIO_Init+0x2d0>)
 800443a:	681a      	ldr	r2, [r3, #0]
 800443c:	492c      	ldr	r1, [pc, #176]	; (80044f0 <HAL_GPIO_Init+0x2d0>)
 800443e:	69bb      	ldr	r3, [r7, #24]
 8004440:	4313      	orrs	r3, r2
 8004442:	600b      	str	r3, [r1, #0]
 8004444:	e006      	b.n	8004454 <HAL_GPIO_Init+0x234>
        }
        else
        {
          CLEAR_BIT(EXTI->IMR, iocurrent);
 8004446:	4b2a      	ldr	r3, [pc, #168]	; (80044f0 <HAL_GPIO_Init+0x2d0>)
 8004448:	681a      	ldr	r2, [r3, #0]
 800444a:	69bb      	ldr	r3, [r7, #24]
 800444c:	43db      	mvns	r3, r3
 800444e:	4928      	ldr	r1, [pc, #160]	; (80044f0 <HAL_GPIO_Init+0x2d0>)
 8004450:	4013      	ands	r3, r2
 8004452:	600b      	str	r3, [r1, #0]
        }

        /* Configure the event mask */
        if ((GPIO_Init->Mode & GPIO_MODE_EVT) == GPIO_MODE_EVT)
 8004454:	683b      	ldr	r3, [r7, #0]
 8004456:	685b      	ldr	r3, [r3, #4]
 8004458:	f403 3300 	and.w	r3, r3, #131072	; 0x20000
 800445c:	2b00      	cmp	r3, #0
 800445e:	d006      	beq.n	800446e <HAL_GPIO_Init+0x24e>
        {
          SET_BIT(EXTI->EMR, iocurrent);
 8004460:	4b23      	ldr	r3, [pc, #140]	; (80044f0 <HAL_GPIO_Init+0x2d0>)
 8004462:	685a      	ldr	r2, [r3, #4]
 8004464:	4922      	ldr	r1, [pc, #136]	; (80044f0 <HAL_GPIO_Init+0x2d0>)
 8004466:	69bb      	ldr	r3, [r7, #24]
 8004468:	4313      	orrs	r3, r2
 800446a:	604b      	str	r3, [r1, #4]
 800446c:	e006      	b.n	800447c <HAL_GPIO_Init+0x25c>
        }
        else
        {
          CLEAR_BIT(EXTI->EMR, iocurrent);
 800446e:	4b20      	ldr	r3, [pc, #128]	; (80044f0 <HAL_GPIO_Init+0x2d0>)
 8004470:	685a      	ldr	r2, [r3, #4]
 8004472:	69bb      	ldr	r3, [r7, #24]
 8004474:	43db      	mvns	r3, r3
 8004476:	491e      	ldr	r1, [pc, #120]	; (80044f0 <HAL_GPIO_Init+0x2d0>)
 8004478:	4013      	ands	r3, r2
 800447a:	604b      	str	r3, [r1, #4]
        }

        /* Enable or disable the rising trigger */
        if ((GPIO_Init->Mode & RISING_EDGE) == RISING_EDGE)
 800447c:	683b      	ldr	r3, [r7, #0]
 800447e:	685b      	ldr	r3, [r3, #4]
 8004480:	f403 1380 	and.w	r3, r3, #1048576	; 0x100000
 8004484:	2b00      	cmp	r3, #0
 8004486:	d006      	beq.n	8004496 <HAL_GPIO_Init+0x276>
        {
          SET_BIT(EXTI->RTSR, iocurrent);
 8004488:	4b19      	ldr	r3, [pc, #100]	; (80044f0 <HAL_GPIO_Init+0x2d0>)
 800448a:	689a      	ldr	r2, [r3, #8]
 800448c:	4918      	ldr	r1, [pc, #96]	; (80044f0 <HAL_GPIO_Init+0x2d0>)
 800448e:	69bb      	ldr	r3, [r7, #24]
 8004490:	4313      	orrs	r3, r2
 8004492:	608b      	str	r3, [r1, #8]
 8004494:	e006      	b.n	80044a4 <HAL_GPIO_Init+0x284>
        }
        else
        {
          CLEAR_BIT(EXTI->RTSR, iocurrent);
 8004496:	4b16      	ldr	r3, [pc, #88]	; (80044f0 <HAL_GPIO_Init+0x2d0>)
 8004498:	689a      	ldr	r2, [r3, #8]
 800449a:	69bb      	ldr	r3, [r7, #24]
 800449c:	43db      	mvns	r3, r3
 800449e:	4914      	ldr	r1, [pc, #80]	; (80044f0 <HAL_GPIO_Init+0x2d0>)
 80044a0:	4013      	ands	r3, r2
 80044a2:	608b      	str	r3, [r1, #8]
        }

        /* Enable or disable the falling trigger */
        if ((GPIO_Init->Mode & FALLING_EDGE) == FALLING_EDGE)
 80044a4:	683b      	ldr	r3, [r7, #0]
 80044a6:	685b      	ldr	r3, [r3, #4]
 80044a8:	f403 1300 	and.w	r3, r3, #2097152	; 0x200000
 80044ac:	2b00      	cmp	r3, #0
 80044ae:	d021      	beq.n	80044f4 <HAL_GPIO_Init+0x2d4>
        {
          SET_BIT(EXTI->FTSR, iocurrent);
 80044b0:	4b0f      	ldr	r3, [pc, #60]	; (80044f0 <HAL_GPIO_Init+0x2d0>)
 80044b2:	68da      	ldr	r2, [r3, #12]
 80044b4:	490e      	ldr	r1, [pc, #56]	; (80044f0 <HAL_GPIO_Init+0x2d0>)
 80044b6:	69bb      	ldr	r3, [r7, #24]
 80044b8:	4313      	orrs	r3, r2
 80044ba:	60cb      	str	r3, [r1, #12]
 80044bc:	e021      	b.n	8004502 <HAL_GPIO_Init+0x2e2>
 80044be:	bf00      	nop
 80044c0:	10320000 	.word	0x10320000
 80044c4:	10310000 	.word	0x10310000
 80044c8:	10220000 	.word	0x10220000
 80044cc:	10210000 	.word	0x10210000
 80044d0:	10120000 	.word	0x10120000
 80044d4:	10110000 	.word	0x10110000
 80044d8:	40021000 	.word	0x40021000
 80044dc:	40010000 	.word	0x40010000
 80044e0:	40010800 	.word	0x40010800
 80044e4:	40010c00 	.word	0x40010c00
 80044e8:	40011000 	.word	0x40011000
 80044ec:	40011400 	.word	0x40011400
 80044f0:	40010400 	.word	0x40010400
        }
        else
        {
          CLEAR_BIT(EXTI->FTSR, iocurrent);
 80044f4:	4b0b      	ldr	r3, [pc, #44]	; (8004524 <HAL_GPIO_Init+0x304>)
 80044f6:	68da      	ldr	r2, [r3, #12]
 80044f8:	69bb      	ldr	r3, [r7, #24]
 80044fa:	43db      	mvns	r3, r3
 80044fc:	4909      	ldr	r1, [pc, #36]	; (8004524 <HAL_GPIO_Init+0x304>)
 80044fe:	4013      	ands	r3, r2
 8004500:	60cb      	str	r3, [r1, #12]
        }
      }
    }

	position++;
 8004502:	6a7b      	ldr	r3, [r7, #36]	; 0x24
 8004504:	3301      	adds	r3, #1
 8004506:	627b      	str	r3, [r7, #36]	; 0x24
  while (((GPIO_Init->Pin) >> position) != 0x00u)
 8004508:	683b      	ldr	r3, [r7, #0]
 800450a:	681a      	ldr	r2, [r3, #0]
 800450c:	6a7b      	ldr	r3, [r7, #36]	; 0x24
 800450e:	fa22 f303 	lsr.w	r3, r2, r3
 8004512:	2b00      	cmp	r3, #0
 8004514:	f47f ae8e 	bne.w	8004234 <HAL_GPIO_Init+0x14>
  }
}
 8004518:	bf00      	nop
 800451a:	bf00      	nop
 800451c:	372c      	adds	r7, #44	; 0x2c
 800451e:	46bd      	mov	sp, r7
 8004520:	bc80      	pop	{r7}
 8004522:	4770      	bx	lr
 8004524:	40010400 	.word	0x40010400

08004528 <HAL_GPIO_ReadPin>:
  * @param  GPIO_Pin: specifies the port bit to read.
  *         This parameter can be GPIO_PIN_x where x can be (0..15).
  * @retval The input port pin value.
  */
GPIO_PinState HAL_GPIO_ReadPin(GPIO_TypeDef *GPIOx, uint16_t GPIO_Pin)
{
 8004528:	b480      	push	{r7}
 800452a:	b085      	sub	sp, #20
 800452c:	af00      	add	r7, sp, #0
 800452e:	6078      	str	r0, [r7, #4]
 8004530:	460b      	mov	r3, r1
 8004532:	807b      	strh	r3, [r7, #2]
  GPIO_PinState bitstatus;

  /* Check the parameters */
  assert_param(IS_GPIO_PIN(GPIO_Pin));

  if ((GPIOx->IDR & GPIO_Pin) != (uint32_t)GPIO_PIN_RESET)
 8004534:	687b      	ldr	r3, [r7, #4]
 8004536:	689a      	ldr	r2, [r3, #8]
 8004538:	887b      	ldrh	r3, [r7, #2]
 800453a:	4013      	ands	r3, r2
 800453c:	2b00      	cmp	r3, #0
 800453e:	d002      	beq.n	8004546 <HAL_GPIO_ReadPin+0x1e>
  {
    bitstatus = GPIO_PIN_SET;
 8004540:	2301      	movs	r3, #1
 8004542:	73fb      	strb	r3, [r7, #15]
 8004544:	e001      	b.n	800454a <HAL_GPIO_ReadPin+0x22>
  }
  else
  {
    bitstatus = GPIO_PIN_RESET;
 8004546:	2300      	movs	r3, #0
 8004548:	73fb      	strb	r3, [r7, #15]
  }
  return bitstatus;
 800454a:	7bfb      	ldrb	r3, [r7, #15]
}
 800454c:	4618      	mov	r0, r3
 800454e:	3714      	adds	r7, #20
 8004550:	46bd      	mov	sp, r7
 8004552:	bc80      	pop	{r7}
 8004554:	4770      	bx	lr

08004556 <HAL_GPIO_WritePin>:
  *            @arg GPIO_PIN_RESET: to clear the port pin
  *            @arg GPIO_PIN_SET: to set the port pin
  * @retval None
  */
void HAL_GPIO_WritePin(GPIO_TypeDef *GPIOx, uint16_t GPIO_Pin, GPIO_PinState PinState)
{
 8004556:	b480      	push	{r7}
 8004558:	b083      	sub	sp, #12
 800455a:	af00      	add	r7, sp, #0
 800455c:	6078      	str	r0, [r7, #4]
 800455e:	460b      	mov	r3, r1
 8004560:	807b      	strh	r3, [r7, #2]
 8004562:	4613      	mov	r3, r2
 8004564:	707b      	strb	r3, [r7, #1]
  /* Check the parameters */
  assert_param(IS_GPIO_PIN(GPIO_Pin));
  assert_param(IS_GPIO_PIN_ACTION(PinState));

  if (PinState != GPIO_PIN_RESET)
 8004566:	787b      	ldrb	r3, [r7, #1]
 8004568:	2b00      	cmp	r3, #0
 800456a:	d003      	beq.n	8004574 <HAL_GPIO_WritePin+0x1e>
  {
    GPIOx->BSRR = GPIO_Pin;
 800456c:	887a      	ldrh	r2, [r7, #2]
 800456e:	687b      	ldr	r3, [r7, #4]
 8004570:	611a      	str	r2, [r3, #16]
  }
  else
  {
    GPIOx->BSRR = (uint32_t)GPIO_Pin << 16u;
  }
}
 8004572:	e003      	b.n	800457c <HAL_GPIO_WritePin+0x26>
    GPIOx->BSRR = (uint32_t)GPIO_Pin << 16u;
 8004574:	887b      	ldrh	r3, [r7, #2]
 8004576:	041a      	lsls	r2, r3, #16
 8004578:	687b      	ldr	r3, [r7, #4]
 800457a:	611a      	str	r2, [r3, #16]
}
 800457c:	bf00      	nop
 800457e:	370c      	adds	r7, #12
 8004580:	46bd      	mov	sp, r7
 8004582:	bc80      	pop	{r7}
 8004584:	4770      	bx	lr
	...

08004588 <HAL_GPIO_EXTI_IRQHandler>:
  * @brief  This function handles EXTI interrupt request.
  * @param  GPIO_Pin: Specifies the pins connected EXTI line
  * @retval None
  */
void HAL_GPIO_EXTI_IRQHandler(uint16_t GPIO_Pin)
{
 8004588:	b580      	push	{r7, lr}
 800458a:	b082      	sub	sp, #8
 800458c:	af00      	add	r7, sp, #0
 800458e:	4603      	mov	r3, r0
 8004590:	80fb      	strh	r3, [r7, #6]
  /* EXTI line interrupt detected */
  if (__HAL_GPIO_EXTI_GET_IT(GPIO_Pin) != 0x00u)
 8004592:	4b08      	ldr	r3, [pc, #32]	; (80045b4 <HAL_GPIO_EXTI_IRQHandler+0x2c>)
 8004594:	695a      	ldr	r2, [r3, #20]
 8004596:	88fb      	ldrh	r3, [r7, #6]
 8004598:	4013      	ands	r3, r2
 800459a:	2b00      	cmp	r3, #0
 800459c:	d006      	beq.n	80045ac <HAL_GPIO_EXTI_IRQHandler+0x24>
  {
    __HAL_GPIO_EXTI_CLEAR_IT(GPIO_Pin);
 800459e:	4a05      	ldr	r2, [pc, #20]	; (80045b4 <HAL_GPIO_EXTI_IRQHandler+0x2c>)
 80045a0:	88fb      	ldrh	r3, [r7, #6]
 80045a2:	6153      	str	r3, [r2, #20]
    HAL_GPIO_EXTI_Callback(GPIO_Pin);
 80045a4:	88fb      	ldrh	r3, [r7, #6]
 80045a6:	4618      	mov	r0, r3
 80045a8:	f7fd fbf2 	bl	8001d90 <HAL_GPIO_EXTI_Callback>
  }
}
 80045ac:	bf00      	nop
 80045ae:	3708      	adds	r7, #8
 80045b0:	46bd      	mov	sp, r7
 80045b2:	bd80      	pop	{r7, pc}
 80045b4:	40010400 	.word	0x40010400

080045b8 <HAL_I2C_Init>:
  * @param  hi2c Pointer to a I2C_HandleTypeDef structure that contains
  *                the configuration information for the specified I2C.
  * @retval HAL status
  */
HAL_StatusTypeDef HAL_I2C_Init(I2C_HandleTypeDef *hi2c)
{
 80045b8:	b580      	push	{r7, lr}
 80045ba:	b084      	sub	sp, #16
 80045bc:	af00      	add	r7, sp, #0
 80045be:	6078      	str	r0, [r7, #4]
  uint32_t freqrange;
  uint32_t pclk1;

  /* Check the I2C handle allocation */
  if (hi2c == NULL)
 80045c0:	687b      	ldr	r3, [r7, #4]
 80045c2:	2b00      	cmp	r3, #0
 80045c4:	d101      	bne.n	80045ca <HAL_I2C_Init+0x12>
  {
    return HAL_ERROR;
 80045c6:	2301      	movs	r3, #1
 80045c8:	e12b      	b.n	8004822 <HAL_I2C_Init+0x26a>
  assert_param(IS_I2C_DUAL_ADDRESS(hi2c->Init.DualAddressMode));
  assert_param(IS_I2C_OWN_ADDRESS2(hi2c->Init.OwnAddress2));
  assert_param(IS_I2C_GENERAL_CALL(hi2c->Init.GeneralCallMode));
  assert_param(IS_I2C_NO_STRETCH(hi2c->Init.NoStretchMode));

  if (hi2c->State == HAL_I2C_STATE_RESET)
 80045ca:	687b      	ldr	r3, [r7, #4]
 80045cc:	f893 303d 	ldrb.w	r3, [r3, #61]	; 0x3d
 80045d0:	b2db      	uxtb	r3, r3
 80045d2:	2b00      	cmp	r3, #0
 80045d4:	d106      	bne.n	80045e4 <HAL_I2C_Init+0x2c>
  {
    /* Allocate lock resource and initialize it */
    hi2c->Lock = HAL_UNLOCKED;
 80045d6:	687b      	ldr	r3, [r7, #4]
 80045d8:	2200      	movs	r2, #0
 80045da:	f883 203c 	strb.w	r2, [r3, #60]	; 0x3c

    /* Init the low level hardware : GPIO, CLOCK, NVIC */
    hi2c->MspInitCallback(hi2c);
#else
    /* Init the low level hardware : GPIO, CLOCK, NVIC */
    HAL_I2C_MspInit(hi2c);
 80045de:	6878      	ldr	r0, [r7, #4]
 80045e0:	f7fe fd04 	bl	8002fec <HAL_I2C_MspInit>
#endif /* USE_HAL_I2C_REGISTER_CALLBACKS */
  }

  hi2c->State = HAL_I2C_STATE_BUSY;
 80045e4:	687b      	ldr	r3, [r7, #4]
 80045e6:	2224      	movs	r2, #36	; 0x24
 80045e8:	f883 203d 	strb.w	r2, [r3, #61]	; 0x3d

  /* Disable the selected I2C peripheral */
  __HAL_I2C_DISABLE(hi2c);
 80045ec:	687b      	ldr	r3, [r7, #4]
 80045ee:	681b      	ldr	r3, [r3, #0]
 80045f0:	681a      	ldr	r2, [r3, #0]
 80045f2:	687b      	ldr	r3, [r7, #4]
 80045f4:	681b      	ldr	r3, [r3, #0]
 80045f6:	f022 0201 	bic.w	r2, r2, #1
 80045fa:	601a      	str	r2, [r3, #0]

  /*Reset I2C*/
  hi2c->Instance->CR1 |= I2C_CR1_SWRST;
 80045fc:	687b      	ldr	r3, [r7, #4]
 80045fe:	681b      	ldr	r3, [r3, #0]
 8004600:	681a      	ldr	r2, [r3, #0]
 8004602:	687b      	ldr	r3, [r7, #4]
 8004604:	681b      	ldr	r3, [r3, #0]
 8004606:	f442 4200 	orr.w	r2, r2, #32768	; 0x8000
 800460a:	601a      	str	r2, [r3, #0]
  hi2c->Instance->CR1 &= ~I2C_CR1_SWRST;
 800460c:	687b      	ldr	r3, [r7, #4]
 800460e:	681b      	ldr	r3, [r3, #0]
 8004610:	681a      	ldr	r2, [r3, #0]
 8004612:	687b      	ldr	r3, [r7, #4]
 8004614:	681b      	ldr	r3, [r3, #0]
 8004616:	f422 4200 	bic.w	r2, r2, #32768	; 0x8000
 800461a:	601a      	str	r2, [r3, #0]

  /* Get PCLK1 frequency */
  pclk1 = HAL_RCC_GetPCLK1Freq();
 800461c:	f001 fc36 	bl	8005e8c <HAL_RCC_GetPCLK1Freq>
 8004620:	60f8      	str	r0, [r7, #12]

  /* Check the minimum allowed PCLK1 frequency */
  if (I2C_MIN_PCLK_FREQ(pclk1, hi2c->Init.ClockSpeed) == 1U)
 8004622:	687b      	ldr	r3, [r7, #4]
 8004624:	685b      	ldr	r3, [r3, #4]
 8004626:	4a81      	ldr	r2, [pc, #516]	; (800482c <HAL_I2C_Init+0x274>)
 8004628:	4293      	cmp	r3, r2
 800462a:	d807      	bhi.n	800463c <HAL_I2C_Init+0x84>
 800462c:	68fb      	ldr	r3, [r7, #12]
 800462e:	4a80      	ldr	r2, [pc, #512]	; (8004830 <HAL_I2C_Init+0x278>)
 8004630:	4293      	cmp	r3, r2
 8004632:	bf94      	ite	ls
 8004634:	2301      	movls	r3, #1
 8004636:	2300      	movhi	r3, #0
 8004638:	b2db      	uxtb	r3, r3
 800463a:	e006      	b.n	800464a <HAL_I2C_Init+0x92>
 800463c:	68fb      	ldr	r3, [r7, #12]
 800463e:	4a7d      	ldr	r2, [pc, #500]	; (8004834 <HAL_I2C_Init+0x27c>)
 8004640:	4293      	cmp	r3, r2
 8004642:	bf94      	ite	ls
 8004644:	2301      	movls	r3, #1
 8004646:	2300      	movhi	r3, #0
 8004648:	b2db      	uxtb	r3, r3
 800464a:	2b00      	cmp	r3, #0
 800464c:	d001      	beq.n	8004652 <HAL_I2C_Init+0x9a>
  {
    return HAL_ERROR;
 800464e:	2301      	movs	r3, #1
 8004650:	e0e7      	b.n	8004822 <HAL_I2C_Init+0x26a>
  }

  /* Calculate frequency range */
  freqrange = I2C_FREQRANGE(pclk1);
 8004652:	68fb      	ldr	r3, [r7, #12]
 8004654:	4a78      	ldr	r2, [pc, #480]	; (8004838 <HAL_I2C_Init+0x280>)
 8004656:	fba2 2303 	umull	r2, r3, r2, r3
 800465a:	0c9b      	lsrs	r3, r3, #18
 800465c:	60bb      	str	r3, [r7, #8]

  /*---------------------------- I2Cx CR2 Configuration ----------------------*/
  /* Configure I2Cx: Frequency range */
  MODIFY_REG(hi2c->Instance->CR2, I2C_CR2_FREQ, freqrange);
 800465e:	687b      	ldr	r3, [r7, #4]
 8004660:	681b      	ldr	r3, [r3, #0]
 8004662:	685b      	ldr	r3, [r3, #4]
 8004664:	f023 013f 	bic.w	r1, r3, #63	; 0x3f
 8004668:	687b      	ldr	r3, [r7, #4]
 800466a:	681b      	ldr	r3, [r3, #0]
 800466c:	68ba      	ldr	r2, [r7, #8]
 800466e:	430a      	orrs	r2, r1
 8004670:	605a      	str	r2, [r3, #4]

  /*---------------------------- I2Cx TRISE Configuration --------------------*/
  /* Configure I2Cx: Rise Time */
  MODIFY_REG(hi2c->Instance->TRISE, I2C_TRISE_TRISE, I2C_RISE_TIME(freqrange, hi2c->Init.ClockSpeed));
 8004672:	687b      	ldr	r3, [r7, #4]
 8004674:	681b      	ldr	r3, [r3, #0]
 8004676:	6a1b      	ldr	r3, [r3, #32]
 8004678:	f023 013f 	bic.w	r1, r3, #63	; 0x3f
 800467c:	687b      	ldr	r3, [r7, #4]
 800467e:	685b      	ldr	r3, [r3, #4]
 8004680:	4a6a      	ldr	r2, [pc, #424]	; (800482c <HAL_I2C_Init+0x274>)
 8004682:	4293      	cmp	r3, r2
 8004684:	d802      	bhi.n	800468c <HAL_I2C_Init+0xd4>
 8004686:	68bb      	ldr	r3, [r7, #8]
 8004688:	3301      	adds	r3, #1
 800468a:	e009      	b.n	80046a0 <HAL_I2C_Init+0xe8>
 800468c:	68bb      	ldr	r3, [r7, #8]
 800468e:	f44f 7296 	mov.w	r2, #300	; 0x12c
 8004692:	fb02 f303 	mul.w	r3, r2, r3
 8004696:	4a69      	ldr	r2, [pc, #420]	; (800483c <HAL_I2C_Init+0x284>)
 8004698:	fba2 2303 	umull	r2, r3, r2, r3
 800469c:	099b      	lsrs	r3, r3, #6
 800469e:	3301      	adds	r3, #1
 80046a0:	687a      	ldr	r2, [r7, #4]
 80046a2:	6812      	ldr	r2, [r2, #0]
 80046a4:	430b      	orrs	r3, r1
 80046a6:	6213      	str	r3, [r2, #32]

  /*---------------------------- I2Cx CCR Configuration ----------------------*/
  /* Configure I2Cx: Speed */
  MODIFY_REG(hi2c->Instance->CCR, (I2C_CCR_FS | I2C_CCR_DUTY | I2C_CCR_CCR), I2C_SPEED(pclk1, hi2c->Init.ClockSpeed, hi2c->Init.DutyCycle));
 80046a8:	687b      	ldr	r3, [r7, #4]
 80046aa:	681b      	ldr	r3, [r3, #0]
 80046ac:	69db      	ldr	r3, [r3, #28]
 80046ae:	f423 424f 	bic.w	r2, r3, #52992	; 0xcf00
 80046b2:	f022 02ff 	bic.w	r2, r2, #255	; 0xff
 80046b6:	687b      	ldr	r3, [r7, #4]
 80046b8:	685b      	ldr	r3, [r3, #4]
 80046ba:	495c      	ldr	r1, [pc, #368]	; (800482c <HAL_I2C_Init+0x274>)
 80046bc:	428b      	cmp	r3, r1
 80046be:	d819      	bhi.n	80046f4 <HAL_I2C_Init+0x13c>
 80046c0:	68fb      	ldr	r3, [r7, #12]
 80046c2:	1e59      	subs	r1, r3, #1
 80046c4:	687b      	ldr	r3, [r7, #4]
 80046c6:	685b      	ldr	r3, [r3, #4]
 80046c8:	005b      	lsls	r3, r3, #1
 80046ca:	fbb1 f3f3 	udiv	r3, r1, r3
 80046ce:	1c59      	adds	r1, r3, #1
 80046d0:	f640 73fc 	movw	r3, #4092	; 0xffc
 80046d4:	400b      	ands	r3, r1
 80046d6:	2b00      	cmp	r3, #0
 80046d8:	d00a      	beq.n	80046f0 <HAL_I2C_Init+0x138>
 80046da:	68fb      	ldr	r3, [r7, #12]
 80046dc:	1e59      	subs	r1, r3, #1
 80046de:	687b      	ldr	r3, [r7, #4]
 80046e0:	685b      	ldr	r3, [r3, #4]
 80046e2:	005b      	lsls	r3, r3, #1
 80046e4:	fbb1 f3f3 	udiv	r3, r1, r3
 80046e8:	3301      	adds	r3, #1
 80046ea:	f3c3 030b 	ubfx	r3, r3, #0, #12
 80046ee:	e051      	b.n	8004794 <HAL_I2C_Init+0x1dc>
 80046f0:	2304      	movs	r3, #4
 80046f2:	e04f      	b.n	8004794 <HAL_I2C_Init+0x1dc>
 80046f4:	687b      	ldr	r3, [r7, #4]
 80046f6:	689b      	ldr	r3, [r3, #8]
 80046f8:	2b00      	cmp	r3, #0
 80046fa:	d111      	bne.n	8004720 <HAL_I2C_Init+0x168>
 80046fc:	68fb      	ldr	r3, [r7, #12]
 80046fe:	1e58      	subs	r0, r3, #1
 8004700:	687b      	ldr	r3, [r7, #4]
 8004702:	6859      	ldr	r1, [r3, #4]
 8004704:	460b      	mov	r3, r1
 8004706:	005b      	lsls	r3, r3, #1
 8004708:	440b      	add	r3, r1
 800470a:	fbb0 f3f3 	udiv	r3, r0, r3
 800470e:	3301      	adds	r3, #1
 8004710:	f3c3 030b 	ubfx	r3, r3, #0, #12
 8004714:	2b00      	cmp	r3, #0
 8004716:	bf0c      	ite	eq
 8004718:	2301      	moveq	r3, #1
 800471a:	2300      	movne	r3, #0
 800471c:	b2db      	uxtb	r3, r3
 800471e:	e012      	b.n	8004746 <HAL_I2C_Init+0x18e>
 8004720:	68fb      	ldr	r3, [r7, #12]
 8004722:	1e58      	subs	r0, r3, #1
 8004724:	687b      	ldr	r3, [r7, #4]
 8004726:	6859      	ldr	r1, [r3, #4]
 8004728:	460b      	mov	r3, r1
 800472a:	009b      	lsls	r3, r3, #2
 800472c:	440b      	add	r3, r1
 800472e:	0099      	lsls	r1, r3, #2
 8004730:	440b      	add	r3, r1
 8004732:	fbb0 f3f3 	udiv	r3, r0, r3
 8004736:	3301      	adds	r3, #1
 8004738:	f3c3 030b 	ubfx	r3, r3, #0, #12
 800473c:	2b00      	cmp	r3, #0
 800473e:	bf0c      	ite	eq
 8004740:	2301      	moveq	r3, #1
 8004742:	2300      	movne	r3, #0
 8004744:	b2db      	uxtb	r3, r3
 8004746:	2b00      	cmp	r3, #0
 8004748:	d001      	beq.n	800474e <HAL_I2C_Init+0x196>
 800474a:	2301      	movs	r3, #1
 800474c:	e022      	b.n	8004794 <HAL_I2C_Init+0x1dc>
 800474e:	687b      	ldr	r3, [r7, #4]
 8004750:	689b      	ldr	r3, [r3, #8]
 8004752:	2b00      	cmp	r3, #0
 8004754:	d10e      	bne.n	8004774 <HAL_I2C_Init+0x1bc>
 8004756:	68fb      	ldr	r3, [r7, #12]
 8004758:	1e58      	subs	r0, r3, #1
 800475a:	687b      	ldr	r3, [r7, #4]
 800475c:	6859      	ldr	r1, [r3, #4]
 800475e:	460b      	mov	r3, r1
 8004760:	005b      	lsls	r3, r3, #1
 8004762:	440b      	add	r3, r1
 8004764:	fbb0 f3f3 	udiv	r3, r0, r3
 8004768:	3301      	adds	r3, #1
 800476a:	f3c3 030b 	ubfx	r3, r3, #0, #12
 800476e:	f443 4300 	orr.w	r3, r3, #32768	; 0x8000
 8004772:	e00f      	b.n	8004794 <HAL_I2C_Init+0x1dc>
 8004774:	68fb      	ldr	r3, [r7, #12]
 8004776:	1e58      	subs	r0, r3, #1
 8004778:	687b      	ldr	r3, [r7, #4]
 800477a:	6859      	ldr	r1, [r3, #4]
 800477c:	460b      	mov	r3, r1
 800477e:	009b      	lsls	r3, r3, #2
 8004780:	440b      	add	r3, r1
 8004782:	0099      	lsls	r1, r3, #2
 8004784:	440b      	add	r3, r1
 8004786:	fbb0 f3f3 	udiv	r3, r0, r3
 800478a:	3301      	adds	r3, #1
 800478c:	f3c3 030b 	ubfx	r3, r3, #0, #12
 8004790:	f443 4340 	orr.w	r3, r3, #49152	; 0xc000
 8004794:	6879      	ldr	r1, [r7, #4]
 8004796:	6809      	ldr	r1, [r1, #0]
 8004798:	4313      	orrs	r3, r2
 800479a:	61cb      	str	r3, [r1, #28]

  /*---------------------------- I2Cx CR1 Configuration ----------------------*/
  /* Configure I2Cx: Generalcall and NoStretch mode */
  MODIFY_REG(hi2c->Instance->CR1, (I2C_CR1_ENGC | I2C_CR1_NOSTRETCH), (hi2c->Init.GeneralCallMode | hi2c->Init.NoStretchMode));
 800479c:	687b      	ldr	r3, [r7, #4]
 800479e:	681b      	ldr	r3, [r3, #0]
 80047a0:	681b      	ldr	r3, [r3, #0]
 80047a2:	f023 01c0 	bic.w	r1, r3, #192	; 0xc0
 80047a6:	687b      	ldr	r3, [r7, #4]
 80047a8:	69da      	ldr	r2, [r3, #28]
 80047aa:	687b      	ldr	r3, [r7, #4]
 80047ac:	6a1b      	ldr	r3, [r3, #32]
 80047ae:	431a      	orrs	r2, r3
 80047b0:	687b      	ldr	r3, [r7, #4]
 80047b2:	681b      	ldr	r3, [r3, #0]
 80047b4:	430a      	orrs	r2, r1
 80047b6:	601a      	str	r2, [r3, #0]

  /*---------------------------- I2Cx OAR1 Configuration ---------------------*/
  /* Configure I2Cx: Own Address1 and addressing mode */
  MODIFY_REG(hi2c->Instance->OAR1, (I2C_OAR1_ADDMODE | I2C_OAR1_ADD8_9 | I2C_OAR1_ADD1_7 | I2C_OAR1_ADD0), (hi2c->Init.AddressingMode | hi2c->Init.OwnAddress1));
 80047b8:	687b      	ldr	r3, [r7, #4]
 80047ba:	681b      	ldr	r3, [r3, #0]
 80047bc:	689b      	ldr	r3, [r3, #8]
 80047be:	f423 4303 	bic.w	r3, r3, #33536	; 0x8300
 80047c2:	f023 03ff 	bic.w	r3, r3, #255	; 0xff
 80047c6:	687a      	ldr	r2, [r7, #4]
 80047c8:	6911      	ldr	r1, [r2, #16]
 80047ca:	687a      	ldr	r2, [r7, #4]
 80047cc:	68d2      	ldr	r2, [r2, #12]
 80047ce:	4311      	orrs	r1, r2
 80047d0:	687a      	ldr	r2, [r7, #4]
 80047d2:	6812      	ldr	r2, [r2, #0]
 80047d4:	430b      	orrs	r3, r1
 80047d6:	6093      	str	r3, [r2, #8]

  /*---------------------------- I2Cx OAR2 Configuration ---------------------*/
  /* Configure I2Cx: Dual mode and Own Address2 */
  MODIFY_REG(hi2c->Instance->OAR2, (I2C_OAR2_ENDUAL | I2C_OAR2_ADD2), (hi2c->Init.DualAddressMode | hi2c->Init.OwnAddress2));
 80047d8:	687b      	ldr	r3, [r7, #4]
 80047da:	681b      	ldr	r3, [r3, #0]
 80047dc:	68db      	ldr	r3, [r3, #12]
 80047de:	f023 01ff 	bic.w	r1, r3, #255	; 0xff
 80047e2:	687b      	ldr	r3, [r7, #4]
 80047e4:	695a      	ldr	r2, [r3, #20]
 80047e6:	687b      	ldr	r3, [r7, #4]
 80047e8:	699b      	ldr	r3, [r3, #24]
 80047ea:	431a      	orrs	r2, r3
 80047ec:	687b      	ldr	r3, [r7, #4]
 80047ee:	681b      	ldr	r3, [r3, #0]
 80047f0:	430a      	orrs	r2, r1
 80047f2:	60da      	str	r2, [r3, #12]

  /* Enable the selected I2C peripheral */
  __HAL_I2C_ENABLE(hi2c);
 80047f4:	687b      	ldr	r3, [r7, #4]
 80047f6:	681b      	ldr	r3, [r3, #0]
 80047f8:	681a      	ldr	r2, [r3, #0]
 80047fa:	687b      	ldr	r3, [r7, #4]
 80047fc:	681b      	ldr	r3, [r3, #0]
 80047fe:	f042 0201 	orr.w	r2, r2, #1
 8004802:	601a      	str	r2, [r3, #0]

  hi2c->ErrorCode = HAL_I2C_ERROR_NONE;
 8004804:	687b      	ldr	r3, [r7, #4]
 8004806:	2200      	movs	r2, #0
 8004808:	641a      	str	r2, [r3, #64]	; 0x40
  hi2c->State = HAL_I2C_STATE_READY;
 800480a:	687b      	ldr	r3, [r7, #4]
 800480c:	2220      	movs	r2, #32
 800480e:	f883 203d 	strb.w	r2, [r3, #61]	; 0x3d
  hi2c->PreviousState = I2C_STATE_NONE;
 8004812:	687b      	ldr	r3, [r7, #4]
 8004814:	2200      	movs	r2, #0
 8004816:	631a      	str	r2, [r3, #48]	; 0x30
  hi2c->Mode = HAL_I2C_MODE_NONE;
 8004818:	687b      	ldr	r3, [r7, #4]
 800481a:	2200      	movs	r2, #0
 800481c:	f883 203e 	strb.w	r2, [r3, #62]	; 0x3e

  return HAL_OK;
 8004820:	2300      	movs	r3, #0
}
 8004822:	4618      	mov	r0, r3
 8004824:	3710      	adds	r7, #16
 8004826:	46bd      	mov	sp, r7
 8004828:	bd80      	pop	{r7, pc}
 800482a:	bf00      	nop
 800482c:	000186a0 	.word	0x000186a0
 8004830:	001e847f 	.word	0x001e847f
 8004834:	003d08ff 	.word	0x003d08ff
 8004838:	431bde83 	.word	0x431bde83
 800483c:	10624dd3 	.word	0x10624dd3

08004840 <HAL_I2C_Master_Transmit>:
  * @param  Size Amount of data to be sent
  * @param  Timeout Timeout duration
  * @retval HAL status
  */
HAL_StatusTypeDef HAL_I2C_Master_Transmit(I2C_HandleTypeDef *hi2c, uint16_t DevAddress, uint8_t *pData, uint16_t Size, uint32_t Timeout)
{
 8004840:	b580      	push	{r7, lr}
 8004842:	b088      	sub	sp, #32
 8004844:	af02      	add	r7, sp, #8
 8004846:	60f8      	str	r0, [r7, #12]
 8004848:	607a      	str	r2, [r7, #4]
 800484a:	461a      	mov	r2, r3
 800484c:	460b      	mov	r3, r1
 800484e:	817b      	strh	r3, [r7, #10]
 8004850:	4613      	mov	r3, r2
 8004852:	813b      	strh	r3, [r7, #8]
  /* Init tickstart for timeout management*/
  uint32_t tickstart = HAL_GetTick();
 8004854:	f7fe fd78 	bl	8003348 <HAL_GetTick>
 8004858:	6178      	str	r0, [r7, #20]

  if (hi2c->State == HAL_I2C_STATE_READY)
 800485a:	68fb      	ldr	r3, [r7, #12]
 800485c:	f893 303d 	ldrb.w	r3, [r3, #61]	; 0x3d
 8004860:	b2db      	uxtb	r3, r3
 8004862:	2b20      	cmp	r3, #32
 8004864:	f040 80e0 	bne.w	8004a28 <HAL_I2C_Master_Transmit+0x1e8>
  {
    /* Wait until BUSY flag is reset */
    if (I2C_WaitOnFlagUntilTimeout(hi2c, I2C_FLAG_BUSY, SET, I2C_TIMEOUT_BUSY_FLAG, tickstart) != HAL_OK)
 8004868:	697b      	ldr	r3, [r7, #20]
 800486a:	9300      	str	r3, [sp, #0]
 800486c:	2319      	movs	r3, #25
 800486e:	2201      	movs	r2, #1
 8004870:	4970      	ldr	r1, [pc, #448]	; (8004a34 <HAL_I2C_Master_Transmit+0x1f4>)
 8004872:	68f8      	ldr	r0, [r7, #12]
 8004874:	f000 fdb0 	bl	80053d8 <I2C_WaitOnFlagUntilTimeout>
 8004878:	4603      	mov	r3, r0
 800487a:	2b00      	cmp	r3, #0
 800487c:	d001      	beq.n	8004882 <HAL_I2C_Master_Transmit+0x42>
    {
      return HAL_BUSY;
 800487e:	2302      	movs	r3, #2
 8004880:	e0d3      	b.n	8004a2a <HAL_I2C_Master_Transmit+0x1ea>
    }

    /* Process Locked */
    __HAL_LOCK(hi2c);
 8004882:	68fb      	ldr	r3, [r7, #12]
 8004884:	f893 303c 	ldrb.w	r3, [r3, #60]	; 0x3c
 8004888:	2b01      	cmp	r3, #1
 800488a:	d101      	bne.n	8004890 <HAL_I2C_Master_Transmit+0x50>
 800488c:	2302      	movs	r3, #2
 800488e:	e0cc      	b.n	8004a2a <HAL_I2C_Master_Transmit+0x1ea>
 8004890:	68fb      	ldr	r3, [r7, #12]
 8004892:	2201      	movs	r2, #1
 8004894:	f883 203c 	strb.w	r2, [r3, #60]	; 0x3c

    /* Check if the I2C is already enabled */
    if ((hi2c->Instance->CR1 & I2C_CR1_PE) != I2C_CR1_PE)
 8004898:	68fb      	ldr	r3, [r7, #12]
 800489a:	681b      	ldr	r3, [r3, #0]
 800489c:	681b      	ldr	r3, [r3, #0]
 800489e:	f003 0301 	and.w	r3, r3, #1
 80048a2:	2b01      	cmp	r3, #1
 80048a4:	d007      	beq.n	80048b6 <HAL_I2C_Master_Transmit+0x76>
    {
      /* Enable I2C peripheral */
      __HAL_I2C_ENABLE(hi2c);
 80048a6:	68fb      	ldr	r3, [r7, #12]
 80048a8:	681b      	ldr	r3, [r3, #0]
 80048aa:	681a      	ldr	r2, [r3, #0]
 80048ac:	68fb      	ldr	r3, [r7, #12]
 80048ae:	681b      	ldr	r3, [r3, #0]
 80048b0:	f042 0201 	orr.w	r2, r2, #1
 80048b4:	601a      	str	r2, [r3, #0]
    }

    /* Disable Pos */
    CLEAR_BIT(hi2c->Instance->CR1, I2C_CR1_POS);
 80048b6:	68fb      	ldr	r3, [r7, #12]
 80048b8:	681b      	ldr	r3, [r3, #0]
 80048ba:	681a      	ldr	r2, [r3, #0]
 80048bc:	68fb      	ldr	r3, [r7, #12]
 80048be:	681b      	ldr	r3, [r3, #0]
 80048c0:	f422 6200 	bic.w	r2, r2, #2048	; 0x800
 80048c4:	601a      	str	r2, [r3, #0]

    hi2c->State       = HAL_I2C_STATE_BUSY_TX;
 80048c6:	68fb      	ldr	r3, [r7, #12]
 80048c8:	2221      	movs	r2, #33	; 0x21
 80048ca:	f883 203d 	strb.w	r2, [r3, #61]	; 0x3d
    hi2c->Mode        = HAL_I2C_MODE_MASTER;
 80048ce:	68fb      	ldr	r3, [r7, #12]
 80048d0:	2210      	movs	r2, #16
 80048d2:	f883 203e 	strb.w	r2, [r3, #62]	; 0x3e
    hi2c->ErrorCode   = HAL_I2C_ERROR_NONE;
 80048d6:	68fb      	ldr	r3, [r7, #12]
 80048d8:	2200      	movs	r2, #0
 80048da:	641a      	str	r2, [r3, #64]	; 0x40

    /* Prepare transfer parameters */
    hi2c->pBuffPtr    = pData;
 80048dc:	68fb      	ldr	r3, [r7, #12]
 80048de:	687a      	ldr	r2, [r7, #4]
 80048e0:	625a      	str	r2, [r3, #36]	; 0x24
    hi2c->XferCount   = Size;
 80048e2:	68fb      	ldr	r3, [r7, #12]
 80048e4:	893a      	ldrh	r2, [r7, #8]
 80048e6:	855a      	strh	r2, [r3, #42]	; 0x2a
    hi2c->XferSize    = hi2c->XferCount;
 80048e8:	68fb      	ldr	r3, [r7, #12]
 80048ea:	8d5b      	ldrh	r3, [r3, #42]	; 0x2a
 80048ec:	b29a      	uxth	r2, r3
 80048ee:	68fb      	ldr	r3, [r7, #12]
 80048f0:	851a      	strh	r2, [r3, #40]	; 0x28
    hi2c->XferOptions = I2C_NO_OPTION_FRAME;
 80048f2:	68fb      	ldr	r3, [r7, #12]
 80048f4:	4a50      	ldr	r2, [pc, #320]	; (8004a38 <HAL_I2C_Master_Transmit+0x1f8>)
 80048f6:	62da      	str	r2, [r3, #44]	; 0x2c

    /* Send Slave Address */
    if (I2C_MasterRequestWrite(hi2c, DevAddress, Timeout, tickstart) != HAL_OK)
 80048f8:	8979      	ldrh	r1, [r7, #10]
 80048fa:	697b      	ldr	r3, [r7, #20]
 80048fc:	6a3a      	ldr	r2, [r7, #32]
 80048fe:	68f8      	ldr	r0, [r7, #12]
 8004900:	f000 fc40 	bl	8005184 <I2C_MasterRequestWrite>
 8004904:	4603      	mov	r3, r0
 8004906:	2b00      	cmp	r3, #0
 8004908:	d001      	beq.n	800490e <HAL_I2C_Master_Transmit+0xce>
    {
      return HAL_ERROR;
 800490a:	2301      	movs	r3, #1
 800490c:	e08d      	b.n	8004a2a <HAL_I2C_Master_Transmit+0x1ea>
    }

    /* Clear ADDR flag */
    __HAL_I2C_CLEAR_ADDRFLAG(hi2c);
 800490e:	2300      	movs	r3, #0
 8004910:	613b      	str	r3, [r7, #16]
 8004912:	68fb      	ldr	r3, [r7, #12]
 8004914:	681b      	ldr	r3, [r3, #0]
 8004916:	695b      	ldr	r3, [r3, #20]
 8004918:	613b      	str	r3, [r7, #16]
 800491a:	68fb      	ldr	r3, [r7, #12]
 800491c:	681b      	ldr	r3, [r3, #0]
 800491e:	699b      	ldr	r3, [r3, #24]
 8004920:	613b      	str	r3, [r7, #16]
 8004922:	693b      	ldr	r3, [r7, #16]

    while (hi2c->XferSize > 0U)
 8004924:	e066      	b.n	80049f4 <HAL_I2C_Master_Transmit+0x1b4>
    {
      /* Wait until TXE flag is set */
      if (I2C_WaitOnTXEFlagUntilTimeout(hi2c, Timeout, tickstart) != HAL_OK)
 8004926:	697a      	ldr	r2, [r7, #20]
 8004928:	6a39      	ldr	r1, [r7, #32]
 800492a:	68f8      	ldr	r0, [r7, #12]
 800492c:	f000 fe2a 	bl	8005584 <I2C_WaitOnTXEFlagUntilTimeout>
 8004930:	4603      	mov	r3, r0
 8004932:	2b00      	cmp	r3, #0
 8004934:	d00d      	beq.n	8004952 <HAL_I2C_Master_Transmit+0x112>
      {
        if (hi2c->ErrorCode == HAL_I2C_ERROR_AF)
 8004936:	68fb      	ldr	r3, [r7, #12]
 8004938:	6c1b      	ldr	r3, [r3, #64]	; 0x40
 800493a:	2b04      	cmp	r3, #4
 800493c:	d107      	bne.n	800494e <HAL_I2C_Master_Transmit+0x10e>
        {
          /* Generate Stop */
          SET_BIT(hi2c->Instance->CR1, I2C_CR1_STOP);
 800493e:	68fb      	ldr	r3, [r7, #12]
 8004940:	681b      	ldr	r3, [r3, #0]
 8004942:	681a      	ldr	r2, [r3, #0]
 8004944:	68fb      	ldr	r3, [r7, #12]
 8004946:	681b      	ldr	r3, [r3, #0]
 8004948:	f442 7200 	orr.w	r2, r2, #512	; 0x200
 800494c:	601a      	str	r2, [r3, #0]
        }
        return HAL_ERROR;
 800494e:	2301      	movs	r3, #1
 8004950:	e06b      	b.n	8004a2a <HAL_I2C_Master_Transmit+0x1ea>
      }

      /* Write data to DR */
      hi2c->Instance->DR = *hi2c->pBuffPtr;
 8004952:	68fb      	ldr	r3, [r7, #12]
 8004954:	6a5b      	ldr	r3, [r3, #36]	; 0x24
 8004956:	781a      	ldrb	r2, [r3, #0]
 8004958:	68fb      	ldr	r3, [r7, #12]
 800495a:	681b      	ldr	r3, [r3, #0]
 800495c:	611a      	str	r2, [r3, #16]

      /* Increment Buffer pointer */
      hi2c->pBuffPtr++;
 800495e:	68fb      	ldr	r3, [r7, #12]
 8004960:	6a5b      	ldr	r3, [r3, #36]	; 0x24
 8004962:	1c5a      	adds	r2, r3, #1
 8004964:	68fb      	ldr	r3, [r7, #12]
 8004966:	625a      	str	r2, [r3, #36]	; 0x24

      /* Update counter */
      hi2c->XferCount--;
 8004968:	68fb      	ldr	r3, [r7, #12]
 800496a:	8d5b      	ldrh	r3, [r3, #42]	; 0x2a
 800496c:	b29b      	uxth	r3, r3
 800496e:	3b01      	subs	r3, #1
 8004970:	b29a      	uxth	r2, r3
 8004972:	68fb      	ldr	r3, [r7, #12]
 8004974:	855a      	strh	r2, [r3, #42]	; 0x2a
      hi2c->XferSize--;
 8004976:	68fb      	ldr	r3, [r7, #12]
 8004978:	8d1b      	ldrh	r3, [r3, #40]	; 0x28
 800497a:	3b01      	subs	r3, #1
 800497c:	b29a      	uxth	r2, r3
 800497e:	68fb      	ldr	r3, [r7, #12]
 8004980:	851a      	strh	r2, [r3, #40]	; 0x28

      if ((__HAL_I2C_GET_FLAG(hi2c, I2C_FLAG_BTF) == SET) && (hi2c->XferSize != 0U))
 8004982:	68fb      	ldr	r3, [r7, #12]
 8004984:	681b      	ldr	r3, [r3, #0]
 8004986:	695b      	ldr	r3, [r3, #20]
 8004988:	f003 0304 	and.w	r3, r3, #4
 800498c:	2b04      	cmp	r3, #4
 800498e:	d11b      	bne.n	80049c8 <HAL_I2C_Master_Transmit+0x188>
 8004990:	68fb      	ldr	r3, [r7, #12]
 8004992:	8d1b      	ldrh	r3, [r3, #40]	; 0x28
 8004994:	2b00      	cmp	r3, #0
 8004996:	d017      	beq.n	80049c8 <HAL_I2C_Master_Transmit+0x188>
      {
        /* Write data to DR */
        hi2c->Instance->DR = *hi2c->pBuffPtr;
 8004998:	68fb      	ldr	r3, [r7, #12]
 800499a:	6a5b      	ldr	r3, [r3, #36]	; 0x24
 800499c:	781a      	ldrb	r2, [r3, #0]
 800499e:	68fb      	ldr	r3, [r7, #12]
 80049a0:	681b      	ldr	r3, [r3, #0]
 80049a2:	611a      	str	r2, [r3, #16]

        /* Increment Buffer pointer */
        hi2c->pBuffPtr++;
 80049a4:	68fb      	ldr	r3, [r7, #12]
 80049a6:	6a5b      	ldr	r3, [r3, #36]	; 0x24
 80049a8:	1c5a      	adds	r2, r3, #1
 80049aa:	68fb      	ldr	r3, [r7, #12]
 80049ac:	625a      	str	r2, [r3, #36]	; 0x24

        /* Update counter */
        hi2c->XferCount--;
 80049ae:	68fb      	ldr	r3, [r7, #12]
 80049b0:	8d5b      	ldrh	r3, [r3, #42]	; 0x2a
 80049b2:	b29b      	uxth	r3, r3
 80049b4:	3b01      	subs	r3, #1
 80049b6:	b29a      	uxth	r2, r3
 80049b8:	68fb      	ldr	r3, [r7, #12]
 80049ba:	855a      	strh	r2, [r3, #42]	; 0x2a
        hi2c->XferSize--;
 80049bc:	68fb      	ldr	r3, [r7, #12]
 80049be:	8d1b      	ldrh	r3, [r3, #40]	; 0x28
 80049c0:	3b01      	subs	r3, #1
 80049c2:	b29a      	uxth	r2, r3
 80049c4:	68fb      	ldr	r3, [r7, #12]
 80049c6:	851a      	strh	r2, [r3, #40]	; 0x28
      }

      /* Wait until BTF flag is set */
      if (I2C_WaitOnBTFFlagUntilTimeout(hi2c, Timeout, tickstart) != HAL_OK)
 80049c8:	697a      	ldr	r2, [r7, #20]
 80049ca:	6a39      	ldr	r1, [r7, #32]
 80049cc:	68f8      	ldr	r0, [r7, #12]
 80049ce:	f000 fe1a 	bl	8005606 <I2C_WaitOnBTFFlagUntilTimeout>
 80049d2:	4603      	mov	r3, r0
 80049d4:	2b00      	cmp	r3, #0
 80049d6:	d00d      	beq.n	80049f4 <HAL_I2C_Master_Transmit+0x1b4>
      {
        if (hi2c->ErrorCode == HAL_I2C_ERROR_AF)
 80049d8:	68fb      	ldr	r3, [r7, #12]
 80049da:	6c1b      	ldr	r3, [r3, #64]	; 0x40
 80049dc:	2b04      	cmp	r3, #4
 80049de:	d107      	bne.n	80049f0 <HAL_I2C_Master_Transmit+0x1b0>
        {
          /* Generate Stop */
          SET_BIT(hi2c->Instance->CR1, I2C_CR1_STOP);
 80049e0:	68fb      	ldr	r3, [r7, #12]
 80049e2:	681b      	ldr	r3, [r3, #0]
 80049e4:	681a      	ldr	r2, [r3, #0]
 80049e6:	68fb      	ldr	r3, [r7, #12]
 80049e8:	681b      	ldr	r3, [r3, #0]
 80049ea:	f442 7200 	orr.w	r2, r2, #512	; 0x200
 80049ee:	601a      	str	r2, [r3, #0]
        }
        return HAL_ERROR;
 80049f0:	2301      	movs	r3, #1
 80049f2:	e01a      	b.n	8004a2a <HAL_I2C_Master_Transmit+0x1ea>
    while (hi2c->XferSize > 0U)
 80049f4:	68fb      	ldr	r3, [r7, #12]
 80049f6:	8d1b      	ldrh	r3, [r3, #40]	; 0x28
 80049f8:	2b00      	cmp	r3, #0
 80049fa:	d194      	bne.n	8004926 <HAL_I2C_Master_Transmit+0xe6>
      }
    }

    /* Generate Stop */
    SET_BIT(hi2c->Instance->CR1, I2C_CR1_STOP);
 80049fc:	68fb      	ldr	r3, [r7, #12]
 80049fe:	681b      	ldr	r3, [r3, #0]
 8004a00:	681a      	ldr	r2, [r3, #0]
 8004a02:	68fb      	ldr	r3, [r7, #12]
 8004a04:	681b      	ldr	r3, [r3, #0]
 8004a06:	f442 7200 	orr.w	r2, r2, #512	; 0x200
 8004a0a:	601a      	str	r2, [r3, #0]

    hi2c->State = HAL_I2C_STATE_READY;
 8004a0c:	68fb      	ldr	r3, [r7, #12]
 8004a0e:	2220      	movs	r2, #32
 8004a10:	f883 203d 	strb.w	r2, [r3, #61]	; 0x3d
    hi2c->Mode = HAL_I2C_MODE_NONE;
 8004a14:	68fb      	ldr	r3, [r7, #12]
 8004a16:	2200      	movs	r2, #0
 8004a18:	f883 203e 	strb.w	r2, [r3, #62]	; 0x3e

    /* Process Unlocked */
    __HAL_UNLOCK(hi2c);
 8004a1c:	68fb      	ldr	r3, [r7, #12]
 8004a1e:	2200      	movs	r2, #0
 8004a20:	f883 203c 	strb.w	r2, [r3, #60]	; 0x3c

    return HAL_OK;
 8004a24:	2300      	movs	r3, #0
 8004a26:	e000      	b.n	8004a2a <HAL_I2C_Master_Transmit+0x1ea>
  }
  else
  {
    return HAL_BUSY;
 8004a28:	2302      	movs	r3, #2
  }
}
 8004a2a:	4618      	mov	r0, r3
 8004a2c:	3718      	adds	r7, #24
 8004a2e:	46bd      	mov	sp, r7
 8004a30:	bd80      	pop	{r7, pc}
 8004a32:	bf00      	nop
 8004a34:	00100002 	.word	0x00100002
 8004a38:	ffff0000 	.word	0xffff0000

08004a3c <HAL_I2C_IsDeviceReady>:
  * @param  Trials Number of trials
  * @param  Timeout Timeout duration
  * @retval HAL status
  */
HAL_StatusTypeDef HAL_I2C_IsDeviceReady(I2C_HandleTypeDef *hi2c, uint16_t DevAddress, uint32_t Trials, uint32_t Timeout)
{
 8004a3c:	b580      	push	{r7, lr}
 8004a3e:	b08a      	sub	sp, #40	; 0x28
 8004a40:	af02      	add	r7, sp, #8
 8004a42:	60f8      	str	r0, [r7, #12]
 8004a44:	607a      	str	r2, [r7, #4]
 8004a46:	603b      	str	r3, [r7, #0]
 8004a48:	460b      	mov	r3, r1
 8004a4a:	817b      	strh	r3, [r7, #10]
  /* Get tick */
  uint32_t tickstart = HAL_GetTick();
 8004a4c:	f7fe fc7c 	bl	8003348 <HAL_GetTick>
 8004a50:	61f8      	str	r0, [r7, #28]
  uint32_t I2C_Trials = 1U;
 8004a52:	2301      	movs	r3, #1
 8004a54:	61bb      	str	r3, [r7, #24]
  FlagStatus tmp1;
  FlagStatus tmp2;

  if (hi2c->State == HAL_I2C_STATE_READY)
 8004a56:	68fb      	ldr	r3, [r7, #12]
 8004a58:	f893 303d 	ldrb.w	r3, [r3, #61]	; 0x3d
 8004a5c:	b2db      	uxtb	r3, r3
 8004a5e:	2b20      	cmp	r3, #32
 8004a60:	f040 8111 	bne.w	8004c86 <HAL_I2C_IsDeviceReady+0x24a>
  {
    /* Wait until BUSY flag is reset */
    if (I2C_WaitOnFlagUntilTimeout(hi2c, I2C_FLAG_BUSY, SET, I2C_TIMEOUT_BUSY_FLAG, tickstart) != HAL_OK)
 8004a64:	69fb      	ldr	r3, [r7, #28]
 8004a66:	9300      	str	r3, [sp, #0]
 8004a68:	2319      	movs	r3, #25
 8004a6a:	2201      	movs	r2, #1
 8004a6c:	4988      	ldr	r1, [pc, #544]	; (8004c90 <HAL_I2C_IsDeviceReady+0x254>)
 8004a6e:	68f8      	ldr	r0, [r7, #12]
 8004a70:	f000 fcb2 	bl	80053d8 <I2C_WaitOnFlagUntilTimeout>
 8004a74:	4603      	mov	r3, r0
 8004a76:	2b00      	cmp	r3, #0
 8004a78:	d001      	beq.n	8004a7e <HAL_I2C_IsDeviceReady+0x42>
    {
      return HAL_BUSY;
 8004a7a:	2302      	movs	r3, #2
 8004a7c:	e104      	b.n	8004c88 <HAL_I2C_IsDeviceReady+0x24c>
    }

    /* Process Locked */
    __HAL_LOCK(hi2c);
 8004a7e:	68fb      	ldr	r3, [r7, #12]
 8004a80:	f893 303c 	ldrb.w	r3, [r3, #60]	; 0x3c
 8004a84:	2b01      	cmp	r3, #1
 8004a86:	d101      	bne.n	8004a8c <HAL_I2C_IsDeviceReady+0x50>
 8004a88:	2302      	movs	r3, #2
 8004a8a:	e0fd      	b.n	8004c88 <HAL_I2C_IsDeviceReady+0x24c>
 8004a8c:	68fb      	ldr	r3, [r7, #12]
 8004a8e:	2201      	movs	r2, #1
 8004a90:	f883 203c 	strb.w	r2, [r3, #60]	; 0x3c

    /* Check if the I2C is already enabled */
    if ((hi2c->Instance->CR1 & I2C_CR1_PE) != I2C_CR1_PE)
 8004a94:	68fb      	ldr	r3, [r7, #12]
 8004a96:	681b      	ldr	r3, [r3, #0]
 8004a98:	681b      	ldr	r3, [r3, #0]
 8004a9a:	f003 0301 	and.w	r3, r3, #1
 8004a9e:	2b01      	cmp	r3, #1
 8004aa0:	d007      	beq.n	8004ab2 <HAL_I2C_IsDeviceReady+0x76>
    {
      /* Enable I2C peripheral */
      __HAL_I2C_ENABLE(hi2c);
 8004aa2:	68fb      	ldr	r3, [r7, #12]
 8004aa4:	681b      	ldr	r3, [r3, #0]
 8004aa6:	681a      	ldr	r2, [r3, #0]
 8004aa8:	68fb      	ldr	r3, [r7, #12]
 8004aaa:	681b      	ldr	r3, [r3, #0]
 8004aac:	f042 0201 	orr.w	r2, r2, #1
 8004ab0:	601a      	str	r2, [r3, #0]
    }

    /* Disable Pos */
    CLEAR_BIT(hi2c->Instance->CR1, I2C_CR1_POS);
 8004ab2:	68fb      	ldr	r3, [r7, #12]
 8004ab4:	681b      	ldr	r3, [r3, #0]
 8004ab6:	681a      	ldr	r2, [r3, #0]
 8004ab8:	68fb      	ldr	r3, [r7, #12]
 8004aba:	681b      	ldr	r3, [r3, #0]
 8004abc:	f422 6200 	bic.w	r2, r2, #2048	; 0x800
 8004ac0:	601a      	str	r2, [r3, #0]

    hi2c->State = HAL_I2C_STATE_BUSY;
 8004ac2:	68fb      	ldr	r3, [r7, #12]
 8004ac4:	2224      	movs	r2, #36	; 0x24
 8004ac6:	f883 203d 	strb.w	r2, [r3, #61]	; 0x3d
    hi2c->ErrorCode = HAL_I2C_ERROR_NONE;
 8004aca:	68fb      	ldr	r3, [r7, #12]
 8004acc:	2200      	movs	r2, #0
 8004ace:	641a      	str	r2, [r3, #64]	; 0x40
    hi2c->XferOptions = I2C_NO_OPTION_FRAME;
 8004ad0:	68fb      	ldr	r3, [r7, #12]
 8004ad2:	4a70      	ldr	r2, [pc, #448]	; (8004c94 <HAL_I2C_IsDeviceReady+0x258>)
 8004ad4:	62da      	str	r2, [r3, #44]	; 0x2c

    do
    {
      /* Generate Start */
      SET_BIT(hi2c->Instance->CR1, I2C_CR1_START);
 8004ad6:	68fb      	ldr	r3, [r7, #12]
 8004ad8:	681b      	ldr	r3, [r3, #0]
 8004ada:	681a      	ldr	r2, [r3, #0]
 8004adc:	68fb      	ldr	r3, [r7, #12]
 8004ade:	681b      	ldr	r3, [r3, #0]
 8004ae0:	f442 7280 	orr.w	r2, r2, #256	; 0x100
 8004ae4:	601a      	str	r2, [r3, #0]

      /* Wait until SB flag is set */
      if (I2C_WaitOnFlagUntilTimeout(hi2c, I2C_FLAG_SB, RESET, Timeout, tickstart) != HAL_OK)
 8004ae6:	69fb      	ldr	r3, [r7, #28]
 8004ae8:	9300      	str	r3, [sp, #0]
 8004aea:	683b      	ldr	r3, [r7, #0]
 8004aec:	2200      	movs	r2, #0
 8004aee:	f04f 1101 	mov.w	r1, #65537	; 0x10001
 8004af2:	68f8      	ldr	r0, [r7, #12]
 8004af4:	f000 fc70 	bl	80053d8 <I2C_WaitOnFlagUntilTimeout>
 8004af8:	4603      	mov	r3, r0
 8004afa:	2b00      	cmp	r3, #0
 8004afc:	d00d      	beq.n	8004b1a <HAL_I2C_IsDeviceReady+0xde>
      {
        if (READ_BIT(hi2c->Instance->CR1, I2C_CR1_START) == I2C_CR1_START)
 8004afe:	68fb      	ldr	r3, [r7, #12]
 8004b00:	681b      	ldr	r3, [r3, #0]
 8004b02:	681b      	ldr	r3, [r3, #0]
 8004b04:	f403 7380 	and.w	r3, r3, #256	; 0x100
 8004b08:	f5b3 7f80 	cmp.w	r3, #256	; 0x100
 8004b0c:	d103      	bne.n	8004b16 <HAL_I2C_IsDeviceReady+0xda>
        {
          hi2c->ErrorCode = HAL_I2C_WRONG_START;
 8004b0e:	68fb      	ldr	r3, [r7, #12]
 8004b10:	f44f 7200 	mov.w	r2, #512	; 0x200
 8004b14:	641a      	str	r2, [r3, #64]	; 0x40
        }
        return HAL_TIMEOUT;
 8004b16:	2303      	movs	r3, #3
 8004b18:	e0b6      	b.n	8004c88 <HAL_I2C_IsDeviceReady+0x24c>
      }

      /* Send slave address */
      hi2c->Instance->DR = I2C_7BIT_ADD_WRITE(DevAddress);
 8004b1a:	897b      	ldrh	r3, [r7, #10]
 8004b1c:	b2db      	uxtb	r3, r3
 8004b1e:	461a      	mov	r2, r3
 8004b20:	68fb      	ldr	r3, [r7, #12]
 8004b22:	681b      	ldr	r3, [r3, #0]
 8004b24:	f002 02fe 	and.w	r2, r2, #254	; 0xfe
 8004b28:	611a      	str	r2, [r3, #16]

      /* Wait until ADDR or AF flag are set */
      /* Get tick */
      tickstart = HAL_GetTick();
 8004b2a:	f7fe fc0d 	bl	8003348 <HAL_GetTick>
 8004b2e:	61f8      	str	r0, [r7, #28]

      tmp1 = __HAL_I2C_GET_FLAG(hi2c, I2C_FLAG_ADDR);
 8004b30:	68fb      	ldr	r3, [r7, #12]
 8004b32:	681b      	ldr	r3, [r3, #0]
 8004b34:	695b      	ldr	r3, [r3, #20]
 8004b36:	f003 0302 	and.w	r3, r3, #2
 8004b3a:	2b02      	cmp	r3, #2
 8004b3c:	bf0c      	ite	eq
 8004b3e:	2301      	moveq	r3, #1
 8004b40:	2300      	movne	r3, #0
 8004b42:	b2db      	uxtb	r3, r3
 8004b44:	75fb      	strb	r3, [r7, #23]
      tmp2 = __HAL_I2C_GET_FLAG(hi2c, I2C_FLAG_AF);
 8004b46:	68fb      	ldr	r3, [r7, #12]
 8004b48:	681b      	ldr	r3, [r3, #0]
 8004b4a:	695b      	ldr	r3, [r3, #20]
 8004b4c:	f403 6380 	and.w	r3, r3, #1024	; 0x400
 8004b50:	f5b3 6f80 	cmp.w	r3, #1024	; 0x400
 8004b54:	bf0c      	ite	eq
 8004b56:	2301      	moveq	r3, #1
 8004b58:	2300      	movne	r3, #0
 8004b5a:	b2db      	uxtb	r3, r3
 8004b5c:	75bb      	strb	r3, [r7, #22]
      while ((hi2c->State != HAL_I2C_STATE_TIMEOUT) && (tmp1 == RESET) && (tmp2 == RESET))
 8004b5e:	e025      	b.n	8004bac <HAL_I2C_IsDeviceReady+0x170>
      {
        if (((HAL_GetTick() - tickstart) > Timeout) || (Timeout == 0U))
 8004b60:	f7fe fbf2 	bl	8003348 <HAL_GetTick>
 8004b64:	4602      	mov	r2, r0
 8004b66:	69fb      	ldr	r3, [r7, #28]
 8004b68:	1ad3      	subs	r3, r2, r3
 8004b6a:	683a      	ldr	r2, [r7, #0]
 8004b6c:	429a      	cmp	r2, r3
 8004b6e:	d302      	bcc.n	8004b76 <HAL_I2C_IsDeviceReady+0x13a>
 8004b70:	683b      	ldr	r3, [r7, #0]
 8004b72:	2b00      	cmp	r3, #0
 8004b74:	d103      	bne.n	8004b7e <HAL_I2C_IsDeviceReady+0x142>
        {
          hi2c->State = HAL_I2C_STATE_TIMEOUT;
 8004b76:	68fb      	ldr	r3, [r7, #12]
 8004b78:	22a0      	movs	r2, #160	; 0xa0
 8004b7a:	f883 203d 	strb.w	r2, [r3, #61]	; 0x3d
        }
        tmp1 = __HAL_I2C_GET_FLAG(hi2c, I2C_FLAG_ADDR);
 8004b7e:	68fb      	ldr	r3, [r7, #12]
 8004b80:	681b      	ldr	r3, [r3, #0]
 8004b82:	695b      	ldr	r3, [r3, #20]
 8004b84:	f003 0302 	and.w	r3, r3, #2
 8004b88:	2b02      	cmp	r3, #2
 8004b8a:	bf0c      	ite	eq
 8004b8c:	2301      	moveq	r3, #1
 8004b8e:	2300      	movne	r3, #0
 8004b90:	b2db      	uxtb	r3, r3
 8004b92:	75fb      	strb	r3, [r7, #23]
        tmp2 = __HAL_I2C_GET_FLAG(hi2c, I2C_FLAG_AF);
 8004b94:	68fb      	ldr	r3, [r7, #12]
 8004b96:	681b      	ldr	r3, [r3, #0]
 8004b98:	695b      	ldr	r3, [r3, #20]
 8004b9a:	f403 6380 	and.w	r3, r3, #1024	; 0x400
 8004b9e:	f5b3 6f80 	cmp.w	r3, #1024	; 0x400
 8004ba2:	bf0c      	ite	eq
 8004ba4:	2301      	moveq	r3, #1
 8004ba6:	2300      	movne	r3, #0
 8004ba8:	b2db      	uxtb	r3, r3
 8004baa:	75bb      	strb	r3, [r7, #22]
      while ((hi2c->State != HAL_I2C_STATE_TIMEOUT) && (tmp1 == RESET) && (tmp2 == RESET))
 8004bac:	68fb      	ldr	r3, [r7, #12]
 8004bae:	f893 303d 	ldrb.w	r3, [r3, #61]	; 0x3d
 8004bb2:	b2db      	uxtb	r3, r3
 8004bb4:	2ba0      	cmp	r3, #160	; 0xa0
 8004bb6:	d005      	beq.n	8004bc4 <HAL_I2C_IsDeviceReady+0x188>
 8004bb8:	7dfb      	ldrb	r3, [r7, #23]
 8004bba:	2b00      	cmp	r3, #0
 8004bbc:	d102      	bne.n	8004bc4 <HAL_I2C_IsDeviceReady+0x188>
 8004bbe:	7dbb      	ldrb	r3, [r7, #22]
 8004bc0:	2b00      	cmp	r3, #0
 8004bc2:	d0cd      	beq.n	8004b60 <HAL_I2C_IsDeviceReady+0x124>
      }

      hi2c->State = HAL_I2C_STATE_READY;
 8004bc4:	68fb      	ldr	r3, [r7, #12]
 8004bc6:	2220      	movs	r2, #32
 8004bc8:	f883 203d 	strb.w	r2, [r3, #61]	; 0x3d

      /* Check if the ADDR flag has been set */
      if (__HAL_I2C_GET_FLAG(hi2c, I2C_FLAG_ADDR) == SET)
 8004bcc:	68fb      	ldr	r3, [r7, #12]
 8004bce:	681b      	ldr	r3, [r3, #0]
 8004bd0:	695b      	ldr	r3, [r3, #20]
 8004bd2:	f003 0302 	and.w	r3, r3, #2
 8004bd6:	2b02      	cmp	r3, #2
 8004bd8:	d129      	bne.n	8004c2e <HAL_I2C_IsDeviceReady+0x1f2>
      {
        /* Generate Stop */
        SET_BIT(hi2c->Instance->CR1, I2C_CR1_STOP);
 8004bda:	68fb      	ldr	r3, [r7, #12]
 8004bdc:	681b      	ldr	r3, [r3, #0]
 8004bde:	681a      	ldr	r2, [r3, #0]
 8004be0:	68fb      	ldr	r3, [r7, #12]
 8004be2:	681b      	ldr	r3, [r3, #0]
 8004be4:	f442 7200 	orr.w	r2, r2, #512	; 0x200
 8004be8:	601a      	str	r2, [r3, #0]

        /* Clear ADDR Flag */
        __HAL_I2C_CLEAR_ADDRFLAG(hi2c);
 8004bea:	2300      	movs	r3, #0
 8004bec:	613b      	str	r3, [r7, #16]
 8004bee:	68fb      	ldr	r3, [r7, #12]
 8004bf0:	681b      	ldr	r3, [r3, #0]
 8004bf2:	695b      	ldr	r3, [r3, #20]
 8004bf4:	613b      	str	r3, [r7, #16]
 8004bf6:	68fb      	ldr	r3, [r7, #12]
 8004bf8:	681b      	ldr	r3, [r3, #0]
 8004bfa:	699b      	ldr	r3, [r3, #24]
 8004bfc:	613b      	str	r3, [r7, #16]
 8004bfe:	693b      	ldr	r3, [r7, #16]

        /* Wait until BUSY flag is reset */
        if (I2C_WaitOnFlagUntilTimeout(hi2c, I2C_FLAG_BUSY, SET, I2C_TIMEOUT_BUSY_FLAG, tickstart) != HAL_OK)
 8004c00:	69fb      	ldr	r3, [r7, #28]
 8004c02:	9300      	str	r3, [sp, #0]
 8004c04:	2319      	movs	r3, #25
 8004c06:	2201      	movs	r2, #1
 8004c08:	4921      	ldr	r1, [pc, #132]	; (8004c90 <HAL_I2C_IsDeviceReady+0x254>)
 8004c0a:	68f8      	ldr	r0, [r7, #12]
 8004c0c:	f000 fbe4 	bl	80053d8 <I2C_WaitOnFlagUntilTimeout>
 8004c10:	4603      	mov	r3, r0
 8004c12:	2b00      	cmp	r3, #0
 8004c14:	d001      	beq.n	8004c1a <HAL_I2C_IsDeviceReady+0x1de>
        {
          return HAL_ERROR;
 8004c16:	2301      	movs	r3, #1
 8004c18:	e036      	b.n	8004c88 <HAL_I2C_IsDeviceReady+0x24c>
        }

        hi2c->State = HAL_I2C_STATE_READY;
 8004c1a:	68fb      	ldr	r3, [r7, #12]
 8004c1c:	2220      	movs	r2, #32
 8004c1e:	f883 203d 	strb.w	r2, [r3, #61]	; 0x3d

        /* Process Unlocked */
        __HAL_UNLOCK(hi2c);
 8004c22:	68fb      	ldr	r3, [r7, #12]
 8004c24:	2200      	movs	r2, #0
 8004c26:	f883 203c 	strb.w	r2, [r3, #60]	; 0x3c

        return HAL_OK;
 8004c2a:	2300      	movs	r3, #0
 8004c2c:	e02c      	b.n	8004c88 <HAL_I2C_IsDeviceReady+0x24c>
      }
      else
      {
        /* Generate Stop */
        SET_BIT(hi2c->Instance->CR1, I2C_CR1_STOP);
 8004c2e:	68fb      	ldr	r3, [r7, #12]
 8004c30:	681b      	ldr	r3, [r3, #0]
 8004c32:	681a      	ldr	r2, [r3, #0]
 8004c34:	68fb      	ldr	r3, [r7, #12]
 8004c36:	681b      	ldr	r3, [r3, #0]
 8004c38:	f442 7200 	orr.w	r2, r2, #512	; 0x200
 8004c3c:	601a      	str	r2, [r3, #0]

        /* Clear AF Flag */
        __HAL_I2C_CLEAR_FLAG(hi2c, I2C_FLAG_AF);
 8004c3e:	68fb      	ldr	r3, [r7, #12]
 8004c40:	681b      	ldr	r3, [r3, #0]
 8004c42:	f46f 6280 	mvn.w	r2, #1024	; 0x400
 8004c46:	615a      	str	r2, [r3, #20]

        /* Wait until BUSY flag is reset */
        if (I2C_WaitOnFlagUntilTimeout(hi2c, I2C_FLAG_BUSY, SET, I2C_TIMEOUT_BUSY_FLAG, tickstart) != HAL_OK)
 8004c48:	69fb      	ldr	r3, [r7, #28]
 8004c4a:	9300      	str	r3, [sp, #0]
 8004c4c:	2319      	movs	r3, #25
 8004c4e:	2201      	movs	r2, #1
 8004c50:	490f      	ldr	r1, [pc, #60]	; (8004c90 <HAL_I2C_IsDeviceReady+0x254>)
 8004c52:	68f8      	ldr	r0, [r7, #12]
 8004c54:	f000 fbc0 	bl	80053d8 <I2C_WaitOnFlagUntilTimeout>
 8004c58:	4603      	mov	r3, r0
 8004c5a:	2b00      	cmp	r3, #0
 8004c5c:	d001      	beq.n	8004c62 <HAL_I2C_IsDeviceReady+0x226>
        {
          return HAL_ERROR;
 8004c5e:	2301      	movs	r3, #1
 8004c60:	e012      	b.n	8004c88 <HAL_I2C_IsDeviceReady+0x24c>
        }
      }

      /* Increment Trials */
      I2C_Trials++;
 8004c62:	69bb      	ldr	r3, [r7, #24]
 8004c64:	3301      	adds	r3, #1
 8004c66:	61bb      	str	r3, [r7, #24]
    }
    while (I2C_Trials < Trials);
 8004c68:	69ba      	ldr	r2, [r7, #24]
 8004c6a:	687b      	ldr	r3, [r7, #4]
 8004c6c:	429a      	cmp	r2, r3
 8004c6e:	f4ff af32 	bcc.w	8004ad6 <HAL_I2C_IsDeviceReady+0x9a>

    hi2c->State = HAL_I2C_STATE_READY;
 8004c72:	68fb      	ldr	r3, [r7, #12]
 8004c74:	2220      	movs	r2, #32
 8004c76:	f883 203d 	strb.w	r2, [r3, #61]	; 0x3d

    /* Process Unlocked */
    __HAL_UNLOCK(hi2c);
 8004c7a:	68fb      	ldr	r3, [r7, #12]
 8004c7c:	2200      	movs	r2, #0
 8004c7e:	f883 203c 	strb.w	r2, [r3, #60]	; 0x3c

    return HAL_ERROR;
 8004c82:	2301      	movs	r3, #1
 8004c84:	e000      	b.n	8004c88 <HAL_I2C_IsDeviceReady+0x24c>
  }
  else
  {
    return HAL_BUSY;
 8004c86:	2302      	movs	r3, #2
  }
}
 8004c88:	4618      	mov	r0, r3
 8004c8a:	3720      	adds	r7, #32
 8004c8c:	46bd      	mov	sp, r7
 8004c8e:	bd80      	pop	{r7, pc}
 8004c90:	00100002 	.word	0x00100002
 8004c94:	ffff0000 	.word	0xffff0000

08004c98 <HAL_I2C_ER_IRQHandler>:
  * @param  hi2c Pointer to a I2C_HandleTypeDef structure that contains
  *                the configuration information for the specified I2C.
  * @retval None
  */
void HAL_I2C_ER_IRQHandler(I2C_HandleTypeDef *hi2c)
{
 8004c98:	b580      	push	{r7, lr}
 8004c9a:	b08a      	sub	sp, #40	; 0x28
 8004c9c:	af00      	add	r7, sp, #0
 8004c9e:	6078      	str	r0, [r7, #4]
  HAL_I2C_ModeTypeDef tmp1;
  uint32_t tmp2;
  HAL_I2C_StateTypeDef tmp3;
  uint32_t tmp4;
  uint32_t sr1itflags = READ_REG(hi2c->Instance->SR1);
 8004ca0:	687b      	ldr	r3, [r7, #4]
 8004ca2:	681b      	ldr	r3, [r3, #0]
 8004ca4:	695b      	ldr	r3, [r3, #20]
 8004ca6:	623b      	str	r3, [r7, #32]
  uint32_t itsources  = READ_REG(hi2c->Instance->CR2);
 8004ca8:	687b      	ldr	r3, [r7, #4]
 8004caa:	681b      	ldr	r3, [r3, #0]
 8004cac:	685b      	ldr	r3, [r3, #4]
 8004cae:	61fb      	str	r3, [r7, #28]
  uint32_t error      = HAL_I2C_ERROR_NONE;
 8004cb0:	2300      	movs	r3, #0
 8004cb2:	627b      	str	r3, [r7, #36]	; 0x24
  HAL_I2C_ModeTypeDef CurrentMode   = hi2c->Mode;
 8004cb4:	687b      	ldr	r3, [r7, #4]
 8004cb6:	f893 303e 	ldrb.w	r3, [r3, #62]	; 0x3e
 8004cba:	76fb      	strb	r3, [r7, #27]

  /* I2C Bus error interrupt occurred ----------------------------------------*/
  if ((I2C_CHECK_FLAG(sr1itflags, I2C_FLAG_BERR) != RESET) && (I2C_CHECK_IT_SOURCE(itsources, I2C_IT_ERR) != RESET))
 8004cbc:	6a3b      	ldr	r3, [r7, #32]
 8004cbe:	0a1b      	lsrs	r3, r3, #8
 8004cc0:	f003 0301 	and.w	r3, r3, #1
 8004cc4:	2b00      	cmp	r3, #0
 8004cc6:	d016      	beq.n	8004cf6 <HAL_I2C_ER_IRQHandler+0x5e>
 8004cc8:	69fb      	ldr	r3, [r7, #28]
 8004cca:	0a1b      	lsrs	r3, r3, #8
 8004ccc:	f003 0301 	and.w	r3, r3, #1
 8004cd0:	2b00      	cmp	r3, #0
 8004cd2:	d010      	beq.n	8004cf6 <HAL_I2C_ER_IRQHandler+0x5e>
  {
    error |= HAL_I2C_ERROR_BERR;
 8004cd4:	6a7b      	ldr	r3, [r7, #36]	; 0x24
 8004cd6:	f043 0301 	orr.w	r3, r3, #1
 8004cda:	627b      	str	r3, [r7, #36]	; 0x24

    /* Clear BERR flag */
    __HAL_I2C_CLEAR_FLAG(hi2c, I2C_FLAG_BERR);
 8004cdc:	687b      	ldr	r3, [r7, #4]
 8004cde:	681b      	ldr	r3, [r3, #0]
 8004ce0:	f46f 7280 	mvn.w	r2, #256	; 0x100
 8004ce4:	615a      	str	r2, [r3, #20]

    /* Workaround: Start cannot be generated after a misplaced Stop */
    SET_BIT(hi2c->Instance->CR1, I2C_CR1_SWRST);
 8004ce6:	687b      	ldr	r3, [r7, #4]
 8004ce8:	681b      	ldr	r3, [r3, #0]
 8004cea:	681a      	ldr	r2, [r3, #0]
 8004cec:	687b      	ldr	r3, [r7, #4]
 8004cee:	681b      	ldr	r3, [r3, #0]
 8004cf0:	f442 4200 	orr.w	r2, r2, #32768	; 0x8000
 8004cf4:	601a      	str	r2, [r3, #0]
  }

  /* I2C Arbitration Lost error interrupt occurred ---------------------------*/
  if ((I2C_CHECK_FLAG(sr1itflags, I2C_FLAG_ARLO) != RESET) && (I2C_CHECK_IT_SOURCE(itsources, I2C_IT_ERR) != RESET))
 8004cf6:	6a3b      	ldr	r3, [r7, #32]
 8004cf8:	0a5b      	lsrs	r3, r3, #9
 8004cfa:	f003 0301 	and.w	r3, r3, #1
 8004cfe:	2b00      	cmp	r3, #0
 8004d00:	d00e      	beq.n	8004d20 <HAL_I2C_ER_IRQHandler+0x88>
 8004d02:	69fb      	ldr	r3, [r7, #28]
 8004d04:	0a1b      	lsrs	r3, r3, #8
 8004d06:	f003 0301 	and.w	r3, r3, #1
 8004d0a:	2b00      	cmp	r3, #0
 8004d0c:	d008      	beq.n	8004d20 <HAL_I2C_ER_IRQHandler+0x88>
  {
    error |= HAL_I2C_ERROR_ARLO;
 8004d0e:	6a7b      	ldr	r3, [r7, #36]	; 0x24
 8004d10:	f043 0302 	orr.w	r3, r3, #2
 8004d14:	627b      	str	r3, [r7, #36]	; 0x24

    /* Clear ARLO flag */
    __HAL_I2C_CLEAR_FLAG(hi2c, I2C_FLAG_ARLO);
 8004d16:	687b      	ldr	r3, [r7, #4]
 8004d18:	681b      	ldr	r3, [r3, #0]
 8004d1a:	f46f 7200 	mvn.w	r2, #512	; 0x200
 8004d1e:	615a      	str	r2, [r3, #20]
  }

  /* I2C Acknowledge failure error interrupt occurred ------------------------*/
  if ((I2C_CHECK_FLAG(sr1itflags, I2C_FLAG_AF) != RESET) && (I2C_CHECK_IT_SOURCE(itsources, I2C_IT_ERR) != RESET))
 8004d20:	6a3b      	ldr	r3, [r7, #32]
 8004d22:	0a9b      	lsrs	r3, r3, #10
 8004d24:	f003 0301 	and.w	r3, r3, #1
 8004d28:	2b00      	cmp	r3, #0
 8004d2a:	d03f      	beq.n	8004dac <HAL_I2C_ER_IRQHandler+0x114>
 8004d2c:	69fb      	ldr	r3, [r7, #28]
 8004d2e:	0a1b      	lsrs	r3, r3, #8
 8004d30:	f003 0301 	and.w	r3, r3, #1
 8004d34:	2b00      	cmp	r3, #0
 8004d36:	d039      	beq.n	8004dac <HAL_I2C_ER_IRQHandler+0x114>
  {
    tmp1 = CurrentMode;
 8004d38:	7efb      	ldrb	r3, [r7, #27]
 8004d3a:	76bb      	strb	r3, [r7, #26]
    tmp2 = hi2c->XferCount;
 8004d3c:	687b      	ldr	r3, [r7, #4]
 8004d3e:	8d5b      	ldrh	r3, [r3, #42]	; 0x2a
 8004d40:	b29b      	uxth	r3, r3
 8004d42:	617b      	str	r3, [r7, #20]
    tmp3 = hi2c->State;
 8004d44:	687b      	ldr	r3, [r7, #4]
 8004d46:	f893 303d 	ldrb.w	r3, [r3, #61]	; 0x3d
 8004d4a:	74fb      	strb	r3, [r7, #19]
    tmp4 = hi2c->PreviousState;
 8004d4c:	687b      	ldr	r3, [r7, #4]
 8004d4e:	6b1b      	ldr	r3, [r3, #48]	; 0x30
 8004d50:	60fb      	str	r3, [r7, #12]
    if ((tmp1 == HAL_I2C_MODE_SLAVE) && (tmp2 == 0U) && \
 8004d52:	7ebb      	ldrb	r3, [r7, #26]
 8004d54:	2b20      	cmp	r3, #32
 8004d56:	d112      	bne.n	8004d7e <HAL_I2C_ER_IRQHandler+0xe6>
 8004d58:	697b      	ldr	r3, [r7, #20]
 8004d5a:	2b00      	cmp	r3, #0
 8004d5c:	d10f      	bne.n	8004d7e <HAL_I2C_ER_IRQHandler+0xe6>
 8004d5e:	7cfb      	ldrb	r3, [r7, #19]
 8004d60:	2b21      	cmp	r3, #33	; 0x21
 8004d62:	d008      	beq.n	8004d76 <HAL_I2C_ER_IRQHandler+0xde>
        ((tmp3 == HAL_I2C_STATE_BUSY_TX) || (tmp3 == HAL_I2C_STATE_BUSY_TX_LISTEN) || \
 8004d64:	7cfb      	ldrb	r3, [r7, #19]
 8004d66:	2b29      	cmp	r3, #41	; 0x29
 8004d68:	d005      	beq.n	8004d76 <HAL_I2C_ER_IRQHandler+0xde>
 8004d6a:	7cfb      	ldrb	r3, [r7, #19]
 8004d6c:	2b28      	cmp	r3, #40	; 0x28
 8004d6e:	d106      	bne.n	8004d7e <HAL_I2C_ER_IRQHandler+0xe6>
         ((tmp3 == HAL_I2C_STATE_LISTEN) && (tmp4 == I2C_STATE_SLAVE_BUSY_TX))))
 8004d70:	68fb      	ldr	r3, [r7, #12]
 8004d72:	2b21      	cmp	r3, #33	; 0x21
 8004d74:	d103      	bne.n	8004d7e <HAL_I2C_ER_IRQHandler+0xe6>
    {
      I2C_Slave_AF(hi2c);
 8004d76:	6878      	ldr	r0, [r7, #4]
 8004d78:	f000 f862 	bl	8004e40 <I2C_Slave_AF>
 8004d7c:	e016      	b.n	8004dac <HAL_I2C_ER_IRQHandler+0x114>
    }
    else
    {
      /* Clear AF flag */
      __HAL_I2C_CLEAR_FLAG(hi2c, I2C_FLAG_AF);
 8004d7e:	687b      	ldr	r3, [r7, #4]
 8004d80:	681b      	ldr	r3, [r3, #0]
 8004d82:	f46f 6280 	mvn.w	r2, #1024	; 0x400
 8004d86:	615a      	str	r2, [r3, #20]

      error |= HAL_I2C_ERROR_AF;
 8004d88:	6a7b      	ldr	r3, [r7, #36]	; 0x24
 8004d8a:	f043 0304 	orr.w	r3, r3, #4
 8004d8e:	627b      	str	r3, [r7, #36]	; 0x24

      /* Do not generate a STOP in case of Slave receive non acknowledge during transfer (mean not at the end of transfer) */
      if ((CurrentMode == HAL_I2C_MODE_MASTER) || (CurrentMode == HAL_I2C_MODE_MEM))
 8004d90:	7efb      	ldrb	r3, [r7, #27]
 8004d92:	2b10      	cmp	r3, #16
 8004d94:	d002      	beq.n	8004d9c <HAL_I2C_ER_IRQHandler+0x104>
 8004d96:	7efb      	ldrb	r3, [r7, #27]
 8004d98:	2b40      	cmp	r3, #64	; 0x40
 8004d9a:	d107      	bne.n	8004dac <HAL_I2C_ER_IRQHandler+0x114>
      {
        /* Generate Stop */
        SET_BIT(hi2c->Instance->CR1, I2C_CR1_STOP);
 8004d9c:	687b      	ldr	r3, [r7, #4]
 8004d9e:	681b      	ldr	r3, [r3, #0]
 8004da0:	681a      	ldr	r2, [r3, #0]
 8004da2:	687b      	ldr	r3, [r7, #4]
 8004da4:	681b      	ldr	r3, [r3, #0]
 8004da6:	f442 7200 	orr.w	r2, r2, #512	; 0x200
 8004daa:	601a      	str	r2, [r3, #0]
      }
    }
  }

  /* I2C Over-Run/Under-Run interrupt occurred -------------------------------*/
  if ((I2C_CHECK_FLAG(sr1itflags, I2C_FLAG_OVR) != RESET) && (I2C_CHECK_IT_SOURCE(itsources, I2C_IT_ERR) != RESET))
 8004dac:	6a3b      	ldr	r3, [r7, #32]
 8004dae:	0adb      	lsrs	r3, r3, #11
 8004db0:	f003 0301 	and.w	r3, r3, #1
 8004db4:	2b00      	cmp	r3, #0
 8004db6:	d00e      	beq.n	8004dd6 <HAL_I2C_ER_IRQHandler+0x13e>
 8004db8:	69fb      	ldr	r3, [r7, #28]
 8004dba:	0a1b      	lsrs	r3, r3, #8
 8004dbc:	f003 0301 	and.w	r3, r3, #1
 8004dc0:	2b00      	cmp	r3, #0
 8004dc2:	d008      	beq.n	8004dd6 <HAL_I2C_ER_IRQHandler+0x13e>
  {
    error |= HAL_I2C_ERROR_OVR;
 8004dc4:	6a7b      	ldr	r3, [r7, #36]	; 0x24
 8004dc6:	f043 0308 	orr.w	r3, r3, #8
 8004dca:	627b      	str	r3, [r7, #36]	; 0x24
    /* Clear OVR flag */
    __HAL_I2C_CLEAR_FLAG(hi2c, I2C_FLAG_OVR);
 8004dcc:	687b      	ldr	r3, [r7, #4]
 8004dce:	681b      	ldr	r3, [r3, #0]
 8004dd0:	f46f 6200 	mvn.w	r2, #2048	; 0x800
 8004dd4:	615a      	str	r2, [r3, #20]
  }

  /* Call the Error Callback in case of Error detected -----------------------*/
  if (error != HAL_I2C_ERROR_NONE)
 8004dd6:	6a7b      	ldr	r3, [r7, #36]	; 0x24
 8004dd8:	2b00      	cmp	r3, #0
 8004dda:	d008      	beq.n	8004dee <HAL_I2C_ER_IRQHandler+0x156>
  {
    hi2c->ErrorCode |= error;
 8004ddc:	687b      	ldr	r3, [r7, #4]
 8004dde:	6c1a      	ldr	r2, [r3, #64]	; 0x40
 8004de0:	6a7b      	ldr	r3, [r7, #36]	; 0x24
 8004de2:	431a      	orrs	r2, r3
 8004de4:	687b      	ldr	r3, [r7, #4]
 8004de6:	641a      	str	r2, [r3, #64]	; 0x40
    I2C_ITError(hi2c);
 8004de8:	6878      	ldr	r0, [r7, #4]
 8004dea:	f000 f899 	bl	8004f20 <I2C_ITError>
  }
}
 8004dee:	bf00      	nop
 8004df0:	3728      	adds	r7, #40	; 0x28
 8004df2:	46bd      	mov	sp, r7
 8004df4:	bd80      	pop	{r7, pc}

08004df6 <HAL_I2C_SlaveTxCpltCallback>:
  * @param  hi2c Pointer to a I2C_HandleTypeDef structure that contains
  *                the configuration information for the specified I2C.
  * @retval None
  */
__weak void HAL_I2C_SlaveTxCpltCallback(I2C_HandleTypeDef *hi2c)
{
 8004df6:	b480      	push	{r7}
 8004df8:	b083      	sub	sp, #12
 8004dfa:	af00      	add	r7, sp, #0
 8004dfc:	6078      	str	r0, [r7, #4]
  UNUSED(hi2c);

  /* NOTE : This function should not be modified, when the callback is needed,
            the HAL_I2C_SlaveTxCpltCallback could be implemented in the user file
   */
}
 8004dfe:	bf00      	nop
 8004e00:	370c      	adds	r7, #12
 8004e02:	46bd      	mov	sp, r7
 8004e04:	bc80      	pop	{r7}
 8004e06:	4770      	bx	lr

08004e08 <HAL_I2C_ListenCpltCallback>:
  * @param  hi2c Pointer to a I2C_HandleTypeDef structure that contains
  *                the configuration information for the specified I2C.
  * @retval None
  */
__weak void HAL_I2C_ListenCpltCallback(I2C_HandleTypeDef *hi2c)
{
 8004e08:	b480      	push	{r7}
 8004e0a:	b083      	sub	sp, #12
 8004e0c:	af00      	add	r7, sp, #0
 8004e0e:	6078      	str	r0, [r7, #4]
  UNUSED(hi2c);

  /* NOTE : This function should not be modified, when the callback is needed,
            the HAL_I2C_ListenCpltCallback() could be implemented in the user file
  */
}
 8004e10:	bf00      	nop
 8004e12:	370c      	adds	r7, #12
 8004e14:	46bd      	mov	sp, r7
 8004e16:	bc80      	pop	{r7}
 8004e18:	4770      	bx	lr

08004e1a <HAL_I2C_ErrorCallback>:
  * @param  hi2c Pointer to a I2C_HandleTypeDef structure that contains
  *                the configuration information for the specified I2C.
  * @retval None
  */
__weak void HAL_I2C_ErrorCallback(I2C_HandleTypeDef *hi2c)
{
 8004e1a:	b480      	push	{r7}
 8004e1c:	b083      	sub	sp, #12
 8004e1e:	af00      	add	r7, sp, #0
 8004e20:	6078      	str	r0, [r7, #4]
  UNUSED(hi2c);

  /* NOTE : This function should not be modified, when the callback is needed,
            the HAL_I2C_ErrorCallback could be implemented in the user file
   */
}
 8004e22:	bf00      	nop
 8004e24:	370c      	adds	r7, #12
 8004e26:	46bd      	mov	sp, r7
 8004e28:	bc80      	pop	{r7}
 8004e2a:	4770      	bx	lr

08004e2c <HAL_I2C_AbortCpltCallback>:
  * @param  hi2c Pointer to a I2C_HandleTypeDef structure that contains
  *                the configuration information for the specified I2C.
  * @retval None
  */
__weak void HAL_I2C_AbortCpltCallback(I2C_HandleTypeDef *hi2c)
{
 8004e2c:	b480      	push	{r7}
 8004e2e:	b083      	sub	sp, #12
 8004e30:	af00      	add	r7, sp, #0
 8004e32:	6078      	str	r0, [r7, #4]
  UNUSED(hi2c);

  /* NOTE : This function should not be modified, when the callback is needed,
            the HAL_I2C_AbortCpltCallback could be implemented in the user file
   */
}
 8004e34:	bf00      	nop
 8004e36:	370c      	adds	r7, #12
 8004e38:	46bd      	mov	sp, r7
 8004e3a:	bc80      	pop	{r7}
 8004e3c:	4770      	bx	lr
	...

08004e40 <I2C_Slave_AF>:
  * @param  hi2c Pointer to a I2C_HandleTypeDef structure that contains
  *         the configuration information for I2C module
  * @retval None
  */
static void I2C_Slave_AF(I2C_HandleTypeDef *hi2c)
{
 8004e40:	b580      	push	{r7, lr}
 8004e42:	b084      	sub	sp, #16
 8004e44:	af00      	add	r7, sp, #0
 8004e46:	6078      	str	r0, [r7, #4]
  /* Declaration of temporary variables to prevent undefined behavior of volatile usage */
  HAL_I2C_StateTypeDef CurrentState = hi2c->State;
 8004e48:	687b      	ldr	r3, [r7, #4]
 8004e4a:	f893 303d 	ldrb.w	r3, [r3, #61]	; 0x3d
 8004e4e:	73fb      	strb	r3, [r7, #15]
  uint32_t CurrentXferOptions       = hi2c->XferOptions;
 8004e50:	687b      	ldr	r3, [r7, #4]
 8004e52:	6adb      	ldr	r3, [r3, #44]	; 0x2c
 8004e54:	60bb      	str	r3, [r7, #8]

  if (((CurrentXferOptions ==  I2C_FIRST_AND_LAST_FRAME) || (CurrentXferOptions == I2C_LAST_FRAME)) && \
 8004e56:	68bb      	ldr	r3, [r7, #8]
 8004e58:	2b08      	cmp	r3, #8
 8004e5a:	d002      	beq.n	8004e62 <I2C_Slave_AF+0x22>
 8004e5c:	68bb      	ldr	r3, [r7, #8]
 8004e5e:	2b20      	cmp	r3, #32
 8004e60:	d129      	bne.n	8004eb6 <I2C_Slave_AF+0x76>
 8004e62:	7bfb      	ldrb	r3, [r7, #15]
 8004e64:	2b28      	cmp	r3, #40	; 0x28
 8004e66:	d126      	bne.n	8004eb6 <I2C_Slave_AF+0x76>
      (CurrentState == HAL_I2C_STATE_LISTEN))
  {
    hi2c->XferOptions = I2C_NO_OPTION_FRAME;
 8004e68:	687b      	ldr	r3, [r7, #4]
 8004e6a:	4a2c      	ldr	r2, [pc, #176]	; (8004f1c <I2C_Slave_AF+0xdc>)
 8004e6c:	62da      	str	r2, [r3, #44]	; 0x2c

    /* Disable EVT, BUF and ERR interrupt */
    __HAL_I2C_DISABLE_IT(hi2c, I2C_IT_EVT | I2C_IT_BUF | I2C_IT_ERR);
 8004e6e:	687b      	ldr	r3, [r7, #4]
 8004e70:	681b      	ldr	r3, [r3, #0]
 8004e72:	685a      	ldr	r2, [r3, #4]
 8004e74:	687b      	ldr	r3, [r7, #4]
 8004e76:	681b      	ldr	r3, [r3, #0]
 8004e78:	f422 62e0 	bic.w	r2, r2, #1792	; 0x700
 8004e7c:	605a      	str	r2, [r3, #4]

    /* Clear AF flag */
    __HAL_I2C_CLEAR_FLAG(hi2c, I2C_FLAG_AF);
 8004e7e:	687b      	ldr	r3, [r7, #4]
 8004e80:	681b      	ldr	r3, [r3, #0]
 8004e82:	f46f 6280 	mvn.w	r2, #1024	; 0x400
 8004e86:	615a      	str	r2, [r3, #20]

    /* Disable Acknowledge */
    CLEAR_BIT(hi2c->Instance->CR1, I2C_CR1_ACK);
 8004e88:	687b      	ldr	r3, [r7, #4]
 8004e8a:	681b      	ldr	r3, [r3, #0]
 8004e8c:	681a      	ldr	r2, [r3, #0]
 8004e8e:	687b      	ldr	r3, [r7, #4]
 8004e90:	681b      	ldr	r3, [r3, #0]
 8004e92:	f422 6280 	bic.w	r2, r2, #1024	; 0x400
 8004e96:	601a      	str	r2, [r3, #0]

    hi2c->PreviousState = I2C_STATE_NONE;
 8004e98:	687b      	ldr	r3, [r7, #4]
 8004e9a:	2200      	movs	r2, #0
 8004e9c:	631a      	str	r2, [r3, #48]	; 0x30
    hi2c->State         = HAL_I2C_STATE_READY;
 8004e9e:	687b      	ldr	r3, [r7, #4]
 8004ea0:	2220      	movs	r2, #32
 8004ea2:	f883 203d 	strb.w	r2, [r3, #61]	; 0x3d
    hi2c->Mode          = HAL_I2C_MODE_NONE;
 8004ea6:	687b      	ldr	r3, [r7, #4]
 8004ea8:	2200      	movs	r2, #0
 8004eaa:	f883 203e 	strb.w	r2, [r3, #62]	; 0x3e

    /* Call the Listen Complete callback, to inform upper layer of the end of Listen usecase */
#if (USE_HAL_I2C_REGISTER_CALLBACKS == 1)
    hi2c->ListenCpltCallback(hi2c);
#else
    HAL_I2C_ListenCpltCallback(hi2c);
 8004eae:	6878      	ldr	r0, [r7, #4]
 8004eb0:	f7ff ffaa 	bl	8004e08 <HAL_I2C_ListenCpltCallback>
  {
    /* Clear AF flag only */
    /* State Listen, but XferOptions == FIRST or NEXT */
    __HAL_I2C_CLEAR_FLAG(hi2c, I2C_FLAG_AF);
  }
}
 8004eb4:	e02e      	b.n	8004f14 <I2C_Slave_AF+0xd4>
  else if (CurrentState == HAL_I2C_STATE_BUSY_TX)
 8004eb6:	7bfb      	ldrb	r3, [r7, #15]
 8004eb8:	2b21      	cmp	r3, #33	; 0x21
 8004eba:	d126      	bne.n	8004f0a <I2C_Slave_AF+0xca>
    hi2c->XferOptions   = I2C_NO_OPTION_FRAME;
 8004ebc:	687b      	ldr	r3, [r7, #4]
 8004ebe:	4a17      	ldr	r2, [pc, #92]	; (8004f1c <I2C_Slave_AF+0xdc>)
 8004ec0:	62da      	str	r2, [r3, #44]	; 0x2c
    hi2c->PreviousState = I2C_STATE_SLAVE_BUSY_TX;
 8004ec2:	687b      	ldr	r3, [r7, #4]
 8004ec4:	2221      	movs	r2, #33	; 0x21
 8004ec6:	631a      	str	r2, [r3, #48]	; 0x30
    hi2c->State         = HAL_I2C_STATE_READY;
 8004ec8:	687b      	ldr	r3, [r7, #4]
 8004eca:	2220      	movs	r2, #32
 8004ecc:	f883 203d 	strb.w	r2, [r3, #61]	; 0x3d
    hi2c->Mode          = HAL_I2C_MODE_NONE;
 8004ed0:	687b      	ldr	r3, [r7, #4]
 8004ed2:	2200      	movs	r2, #0
 8004ed4:	f883 203e 	strb.w	r2, [r3, #62]	; 0x3e
    __HAL_I2C_DISABLE_IT(hi2c, I2C_IT_EVT | I2C_IT_BUF | I2C_IT_ERR);
 8004ed8:	687b      	ldr	r3, [r7, #4]
 8004eda:	681b      	ldr	r3, [r3, #0]
 8004edc:	685a      	ldr	r2, [r3, #4]
 8004ede:	687b      	ldr	r3, [r7, #4]
 8004ee0:	681b      	ldr	r3, [r3, #0]
 8004ee2:	f422 62e0 	bic.w	r2, r2, #1792	; 0x700
 8004ee6:	605a      	str	r2, [r3, #4]
    __HAL_I2C_CLEAR_FLAG(hi2c, I2C_FLAG_AF);
 8004ee8:	687b      	ldr	r3, [r7, #4]
 8004eea:	681b      	ldr	r3, [r3, #0]
 8004eec:	f46f 6280 	mvn.w	r2, #1024	; 0x400
 8004ef0:	615a      	str	r2, [r3, #20]
    CLEAR_BIT(hi2c->Instance->CR1, I2C_CR1_ACK);
 8004ef2:	687b      	ldr	r3, [r7, #4]
 8004ef4:	681b      	ldr	r3, [r3, #0]
 8004ef6:	681a      	ldr	r2, [r3, #0]
 8004ef8:	687b      	ldr	r3, [r7, #4]
 8004efa:	681b      	ldr	r3, [r3, #0]
 8004efc:	f422 6280 	bic.w	r2, r2, #1024	; 0x400
 8004f00:	601a      	str	r2, [r3, #0]
    HAL_I2C_SlaveTxCpltCallback(hi2c);
 8004f02:	6878      	ldr	r0, [r7, #4]
 8004f04:	f7ff ff77 	bl	8004df6 <HAL_I2C_SlaveTxCpltCallback>
}
 8004f08:	e004      	b.n	8004f14 <I2C_Slave_AF+0xd4>
    __HAL_I2C_CLEAR_FLAG(hi2c, I2C_FLAG_AF);
 8004f0a:	687b      	ldr	r3, [r7, #4]
 8004f0c:	681b      	ldr	r3, [r3, #0]
 8004f0e:	f46f 6280 	mvn.w	r2, #1024	; 0x400
 8004f12:	615a      	str	r2, [r3, #20]
}
 8004f14:	bf00      	nop
 8004f16:	3710      	adds	r7, #16
 8004f18:	46bd      	mov	sp, r7
 8004f1a:	bd80      	pop	{r7, pc}
 8004f1c:	ffff0000 	.word	0xffff0000

08004f20 <I2C_ITError>:
  * @brief  I2C interrupts error process
  * @param  hi2c I2C handle.
  * @retval None
  */
static void I2C_ITError(I2C_HandleTypeDef *hi2c)
{
 8004f20:	b580      	push	{r7, lr}
 8004f22:	b084      	sub	sp, #16
 8004f24:	af00      	add	r7, sp, #0
 8004f26:	6078      	str	r0, [r7, #4]
  /* Declaration of temporary variable to prevent undefined behavior of volatile usage */
  HAL_I2C_StateTypeDef CurrentState = hi2c->State;
 8004f28:	687b      	ldr	r3, [r7, #4]
 8004f2a:	f893 303d 	ldrb.w	r3, [r3, #61]	; 0x3d
 8004f2e:	73fb      	strb	r3, [r7, #15]
  HAL_I2C_ModeTypeDef CurrentMode = hi2c->Mode;
 8004f30:	687b      	ldr	r3, [r7, #4]
 8004f32:	f893 303e 	ldrb.w	r3, [r3, #62]	; 0x3e
 8004f36:	73bb      	strb	r3, [r7, #14]
  uint32_t CurrentError;

  if (((CurrentMode == HAL_I2C_MODE_MASTER) || (CurrentMode == HAL_I2C_MODE_MEM)) && (CurrentState == HAL_I2C_STATE_BUSY_RX))
 8004f38:	7bbb      	ldrb	r3, [r7, #14]
 8004f3a:	2b10      	cmp	r3, #16
 8004f3c:	d002      	beq.n	8004f44 <I2C_ITError+0x24>
 8004f3e:	7bbb      	ldrb	r3, [r7, #14]
 8004f40:	2b40      	cmp	r3, #64	; 0x40
 8004f42:	d10a      	bne.n	8004f5a <I2C_ITError+0x3a>
 8004f44:	7bfb      	ldrb	r3, [r7, #15]
 8004f46:	2b22      	cmp	r3, #34	; 0x22
 8004f48:	d107      	bne.n	8004f5a <I2C_ITError+0x3a>
  {
    /* Disable Pos bit in I2C CR1 when error occurred in Master/Mem Receive IT Process */
    hi2c->Instance->CR1 &= ~I2C_CR1_POS;
 8004f4a:	687b      	ldr	r3, [r7, #4]
 8004f4c:	681b      	ldr	r3, [r3, #0]
 8004f4e:	681a      	ldr	r2, [r3, #0]
 8004f50:	687b      	ldr	r3, [r7, #4]
 8004f52:	681b      	ldr	r3, [r3, #0]
 8004f54:	f422 6200 	bic.w	r2, r2, #2048	; 0x800
 8004f58:	601a      	str	r2, [r3, #0]
  }

  if (((uint32_t)CurrentState & (uint32_t)HAL_I2C_STATE_LISTEN) == (uint32_t)HAL_I2C_STATE_LISTEN)
 8004f5a:	7bfb      	ldrb	r3, [r7, #15]
 8004f5c:	f003 0328 	and.w	r3, r3, #40	; 0x28
 8004f60:	2b28      	cmp	r3, #40	; 0x28
 8004f62:	d107      	bne.n	8004f74 <I2C_ITError+0x54>
  {
    /* keep HAL_I2C_STATE_LISTEN */
    hi2c->PreviousState = I2C_STATE_NONE;
 8004f64:	687b      	ldr	r3, [r7, #4]
 8004f66:	2200      	movs	r2, #0
 8004f68:	631a      	str	r2, [r3, #48]	; 0x30
    hi2c->State = HAL_I2C_STATE_LISTEN;
 8004f6a:	687b      	ldr	r3, [r7, #4]
 8004f6c:	2228      	movs	r2, #40	; 0x28
 8004f6e:	f883 203d 	strb.w	r2, [r3, #61]	; 0x3d
 8004f72:	e015      	b.n	8004fa0 <I2C_ITError+0x80>
  }
  else
  {
    /* If state is an abort treatment on going, don't change state */
    /* This change will be do later */
    if ((READ_BIT(hi2c->Instance->CR2, I2C_CR2_DMAEN) != I2C_CR2_DMAEN) && (CurrentState != HAL_I2C_STATE_ABORT))
 8004f74:	687b      	ldr	r3, [r7, #4]
 8004f76:	681b      	ldr	r3, [r3, #0]
 8004f78:	685b      	ldr	r3, [r3, #4]
 8004f7a:	f403 6300 	and.w	r3, r3, #2048	; 0x800
 8004f7e:	f5b3 6f00 	cmp.w	r3, #2048	; 0x800
 8004f82:	d00a      	beq.n	8004f9a <I2C_ITError+0x7a>
 8004f84:	7bfb      	ldrb	r3, [r7, #15]
 8004f86:	2b60      	cmp	r3, #96	; 0x60
 8004f88:	d007      	beq.n	8004f9a <I2C_ITError+0x7a>
    {
      hi2c->State = HAL_I2C_STATE_READY;
 8004f8a:	687b      	ldr	r3, [r7, #4]
 8004f8c:	2220      	movs	r2, #32
 8004f8e:	f883 203d 	strb.w	r2, [r3, #61]	; 0x3d
      hi2c->Mode = HAL_I2C_MODE_NONE;
 8004f92:	687b      	ldr	r3, [r7, #4]
 8004f94:	2200      	movs	r2, #0
 8004f96:	f883 203e 	strb.w	r2, [r3, #62]	; 0x3e
    }
    hi2c->PreviousState = I2C_STATE_NONE;
 8004f9a:	687b      	ldr	r3, [r7, #4]
 8004f9c:	2200      	movs	r2, #0
 8004f9e:	631a      	str	r2, [r3, #48]	; 0x30
  }

  /* Abort DMA transfer */
  if (READ_BIT(hi2c->Instance->CR2, I2C_CR2_DMAEN) == I2C_CR2_DMAEN)
 8004fa0:	687b      	ldr	r3, [r7, #4]
 8004fa2:	681b      	ldr	r3, [r3, #0]
 8004fa4:	685b      	ldr	r3, [r3, #4]
 8004fa6:	f403 6300 	and.w	r3, r3, #2048	; 0x800
 8004faa:	f5b3 6f00 	cmp.w	r3, #2048	; 0x800
 8004fae:	d161      	bne.n	8005074 <I2C_ITError+0x154>
  {
    hi2c->Instance->CR2 &= ~I2C_CR2_DMAEN;
 8004fb0:	687b      	ldr	r3, [r7, #4]
 8004fb2:	681b      	ldr	r3, [r3, #0]
 8004fb4:	685a      	ldr	r2, [r3, #4]
 8004fb6:	687b      	ldr	r3, [r7, #4]
 8004fb8:	681b      	ldr	r3, [r3, #0]
 8004fba:	f422 6200 	bic.w	r2, r2, #2048	; 0x800
 8004fbe:	605a      	str	r2, [r3, #4]

    if (hi2c->hdmatx->State != HAL_DMA_STATE_READY)
 8004fc0:	687b      	ldr	r3, [r7, #4]
 8004fc2:	6b5b      	ldr	r3, [r3, #52]	; 0x34
 8004fc4:	f893 3021 	ldrb.w	r3, [r3, #33]	; 0x21
 8004fc8:	2b01      	cmp	r3, #1
 8004fca:	d020      	beq.n	800500e <I2C_ITError+0xee>
    {
      /* Set the DMA Abort callback :
      will lead to call HAL_I2C_ErrorCallback() at end of DMA abort procedure */
      hi2c->hdmatx->XferAbortCallback = I2C_DMAAbort;
 8004fcc:	687b      	ldr	r3, [r7, #4]
 8004fce:	6b5b      	ldr	r3, [r3, #52]	; 0x34
 8004fd0:	4a6a      	ldr	r2, [pc, #424]	; (800517c <I2C_ITError+0x25c>)
 8004fd2:	635a      	str	r2, [r3, #52]	; 0x34

      if (HAL_DMA_Abort_IT(hi2c->hdmatx) != HAL_OK)
 8004fd4:	687b      	ldr	r3, [r7, #4]
 8004fd6:	6b5b      	ldr	r3, [r3, #52]	; 0x34
 8004fd8:	4618      	mov	r0, r3
 8004fda:	f7fe ff77 	bl	8003ecc <HAL_DMA_Abort_IT>
 8004fde:	4603      	mov	r3, r0
 8004fe0:	2b00      	cmp	r3, #0
 8004fe2:	f000 8089 	beq.w	80050f8 <I2C_ITError+0x1d8>
      {
        /* Disable I2C peripheral to prevent dummy data in buffer */
        __HAL_I2C_DISABLE(hi2c);
 8004fe6:	687b      	ldr	r3, [r7, #4]
 8004fe8:	681b      	ldr	r3, [r3, #0]
 8004fea:	681a      	ldr	r2, [r3, #0]
 8004fec:	687b      	ldr	r3, [r7, #4]
 8004fee:	681b      	ldr	r3, [r3, #0]
 8004ff0:	f022 0201 	bic.w	r2, r2, #1
 8004ff4:	601a      	str	r2, [r3, #0]

        hi2c->State = HAL_I2C_STATE_READY;
 8004ff6:	687b      	ldr	r3, [r7, #4]
 8004ff8:	2220      	movs	r2, #32
 8004ffa:	f883 203d 	strb.w	r2, [r3, #61]	; 0x3d

        /* Call Directly XferAbortCallback function in case of error */
        hi2c->hdmatx->XferAbortCallback(hi2c->hdmatx);
 8004ffe:	687b      	ldr	r3, [r7, #4]
 8005000:	6b5b      	ldr	r3, [r3, #52]	; 0x34
 8005002:	6b5b      	ldr	r3, [r3, #52]	; 0x34
 8005004:	687a      	ldr	r2, [r7, #4]
 8005006:	6b52      	ldr	r2, [r2, #52]	; 0x34
 8005008:	4610      	mov	r0, r2
 800500a:	4798      	blx	r3
 800500c:	e074      	b.n	80050f8 <I2C_ITError+0x1d8>
    }
    else
    {
      /* Set the DMA Abort callback :
      will lead to call HAL_I2C_ErrorCallback() at end of DMA abort procedure */
      hi2c->hdmarx->XferAbortCallback = I2C_DMAAbort;
 800500e:	687b      	ldr	r3, [r7, #4]
 8005010:	6b9b      	ldr	r3, [r3, #56]	; 0x38
 8005012:	4a5a      	ldr	r2, [pc, #360]	; (800517c <I2C_ITError+0x25c>)
 8005014:	635a      	str	r2, [r3, #52]	; 0x34

      if (HAL_DMA_Abort_IT(hi2c->hdmarx) != HAL_OK)
 8005016:	687b      	ldr	r3, [r7, #4]
 8005018:	6b9b      	ldr	r3, [r3, #56]	; 0x38
 800501a:	4618      	mov	r0, r3
 800501c:	f7fe ff56 	bl	8003ecc <HAL_DMA_Abort_IT>
 8005020:	4603      	mov	r3, r0
 8005022:	2b00      	cmp	r3, #0
 8005024:	d068      	beq.n	80050f8 <I2C_ITError+0x1d8>
      {
        /* Store Last receive data if any */
        if (__HAL_I2C_GET_FLAG(hi2c, I2C_FLAG_RXNE) == SET)
 8005026:	687b      	ldr	r3, [r7, #4]
 8005028:	681b      	ldr	r3, [r3, #0]
 800502a:	695b      	ldr	r3, [r3, #20]
 800502c:	f003 0340 	and.w	r3, r3, #64	; 0x40
 8005030:	2b40      	cmp	r3, #64	; 0x40
 8005032:	d10b      	bne.n	800504c <I2C_ITError+0x12c>
        {
          /* Read data from DR */
          *hi2c->pBuffPtr = (uint8_t)hi2c->Instance->DR;
 8005034:	687b      	ldr	r3, [r7, #4]
 8005036:	681b      	ldr	r3, [r3, #0]
 8005038:	691a      	ldr	r2, [r3, #16]
 800503a:	687b      	ldr	r3, [r7, #4]
 800503c:	6a5b      	ldr	r3, [r3, #36]	; 0x24
 800503e:	b2d2      	uxtb	r2, r2
 8005040:	701a      	strb	r2, [r3, #0]

          /* Increment Buffer pointer */
          hi2c->pBuffPtr++;
 8005042:	687b      	ldr	r3, [r7, #4]
 8005044:	6a5b      	ldr	r3, [r3, #36]	; 0x24
 8005046:	1c5a      	adds	r2, r3, #1
 8005048:	687b      	ldr	r3, [r7, #4]
 800504a:	625a      	str	r2, [r3, #36]	; 0x24
        }

        /* Disable I2C peripheral to prevent dummy data in buffer */
        __HAL_I2C_DISABLE(hi2c);
 800504c:	687b      	ldr	r3, [r7, #4]
 800504e:	681b      	ldr	r3, [r3, #0]
 8005050:	681a      	ldr	r2, [r3, #0]
 8005052:	687b      	ldr	r3, [r7, #4]
 8005054:	681b      	ldr	r3, [r3, #0]
 8005056:	f022 0201 	bic.w	r2, r2, #1
 800505a:	601a      	str	r2, [r3, #0]

        hi2c->State = HAL_I2C_STATE_READY;
 800505c:	687b      	ldr	r3, [r7, #4]
 800505e:	2220      	movs	r2, #32
 8005060:	f883 203d 	strb.w	r2, [r3, #61]	; 0x3d

        /* Call Directly hi2c->hdmarx->XferAbortCallback function in case of error */
        hi2c->hdmarx->XferAbortCallback(hi2c->hdmarx);
 8005064:	687b      	ldr	r3, [r7, #4]
 8005066:	6b9b      	ldr	r3, [r3, #56]	; 0x38
 8005068:	6b5b      	ldr	r3, [r3, #52]	; 0x34
 800506a:	687a      	ldr	r2, [r7, #4]
 800506c:	6b92      	ldr	r2, [r2, #56]	; 0x38
 800506e:	4610      	mov	r0, r2
 8005070:	4798      	blx	r3
 8005072:	e041      	b.n	80050f8 <I2C_ITError+0x1d8>
      }
    }
  }
  else if (hi2c->State == HAL_I2C_STATE_ABORT)
 8005074:	687b      	ldr	r3, [r7, #4]
 8005076:	f893 303d 	ldrb.w	r3, [r3, #61]	; 0x3d
 800507a:	b2db      	uxtb	r3, r3
 800507c:	2b60      	cmp	r3, #96	; 0x60
 800507e:	d125      	bne.n	80050cc <I2C_ITError+0x1ac>
  {
    hi2c->State = HAL_I2C_STATE_READY;
 8005080:	687b      	ldr	r3, [r7, #4]
 8005082:	2220      	movs	r2, #32
 8005084:	f883 203d 	strb.w	r2, [r3, #61]	; 0x3d
    hi2c->ErrorCode = HAL_I2C_ERROR_NONE;
 8005088:	687b      	ldr	r3, [r7, #4]
 800508a:	2200      	movs	r2, #0
 800508c:	641a      	str	r2, [r3, #64]	; 0x40

    /* Store Last receive data if any */
    if (__HAL_I2C_GET_FLAG(hi2c, I2C_FLAG_RXNE) == SET)
 800508e:	687b      	ldr	r3, [r7, #4]
 8005090:	681b      	ldr	r3, [r3, #0]
 8005092:	695b      	ldr	r3, [r3, #20]
 8005094:	f003 0340 	and.w	r3, r3, #64	; 0x40
 8005098:	2b40      	cmp	r3, #64	; 0x40
 800509a:	d10b      	bne.n	80050b4 <I2C_ITError+0x194>
    {
      /* Read data from DR */
      *hi2c->pBuffPtr = (uint8_t)hi2c->Instance->DR;
 800509c:	687b      	ldr	r3, [r7, #4]
 800509e:	681b      	ldr	r3, [r3, #0]
 80050a0:	691a      	ldr	r2, [r3, #16]
 80050a2:	687b      	ldr	r3, [r7, #4]
 80050a4:	6a5b      	ldr	r3, [r3, #36]	; 0x24
 80050a6:	b2d2      	uxtb	r2, r2
 80050a8:	701a      	strb	r2, [r3, #0]

      /* Increment Buffer pointer */
      hi2c->pBuffPtr++;
 80050aa:	687b      	ldr	r3, [r7, #4]
 80050ac:	6a5b      	ldr	r3, [r3, #36]	; 0x24
 80050ae:	1c5a      	adds	r2, r3, #1
 80050b0:	687b      	ldr	r3, [r7, #4]
 80050b2:	625a      	str	r2, [r3, #36]	; 0x24
    }

    /* Disable I2C peripheral to prevent dummy data in buffer */
    __HAL_I2C_DISABLE(hi2c);
 80050b4:	687b      	ldr	r3, [r7, #4]
 80050b6:	681b      	ldr	r3, [r3, #0]
 80050b8:	681a      	ldr	r2, [r3, #0]
 80050ba:	687b      	ldr	r3, [r7, #4]
 80050bc:	681b      	ldr	r3, [r3, #0]
 80050be:	f022 0201 	bic.w	r2, r2, #1
 80050c2:	601a      	str	r2, [r3, #0]

    /* Call the corresponding callback to inform upper layer of End of Transfer */
#if (USE_HAL_I2C_REGISTER_CALLBACKS == 1)
    hi2c->AbortCpltCallback(hi2c);
#else
    HAL_I2C_AbortCpltCallback(hi2c);
 80050c4:	6878      	ldr	r0, [r7, #4]
 80050c6:	f7ff feb1 	bl	8004e2c <HAL_I2C_AbortCpltCallback>
 80050ca:	e015      	b.n	80050f8 <I2C_ITError+0x1d8>
#endif /* USE_HAL_I2C_REGISTER_CALLBACKS */
  }
  else
  {
    /* Store Last receive data if any */
    if (__HAL_I2C_GET_FLAG(hi2c, I2C_FLAG_RXNE) == SET)
 80050cc:	687b      	ldr	r3, [r7, #4]
 80050ce:	681b      	ldr	r3, [r3, #0]
 80050d0:	695b      	ldr	r3, [r3, #20]
 80050d2:	f003 0340 	and.w	r3, r3, #64	; 0x40
 80050d6:	2b40      	cmp	r3, #64	; 0x40
 80050d8:	d10b      	bne.n	80050f2 <I2C_ITError+0x1d2>
    {
      /* Read data from DR */
      *hi2c->pBuffPtr = (uint8_t)hi2c->Instance->DR;
 80050da:	687b      	ldr	r3, [r7, #4]
 80050dc:	681b      	ldr	r3, [r3, #0]
 80050de:	691a      	ldr	r2, [r3, #16]
 80050e0:	687b      	ldr	r3, [r7, #4]
 80050e2:	6a5b      	ldr	r3, [r3, #36]	; 0x24
 80050e4:	b2d2      	uxtb	r2, r2
 80050e6:	701a      	strb	r2, [r3, #0]

      /* Increment Buffer pointer */
      hi2c->pBuffPtr++;
 80050e8:	687b      	ldr	r3, [r7, #4]
 80050ea:	6a5b      	ldr	r3, [r3, #36]	; 0x24
 80050ec:	1c5a      	adds	r2, r3, #1
 80050ee:	687b      	ldr	r3, [r7, #4]
 80050f0:	625a      	str	r2, [r3, #36]	; 0x24

    /* Call user error callback */
#if (USE_HAL_I2C_REGISTER_CALLBACKS == 1)
    hi2c->ErrorCallback(hi2c);
#else
    HAL_I2C_ErrorCallback(hi2c);
 80050f2:	6878      	ldr	r0, [r7, #4]
 80050f4:	f7ff fe91 	bl	8004e1a <HAL_I2C_ErrorCallback>
#endif /* USE_HAL_I2C_REGISTER_CALLBACKS */
  }

  /* STOP Flag is not set after a NACK reception, BusError, ArbitrationLost, OverRun */
  CurrentError = hi2c->ErrorCode;
 80050f8:	687b      	ldr	r3, [r7, #4]
 80050fa:	6c1b      	ldr	r3, [r3, #64]	; 0x40
 80050fc:	60bb      	str	r3, [r7, #8]

  if (((CurrentError & HAL_I2C_ERROR_BERR) == HAL_I2C_ERROR_BERR) || \
 80050fe:	68bb      	ldr	r3, [r7, #8]
 8005100:	f003 0301 	and.w	r3, r3, #1
 8005104:	2b00      	cmp	r3, #0
 8005106:	d10e      	bne.n	8005126 <I2C_ITError+0x206>
      ((CurrentError & HAL_I2C_ERROR_ARLO) == HAL_I2C_ERROR_ARLO) || \
 8005108:	68bb      	ldr	r3, [r7, #8]
 800510a:	f003 0302 	and.w	r3, r3, #2
  if (((CurrentError & HAL_I2C_ERROR_BERR) == HAL_I2C_ERROR_BERR) || \
 800510e:	2b00      	cmp	r3, #0
 8005110:	d109      	bne.n	8005126 <I2C_ITError+0x206>
      ((CurrentError & HAL_I2C_ERROR_AF) == HAL_I2C_ERROR_AF)     || \
 8005112:	68bb      	ldr	r3, [r7, #8]
 8005114:	f003 0304 	and.w	r3, r3, #4
      ((CurrentError & HAL_I2C_ERROR_ARLO) == HAL_I2C_ERROR_ARLO) || \
 8005118:	2b00      	cmp	r3, #0
 800511a:	d104      	bne.n	8005126 <I2C_ITError+0x206>
      ((CurrentError & HAL_I2C_ERROR_OVR) == HAL_I2C_ERROR_OVR))
 800511c:	68bb      	ldr	r3, [r7, #8]
 800511e:	f003 0308 	and.w	r3, r3, #8
      ((CurrentError & HAL_I2C_ERROR_AF) == HAL_I2C_ERROR_AF)     || \
 8005122:	2b00      	cmp	r3, #0
 8005124:	d007      	beq.n	8005136 <I2C_ITError+0x216>
  {
    /* Disable EVT, BUF and ERR interrupt */
    __HAL_I2C_DISABLE_IT(hi2c, I2C_IT_EVT | I2C_IT_BUF | I2C_IT_ERR);
 8005126:	687b      	ldr	r3, [r7, #4]
 8005128:	681b      	ldr	r3, [r3, #0]
 800512a:	685a      	ldr	r2, [r3, #4]
 800512c:	687b      	ldr	r3, [r7, #4]
 800512e:	681b      	ldr	r3, [r3, #0]
 8005130:	f422 62e0 	bic.w	r2, r2, #1792	; 0x700
 8005134:	605a      	str	r2, [r3, #4]
  }

  /* So may inform upper layer that listen phase is stopped */
  /* during NACK error treatment */
  CurrentState = hi2c->State;
 8005136:	687b      	ldr	r3, [r7, #4]
 8005138:	f893 303d 	ldrb.w	r3, [r3, #61]	; 0x3d
 800513c:	73fb      	strb	r3, [r7, #15]
  if (((hi2c->ErrorCode & HAL_I2C_ERROR_AF) == HAL_I2C_ERROR_AF) && (CurrentState == HAL_I2C_STATE_LISTEN))
 800513e:	687b      	ldr	r3, [r7, #4]
 8005140:	6c1b      	ldr	r3, [r3, #64]	; 0x40
 8005142:	f003 0304 	and.w	r3, r3, #4
 8005146:	2b04      	cmp	r3, #4
 8005148:	d113      	bne.n	8005172 <I2C_ITError+0x252>
 800514a:	7bfb      	ldrb	r3, [r7, #15]
 800514c:	2b28      	cmp	r3, #40	; 0x28
 800514e:	d110      	bne.n	8005172 <I2C_ITError+0x252>
  {
    hi2c->XferOptions   = I2C_NO_OPTION_FRAME;
 8005150:	687b      	ldr	r3, [r7, #4]
 8005152:	4a0b      	ldr	r2, [pc, #44]	; (8005180 <I2C_ITError+0x260>)
 8005154:	62da      	str	r2, [r3, #44]	; 0x2c
    hi2c->PreviousState = I2C_STATE_NONE;
 8005156:	687b      	ldr	r3, [r7, #4]
 8005158:	2200      	movs	r2, #0
 800515a:	631a      	str	r2, [r3, #48]	; 0x30
    hi2c->State         = HAL_I2C_STATE_READY;
 800515c:	687b      	ldr	r3, [r7, #4]
 800515e:	2220      	movs	r2, #32
 8005160:	f883 203d 	strb.w	r2, [r3, #61]	; 0x3d
    hi2c->Mode          = HAL_I2C_MODE_NONE;
 8005164:	687b      	ldr	r3, [r7, #4]
 8005166:	2200      	movs	r2, #0
 8005168:	f883 203e 	strb.w	r2, [r3, #62]	; 0x3e

    /* Call the Listen Complete callback, to inform upper layer of the end of Listen usecase */
#if (USE_HAL_I2C_REGISTER_CALLBACKS == 1)
    hi2c->ListenCpltCallback(hi2c);
#else
    HAL_I2C_ListenCpltCallback(hi2c);
 800516c:	6878      	ldr	r0, [r7, #4]
 800516e:	f7ff fe4b 	bl	8004e08 <HAL_I2C_ListenCpltCallback>
#endif /* USE_HAL_I2C_REGISTER_CALLBACKS */
  }
}
 8005172:	bf00      	nop
 8005174:	3710      	adds	r7, #16
 8005176:	46bd      	mov	sp, r7
 8005178:	bd80      	pop	{r7, pc}
 800517a:	bf00      	nop
 800517c:	08005289 	.word	0x08005289
 8005180:	ffff0000 	.word	0xffff0000

08005184 <I2C_MasterRequestWrite>:
  * @param  Timeout Timeout duration
  * @param  Tickstart Tick start value
  * @retval HAL status
  */
static HAL_StatusTypeDef I2C_MasterRequestWrite(I2C_HandleTypeDef *hi2c, uint16_t DevAddress, uint32_t Timeout, uint32_t Tickstart)
{
 8005184:	b580      	push	{r7, lr}
 8005186:	b088      	sub	sp, #32
 8005188:	af02      	add	r7, sp, #8
 800518a:	60f8      	str	r0, [r7, #12]
 800518c:	607a      	str	r2, [r7, #4]
 800518e:	603b      	str	r3, [r7, #0]
 8005190:	460b      	mov	r3, r1
 8005192:	817b      	strh	r3, [r7, #10]
  /* Declaration of temporary variable to prevent undefined behavior of volatile usage */
  uint32_t CurrentXferOptions = hi2c->XferOptions;
 8005194:	68fb      	ldr	r3, [r7, #12]
 8005196:	6adb      	ldr	r3, [r3, #44]	; 0x2c
 8005198:	617b      	str	r3, [r7, #20]

  /* Generate Start condition if first transfer */
  if ((CurrentXferOptions == I2C_FIRST_AND_LAST_FRAME) || (CurrentXferOptions == I2C_FIRST_FRAME) || (CurrentXferOptions == I2C_NO_OPTION_FRAME))
 800519a:	697b      	ldr	r3, [r7, #20]
 800519c:	2b08      	cmp	r3, #8
 800519e:	d006      	beq.n	80051ae <I2C_MasterRequestWrite+0x2a>
 80051a0:	697b      	ldr	r3, [r7, #20]
 80051a2:	2b01      	cmp	r3, #1
 80051a4:	d003      	beq.n	80051ae <I2C_MasterRequestWrite+0x2a>
 80051a6:	697b      	ldr	r3, [r7, #20]
 80051a8:	f513 3f80 	cmn.w	r3, #65536	; 0x10000
 80051ac:	d108      	bne.n	80051c0 <I2C_MasterRequestWrite+0x3c>
  {
    /* Generate Start */
    SET_BIT(hi2c->Instance->CR1, I2C_CR1_START);
 80051ae:	68fb      	ldr	r3, [r7, #12]
 80051b0:	681b      	ldr	r3, [r3, #0]
 80051b2:	681a      	ldr	r2, [r3, #0]
 80051b4:	68fb      	ldr	r3, [r7, #12]
 80051b6:	681b      	ldr	r3, [r3, #0]
 80051b8:	f442 7280 	orr.w	r2, r2, #256	; 0x100
 80051bc:	601a      	str	r2, [r3, #0]
 80051be:	e00b      	b.n	80051d8 <I2C_MasterRequestWrite+0x54>
  }
  else if (hi2c->PreviousState == I2C_STATE_MASTER_BUSY_RX)
 80051c0:	68fb      	ldr	r3, [r7, #12]
 80051c2:	6b1b      	ldr	r3, [r3, #48]	; 0x30
 80051c4:	2b12      	cmp	r3, #18
 80051c6:	d107      	bne.n	80051d8 <I2C_MasterRequestWrite+0x54>
  {
    /* Generate ReStart */
    SET_BIT(hi2c->Instance->CR1, I2C_CR1_START);
 80051c8:	68fb      	ldr	r3, [r7, #12]
 80051ca:	681b      	ldr	r3, [r3, #0]
 80051cc:	681a      	ldr	r2, [r3, #0]
 80051ce:	68fb      	ldr	r3, [r7, #12]
 80051d0:	681b      	ldr	r3, [r3, #0]
 80051d2:	f442 7280 	orr.w	r2, r2, #256	; 0x100
 80051d6:	601a      	str	r2, [r3, #0]
  {
    /* Do nothing */
  }

  /* Wait until SB flag is set */
  if (I2C_WaitOnFlagUntilTimeout(hi2c, I2C_FLAG_SB, RESET, Timeout, Tickstart) != HAL_OK)
 80051d8:	683b      	ldr	r3, [r7, #0]
 80051da:	9300      	str	r3, [sp, #0]
 80051dc:	687b      	ldr	r3, [r7, #4]
 80051de:	2200      	movs	r2, #0
 80051e0:	f04f 1101 	mov.w	r1, #65537	; 0x10001
 80051e4:	68f8      	ldr	r0, [r7, #12]
 80051e6:	f000 f8f7 	bl	80053d8 <I2C_WaitOnFlagUntilTimeout>
 80051ea:	4603      	mov	r3, r0
 80051ec:	2b00      	cmp	r3, #0
 80051ee:	d00d      	beq.n	800520c <I2C_MasterRequestWrite+0x88>
  {
    if (READ_BIT(hi2c->Instance->CR1, I2C_CR1_START) == I2C_CR1_START)
 80051f0:	68fb      	ldr	r3, [r7, #12]
 80051f2:	681b      	ldr	r3, [r3, #0]
 80051f4:	681b      	ldr	r3, [r3, #0]
 80051f6:	f403 7380 	and.w	r3, r3, #256	; 0x100
 80051fa:	f5b3 7f80 	cmp.w	r3, #256	; 0x100
 80051fe:	d103      	bne.n	8005208 <I2C_MasterRequestWrite+0x84>
    {
      hi2c->ErrorCode = HAL_I2C_WRONG_START;
 8005200:	68fb      	ldr	r3, [r7, #12]
 8005202:	f44f 7200 	mov.w	r2, #512	; 0x200
 8005206:	641a      	str	r2, [r3, #64]	; 0x40
    }
    return HAL_TIMEOUT;
 8005208:	2303      	movs	r3, #3
 800520a:	e035      	b.n	8005278 <I2C_MasterRequestWrite+0xf4>
  }

  if (hi2c->Init.AddressingMode == I2C_ADDRESSINGMODE_7BIT)
 800520c:	68fb      	ldr	r3, [r7, #12]
 800520e:	691b      	ldr	r3, [r3, #16]
 8005210:	f5b3 4f80 	cmp.w	r3, #16384	; 0x4000
 8005214:	d108      	bne.n	8005228 <I2C_MasterRequestWrite+0xa4>
  {
    /* Send slave address */
    hi2c->Instance->DR = I2C_7BIT_ADD_WRITE(DevAddress);
 8005216:	897b      	ldrh	r3, [r7, #10]
 8005218:	b2db      	uxtb	r3, r3
 800521a:	461a      	mov	r2, r3
 800521c:	68fb      	ldr	r3, [r7, #12]
 800521e:	681b      	ldr	r3, [r3, #0]
 8005220:	f002 02fe 	and.w	r2, r2, #254	; 0xfe
 8005224:	611a      	str	r2, [r3, #16]
 8005226:	e01b      	b.n	8005260 <I2C_MasterRequestWrite+0xdc>
  }
  else
  {
    /* Send header of slave address */
    hi2c->Instance->DR = I2C_10BIT_HEADER_WRITE(DevAddress);
 8005228:	897b      	ldrh	r3, [r7, #10]
 800522a:	11db      	asrs	r3, r3, #7
 800522c:	b2db      	uxtb	r3, r3
 800522e:	f003 0306 	and.w	r3, r3, #6
 8005232:	b2db      	uxtb	r3, r3
 8005234:	f063 030f 	orn	r3, r3, #15
 8005238:	b2da      	uxtb	r2, r3
 800523a:	68fb      	ldr	r3, [r7, #12]
 800523c:	681b      	ldr	r3, [r3, #0]
 800523e:	611a      	str	r2, [r3, #16]

    /* Wait until ADD10 flag is set */
    if (I2C_WaitOnMasterAddressFlagUntilTimeout(hi2c, I2C_FLAG_ADD10, Timeout, Tickstart) != HAL_OK)
 8005240:	683b      	ldr	r3, [r7, #0]
 8005242:	687a      	ldr	r2, [r7, #4]
 8005244:	490e      	ldr	r1, [pc, #56]	; (8005280 <I2C_MasterRequestWrite+0xfc>)
 8005246:	68f8      	ldr	r0, [r7, #12]
 8005248:	f000 f91d 	bl	8005486 <I2C_WaitOnMasterAddressFlagUntilTimeout>
 800524c:	4603      	mov	r3, r0
 800524e:	2b00      	cmp	r3, #0
 8005250:	d001      	beq.n	8005256 <I2C_MasterRequestWrite+0xd2>
    {
      return HAL_ERROR;
 8005252:	2301      	movs	r3, #1
 8005254:	e010      	b.n	8005278 <I2C_MasterRequestWrite+0xf4>
    }

    /* Send slave address */
    hi2c->Instance->DR = I2C_10BIT_ADDRESS(DevAddress);
 8005256:	897b      	ldrh	r3, [r7, #10]
 8005258:	b2da      	uxtb	r2, r3
 800525a:	68fb      	ldr	r3, [r7, #12]
 800525c:	681b      	ldr	r3, [r3, #0]
 800525e:	611a      	str	r2, [r3, #16]
  }

  /* Wait until ADDR flag is set */
  if (I2C_WaitOnMasterAddressFlagUntilTimeout(hi2c, I2C_FLAG_ADDR, Timeout, Tickstart) != HAL_OK)
 8005260:	683b      	ldr	r3, [r7, #0]
 8005262:	687a      	ldr	r2, [r7, #4]
 8005264:	4907      	ldr	r1, [pc, #28]	; (8005284 <I2C_MasterRequestWrite+0x100>)
 8005266:	68f8      	ldr	r0, [r7, #12]
 8005268:	f000 f90d 	bl	8005486 <I2C_WaitOnMasterAddressFlagUntilTimeout>
 800526c:	4603      	mov	r3, r0
 800526e:	2b00      	cmp	r3, #0
 8005270:	d001      	beq.n	8005276 <I2C_MasterRequestWrite+0xf2>
  {
    return HAL_ERROR;
 8005272:	2301      	movs	r3, #1
 8005274:	e000      	b.n	8005278 <I2C_MasterRequestWrite+0xf4>
  }

  return HAL_OK;
 8005276:	2300      	movs	r3, #0
}
 8005278:	4618      	mov	r0, r3
 800527a:	3718      	adds	r7, #24
 800527c:	46bd      	mov	sp, r7
 800527e:	bd80      	pop	{r7, pc}
 8005280:	00010008 	.word	0x00010008
 8005284:	00010002 	.word	0x00010002

08005288 <I2C_DMAAbort>:
  *        (To be called at end of DMA Abort procedure).
  * @param hdma DMA handle.
  * @retval None
  */
static void I2C_DMAAbort(DMA_HandleTypeDef *hdma)
{
 8005288:	b580      	push	{r7, lr}
 800528a:	b086      	sub	sp, #24
 800528c:	af00      	add	r7, sp, #0
 800528e:	6078      	str	r0, [r7, #4]
  __IO uint32_t count = 0U;
 8005290:	2300      	movs	r3, #0
 8005292:	60fb      	str	r3, [r7, #12]
  I2C_HandleTypeDef *hi2c = (I2C_HandleTypeDef *)((DMA_HandleTypeDef *)hdma)->Parent; /* Derogation MISRAC2012-Rule-11.5 */
 8005294:	687b      	ldr	r3, [r7, #4]
 8005296:	6a5b      	ldr	r3, [r3, #36]	; 0x24
 8005298:	617b      	str	r3, [r7, #20]

  /* Declaration of temporary variable to prevent undefined behavior of volatile usage */
  HAL_I2C_StateTypeDef CurrentState = hi2c->State;
 800529a:	697b      	ldr	r3, [r7, #20]
 800529c:	f893 303d 	ldrb.w	r3, [r3, #61]	; 0x3d
 80052a0:	74fb      	strb	r3, [r7, #19]

  /* During abort treatment, check that there is no pending STOP request */
  /* Wait until STOP flag is reset */
  count = I2C_TIMEOUT_FLAG * (SystemCoreClock / 25U / 1000U);
 80052a2:	4b4b      	ldr	r3, [pc, #300]	; (80053d0 <I2C_DMAAbort+0x148>)
 80052a4:	681b      	ldr	r3, [r3, #0]
 80052a6:	08db      	lsrs	r3, r3, #3
 80052a8:	4a4a      	ldr	r2, [pc, #296]	; (80053d4 <I2C_DMAAbort+0x14c>)
 80052aa:	fba2 2303 	umull	r2, r3, r2, r3
 80052ae:	0a1a      	lsrs	r2, r3, #8
 80052b0:	4613      	mov	r3, r2
 80052b2:	009b      	lsls	r3, r3, #2
 80052b4:	4413      	add	r3, r2
 80052b6:	00da      	lsls	r2, r3, #3
 80052b8:	1ad3      	subs	r3, r2, r3
 80052ba:	60fb      	str	r3, [r7, #12]
  do
  {
    if (count == 0U)
 80052bc:	68fb      	ldr	r3, [r7, #12]
 80052be:	2b00      	cmp	r3, #0
 80052c0:	d106      	bne.n	80052d0 <I2C_DMAAbort+0x48>
    {
      hi2c->ErrorCode |= HAL_I2C_ERROR_TIMEOUT;
 80052c2:	697b      	ldr	r3, [r7, #20]
 80052c4:	6c1b      	ldr	r3, [r3, #64]	; 0x40
 80052c6:	f043 0220 	orr.w	r2, r3, #32
 80052ca:	697b      	ldr	r3, [r7, #20]
 80052cc:	641a      	str	r2, [r3, #64]	; 0x40
      break;
 80052ce:	e00a      	b.n	80052e6 <I2C_DMAAbort+0x5e>
    }
    count--;
 80052d0:	68fb      	ldr	r3, [r7, #12]
 80052d2:	3b01      	subs	r3, #1
 80052d4:	60fb      	str	r3, [r7, #12]
  }
  while (READ_BIT(hi2c->Instance->CR1, I2C_CR1_STOP) == I2C_CR1_STOP);
 80052d6:	697b      	ldr	r3, [r7, #20]
 80052d8:	681b      	ldr	r3, [r3, #0]
 80052da:	681b      	ldr	r3, [r3, #0]
 80052dc:	f403 7300 	and.w	r3, r3, #512	; 0x200
 80052e0:	f5b3 7f00 	cmp.w	r3, #512	; 0x200
 80052e4:	d0ea      	beq.n	80052bc <I2C_DMAAbort+0x34>

  /* Clear Complete callback */
  if (hi2c->hdmatx != NULL)
 80052e6:	697b      	ldr	r3, [r7, #20]
 80052e8:	6b5b      	ldr	r3, [r3, #52]	; 0x34
 80052ea:	2b00      	cmp	r3, #0
 80052ec:	d003      	beq.n	80052f6 <I2C_DMAAbort+0x6e>
  {
    hi2c->hdmatx->XferCpltCallback = NULL;
 80052ee:	697b      	ldr	r3, [r7, #20]
 80052f0:	6b5b      	ldr	r3, [r3, #52]	; 0x34
 80052f2:	2200      	movs	r2, #0
 80052f4:	629a      	str	r2, [r3, #40]	; 0x28
  }
  if (hi2c->hdmarx != NULL)
 80052f6:	697b      	ldr	r3, [r7, #20]
 80052f8:	6b9b      	ldr	r3, [r3, #56]	; 0x38
 80052fa:	2b00      	cmp	r3, #0
 80052fc:	d003      	beq.n	8005306 <I2C_DMAAbort+0x7e>
  {
    hi2c->hdmarx->XferCpltCallback = NULL;
 80052fe:	697b      	ldr	r3, [r7, #20]
 8005300:	6b9b      	ldr	r3, [r3, #56]	; 0x38
 8005302:	2200      	movs	r2, #0
 8005304:	629a      	str	r2, [r3, #40]	; 0x28
  }

  /* Disable Acknowledge */
  CLEAR_BIT(hi2c->Instance->CR1, I2C_CR1_ACK);
 8005306:	697b      	ldr	r3, [r7, #20]
 8005308:	681b      	ldr	r3, [r3, #0]
 800530a:	681a      	ldr	r2, [r3, #0]
 800530c:	697b      	ldr	r3, [r7, #20]
 800530e:	681b      	ldr	r3, [r3, #0]
 8005310:	f422 6280 	bic.w	r2, r2, #1024	; 0x400
 8005314:	601a      	str	r2, [r3, #0]

  hi2c->XferCount = 0U;
 8005316:	697b      	ldr	r3, [r7, #20]
 8005318:	2200      	movs	r2, #0
 800531a:	855a      	strh	r2, [r3, #42]	; 0x2a

  /* Reset XferAbortCallback */
  if (hi2c->hdmatx != NULL)
 800531c:	697b      	ldr	r3, [r7, #20]
 800531e:	6b5b      	ldr	r3, [r3, #52]	; 0x34
 8005320:	2b00      	cmp	r3, #0
 8005322:	d003      	beq.n	800532c <I2C_DMAAbort+0xa4>
  {
    hi2c->hdmatx->XferAbortCallback = NULL;
 8005324:	697b      	ldr	r3, [r7, #20]
 8005326:	6b5b      	ldr	r3, [r3, #52]	; 0x34
 8005328:	2200      	movs	r2, #0
 800532a:	635a      	str	r2, [r3, #52]	; 0x34
  }
  if (hi2c->hdmarx != NULL)
 800532c:	697b      	ldr	r3, [r7, #20]
 800532e:	6b9b      	ldr	r3, [r3, #56]	; 0x38
 8005330:	2b00      	cmp	r3, #0
 8005332:	d003      	beq.n	800533c <I2C_DMAAbort+0xb4>
  {
    hi2c->hdmarx->XferAbortCallback = NULL;
 8005334:	697b      	ldr	r3, [r7, #20]
 8005336:	6b9b      	ldr	r3, [r3, #56]	; 0x38
 8005338:	2200      	movs	r2, #0
 800533a:	635a      	str	r2, [r3, #52]	; 0x34
  }

  /* Disable I2C peripheral to prevent dummy data in buffer */
  __HAL_I2C_DISABLE(hi2c);
 800533c:	697b      	ldr	r3, [r7, #20]
 800533e:	681b      	ldr	r3, [r3, #0]
 8005340:	681a      	ldr	r2, [r3, #0]
 8005342:	697b      	ldr	r3, [r7, #20]
 8005344:	681b      	ldr	r3, [r3, #0]
 8005346:	f022 0201 	bic.w	r2, r2, #1
 800534a:	601a      	str	r2, [r3, #0]

  /* Check if come from abort from user */
  if (hi2c->State == HAL_I2C_STATE_ABORT)
 800534c:	697b      	ldr	r3, [r7, #20]
 800534e:	f893 303d 	ldrb.w	r3, [r3, #61]	; 0x3d
 8005352:	b2db      	uxtb	r3, r3
 8005354:	2b60      	cmp	r3, #96	; 0x60
 8005356:	d10e      	bne.n	8005376 <I2C_DMAAbort+0xee>
  {
    hi2c->State         = HAL_I2C_STATE_READY;
 8005358:	697b      	ldr	r3, [r7, #20]
 800535a:	2220      	movs	r2, #32
 800535c:	f883 203d 	strb.w	r2, [r3, #61]	; 0x3d
    hi2c->Mode          = HAL_I2C_MODE_NONE;
 8005360:	697b      	ldr	r3, [r7, #20]
 8005362:	2200      	movs	r2, #0
 8005364:	f883 203e 	strb.w	r2, [r3, #62]	; 0x3e
    hi2c->ErrorCode     = HAL_I2C_ERROR_NONE;
 8005368:	697b      	ldr	r3, [r7, #20]
 800536a:	2200      	movs	r2, #0
 800536c:	641a      	str	r2, [r3, #64]	; 0x40

    /* Call the corresponding callback to inform upper layer of End of Transfer */
#if (USE_HAL_I2C_REGISTER_CALLBACKS == 1)
    hi2c->AbortCpltCallback(hi2c);
#else
    HAL_I2C_AbortCpltCallback(hi2c);
 800536e:	6978      	ldr	r0, [r7, #20]
 8005370:	f7ff fd5c 	bl	8004e2c <HAL_I2C_AbortCpltCallback>
    hi2c->ErrorCallback(hi2c);
#else
    HAL_I2C_ErrorCallback(hi2c);
#endif /* USE_HAL_I2C_REGISTER_CALLBACKS */
  }
}
 8005374:	e027      	b.n	80053c6 <I2C_DMAAbort+0x13e>
    if (((uint32_t)CurrentState & (uint32_t)HAL_I2C_STATE_LISTEN) == (uint32_t)HAL_I2C_STATE_LISTEN)
 8005376:	7cfb      	ldrb	r3, [r7, #19]
 8005378:	f003 0328 	and.w	r3, r3, #40	; 0x28
 800537c:	2b28      	cmp	r3, #40	; 0x28
 800537e:	d117      	bne.n	80053b0 <I2C_DMAAbort+0x128>
      __HAL_I2C_ENABLE(hi2c);
 8005380:	697b      	ldr	r3, [r7, #20]
 8005382:	681b      	ldr	r3, [r3, #0]
 8005384:	681a      	ldr	r2, [r3, #0]
 8005386:	697b      	ldr	r3, [r7, #20]
 8005388:	681b      	ldr	r3, [r3, #0]
 800538a:	f042 0201 	orr.w	r2, r2, #1
 800538e:	601a      	str	r2, [r3, #0]
      SET_BIT(hi2c->Instance->CR1, I2C_CR1_ACK);
 8005390:	697b      	ldr	r3, [r7, #20]
 8005392:	681b      	ldr	r3, [r3, #0]
 8005394:	681a      	ldr	r2, [r3, #0]
 8005396:	697b      	ldr	r3, [r7, #20]
 8005398:	681b      	ldr	r3, [r3, #0]
 800539a:	f442 6280 	orr.w	r2, r2, #1024	; 0x400
 800539e:	601a      	str	r2, [r3, #0]
      hi2c->PreviousState = I2C_STATE_NONE;
 80053a0:	697b      	ldr	r3, [r7, #20]
 80053a2:	2200      	movs	r2, #0
 80053a4:	631a      	str	r2, [r3, #48]	; 0x30
      hi2c->State = HAL_I2C_STATE_LISTEN;
 80053a6:	697b      	ldr	r3, [r7, #20]
 80053a8:	2228      	movs	r2, #40	; 0x28
 80053aa:	f883 203d 	strb.w	r2, [r3, #61]	; 0x3d
 80053ae:	e007      	b.n	80053c0 <I2C_DMAAbort+0x138>
      hi2c->State = HAL_I2C_STATE_READY;
 80053b0:	697b      	ldr	r3, [r7, #20]
 80053b2:	2220      	movs	r2, #32
 80053b4:	f883 203d 	strb.w	r2, [r3, #61]	; 0x3d
      hi2c->Mode = HAL_I2C_MODE_NONE;
 80053b8:	697b      	ldr	r3, [r7, #20]
 80053ba:	2200      	movs	r2, #0
 80053bc:	f883 203e 	strb.w	r2, [r3, #62]	; 0x3e
    HAL_I2C_ErrorCallback(hi2c);
 80053c0:	6978      	ldr	r0, [r7, #20]
 80053c2:	f7ff fd2a 	bl	8004e1a <HAL_I2C_ErrorCallback>
}
 80053c6:	bf00      	nop
 80053c8:	3718      	adds	r7, #24
 80053ca:	46bd      	mov	sp, r7
 80053cc:	bd80      	pop	{r7, pc}
 80053ce:	bf00      	nop
 80053d0:	20000014 	.word	0x20000014
 80053d4:	14f8b589 	.word	0x14f8b589

080053d8 <I2C_WaitOnFlagUntilTimeout>:
  * @param  Timeout Timeout duration
  * @param  Tickstart Tick start value
  * @retval HAL status
  */
static HAL_StatusTypeDef I2C_WaitOnFlagUntilTimeout(I2C_HandleTypeDef *hi2c, uint32_t Flag, FlagStatus Status, uint32_t Timeout, uint32_t Tickstart)
{
 80053d8:	b580      	push	{r7, lr}
 80053da:	b084      	sub	sp, #16
 80053dc:	af00      	add	r7, sp, #0
 80053de:	60f8      	str	r0, [r7, #12]
 80053e0:	60b9      	str	r1, [r7, #8]
 80053e2:	603b      	str	r3, [r7, #0]
 80053e4:	4613      	mov	r3, r2
 80053e6:	71fb      	strb	r3, [r7, #7]
  /* Wait until flag is set */
  while (__HAL_I2C_GET_FLAG(hi2c, Flag) == Status)
 80053e8:	e025      	b.n	8005436 <I2C_WaitOnFlagUntilTimeout+0x5e>
  {
    /* Check for the Timeout */
    if (Timeout != HAL_MAX_DELAY)
 80053ea:	683b      	ldr	r3, [r7, #0]
 80053ec:	f1b3 3fff 	cmp.w	r3, #4294967295
 80053f0:	d021      	beq.n	8005436 <I2C_WaitOnFlagUntilTimeout+0x5e>
    {
      if (((HAL_GetTick() - Tickstart) > Timeout) || (Timeout == 0U))
 80053f2:	f7fd ffa9 	bl	8003348 <HAL_GetTick>
 80053f6:	4602      	mov	r2, r0
 80053f8:	69bb      	ldr	r3, [r7, #24]
 80053fa:	1ad3      	subs	r3, r2, r3
 80053fc:	683a      	ldr	r2, [r7, #0]
 80053fe:	429a      	cmp	r2, r3
 8005400:	d302      	bcc.n	8005408 <I2C_WaitOnFlagUntilTimeout+0x30>
 8005402:	683b      	ldr	r3, [r7, #0]
 8005404:	2b00      	cmp	r3, #0
 8005406:	d116      	bne.n	8005436 <I2C_WaitOnFlagUntilTimeout+0x5e>
      {
        hi2c->PreviousState     = I2C_STATE_NONE;
 8005408:	68fb      	ldr	r3, [r7, #12]
 800540a:	2200      	movs	r2, #0
 800540c:	631a      	str	r2, [r3, #48]	; 0x30
        hi2c->State             = HAL_I2C_STATE_READY;
 800540e:	68fb      	ldr	r3, [r7, #12]
 8005410:	2220      	movs	r2, #32
 8005412:	f883 203d 	strb.w	r2, [r3, #61]	; 0x3d
        hi2c->Mode              = HAL_I2C_MODE_NONE;
 8005416:	68fb      	ldr	r3, [r7, #12]
 8005418:	2200      	movs	r2, #0
 800541a:	f883 203e 	strb.w	r2, [r3, #62]	; 0x3e
        hi2c->ErrorCode         |= HAL_I2C_ERROR_TIMEOUT;
 800541e:	68fb      	ldr	r3, [r7, #12]
 8005420:	6c1b      	ldr	r3, [r3, #64]	; 0x40
 8005422:	f043 0220 	orr.w	r2, r3, #32
 8005426:	68fb      	ldr	r3, [r7, #12]
 8005428:	641a      	str	r2, [r3, #64]	; 0x40

        /* Process Unlocked */
        __HAL_UNLOCK(hi2c);
 800542a:	68fb      	ldr	r3, [r7, #12]
 800542c:	2200      	movs	r2, #0
 800542e:	f883 203c 	strb.w	r2, [r3, #60]	; 0x3c

        return HAL_ERROR;
 8005432:	2301      	movs	r3, #1
 8005434:	e023      	b.n	800547e <I2C_WaitOnFlagUntilTimeout+0xa6>
  while (__HAL_I2C_GET_FLAG(hi2c, Flag) == Status)
 8005436:	68bb      	ldr	r3, [r7, #8]
 8005438:	0c1b      	lsrs	r3, r3, #16
 800543a:	b2db      	uxtb	r3, r3
 800543c:	2b01      	cmp	r3, #1
 800543e:	d10d      	bne.n	800545c <I2C_WaitOnFlagUntilTimeout+0x84>
 8005440:	68fb      	ldr	r3, [r7, #12]
 8005442:	681b      	ldr	r3, [r3, #0]
 8005444:	695b      	ldr	r3, [r3, #20]
 8005446:	43da      	mvns	r2, r3
 8005448:	68bb      	ldr	r3, [r7, #8]
 800544a:	4013      	ands	r3, r2
 800544c:	b29b      	uxth	r3, r3
 800544e:	2b00      	cmp	r3, #0
 8005450:	bf0c      	ite	eq
 8005452:	2301      	moveq	r3, #1
 8005454:	2300      	movne	r3, #0
 8005456:	b2db      	uxtb	r3, r3
 8005458:	461a      	mov	r2, r3
 800545a:	e00c      	b.n	8005476 <I2C_WaitOnFlagUntilTimeout+0x9e>
 800545c:	68fb      	ldr	r3, [r7, #12]
 800545e:	681b      	ldr	r3, [r3, #0]
 8005460:	699b      	ldr	r3, [r3, #24]
 8005462:	43da      	mvns	r2, r3
 8005464:	68bb      	ldr	r3, [r7, #8]
 8005466:	4013      	ands	r3, r2
 8005468:	b29b      	uxth	r3, r3
 800546a:	2b00      	cmp	r3, #0
 800546c:	bf0c      	ite	eq
 800546e:	2301      	moveq	r3, #1
 8005470:	2300      	movne	r3, #0
 8005472:	b2db      	uxtb	r3, r3
 8005474:	461a      	mov	r2, r3
 8005476:	79fb      	ldrb	r3, [r7, #7]
 8005478:	429a      	cmp	r2, r3
 800547a:	d0b6      	beq.n	80053ea <I2C_WaitOnFlagUntilTimeout+0x12>
      }
    }
  }
  return HAL_OK;
 800547c:	2300      	movs	r3, #0
}
 800547e:	4618      	mov	r0, r3
 8005480:	3710      	adds	r7, #16
 8005482:	46bd      	mov	sp, r7
 8005484:	bd80      	pop	{r7, pc}

08005486 <I2C_WaitOnMasterAddressFlagUntilTimeout>:
  * @param  Timeout Timeout duration
  * @param  Tickstart Tick start value
  * @retval HAL status
  */
static HAL_StatusTypeDef I2C_WaitOnMasterAddressFlagUntilTimeout(I2C_HandleTypeDef *hi2c, uint32_t Flag, uint32_t Timeout, uint32_t Tickstart)
{
 8005486:	b580      	push	{r7, lr}
 8005488:	b084      	sub	sp, #16
 800548a:	af00      	add	r7, sp, #0
 800548c:	60f8      	str	r0, [r7, #12]
 800548e:	60b9      	str	r1, [r7, #8]
 8005490:	607a      	str	r2, [r7, #4]
 8005492:	603b      	str	r3, [r7, #0]
  while (__HAL_I2C_GET_FLAG(hi2c, Flag) == RESET)
 8005494:	e051      	b.n	800553a <I2C_WaitOnMasterAddressFlagUntilTimeout+0xb4>
  {
    if (__HAL_I2C_GET_FLAG(hi2c, I2C_FLAG_AF) == SET)
 8005496:	68fb      	ldr	r3, [r7, #12]
 8005498:	681b      	ldr	r3, [r3, #0]
 800549a:	695b      	ldr	r3, [r3, #20]
 800549c:	f403 6380 	and.w	r3, r3, #1024	; 0x400
 80054a0:	f5b3 6f80 	cmp.w	r3, #1024	; 0x400
 80054a4:	d123      	bne.n	80054ee <I2C_WaitOnMasterAddressFlagUntilTimeout+0x68>
    {
      /* Generate Stop */
      SET_BIT(hi2c->Instance->CR1, I2C_CR1_STOP);
 80054a6:	68fb      	ldr	r3, [r7, #12]
 80054a8:	681b      	ldr	r3, [r3, #0]
 80054aa:	681a      	ldr	r2, [r3, #0]
 80054ac:	68fb      	ldr	r3, [r7, #12]
 80054ae:	681b      	ldr	r3, [r3, #0]
 80054b0:	f442 7200 	orr.w	r2, r2, #512	; 0x200
 80054b4:	601a      	str	r2, [r3, #0]

      /* Clear AF Flag */
      __HAL_I2C_CLEAR_FLAG(hi2c, I2C_FLAG_AF);
 80054b6:	68fb      	ldr	r3, [r7, #12]
 80054b8:	681b      	ldr	r3, [r3, #0]
 80054ba:	f46f 6280 	mvn.w	r2, #1024	; 0x400
 80054be:	615a      	str	r2, [r3, #20]

      hi2c->PreviousState       = I2C_STATE_NONE;
 80054c0:	68fb      	ldr	r3, [r7, #12]
 80054c2:	2200      	movs	r2, #0
 80054c4:	631a      	str	r2, [r3, #48]	; 0x30
      hi2c->State               = HAL_I2C_STATE_READY;
 80054c6:	68fb      	ldr	r3, [r7, #12]
 80054c8:	2220      	movs	r2, #32
 80054ca:	f883 203d 	strb.w	r2, [r3, #61]	; 0x3d
      hi2c->Mode                = HAL_I2C_MODE_NONE;
 80054ce:	68fb      	ldr	r3, [r7, #12]
 80054d0:	2200      	movs	r2, #0
 80054d2:	f883 203e 	strb.w	r2, [r3, #62]	; 0x3e
      hi2c->ErrorCode           |= HAL_I2C_ERROR_AF;
 80054d6:	68fb      	ldr	r3, [r7, #12]
 80054d8:	6c1b      	ldr	r3, [r3, #64]	; 0x40
 80054da:	f043 0204 	orr.w	r2, r3, #4
 80054de:	68fb      	ldr	r3, [r7, #12]
 80054e0:	641a      	str	r2, [r3, #64]	; 0x40

      /* Process Unlocked */
      __HAL_UNLOCK(hi2c);
 80054e2:	68fb      	ldr	r3, [r7, #12]
 80054e4:	2200      	movs	r2, #0
 80054e6:	f883 203c 	strb.w	r2, [r3, #60]	; 0x3c

      return HAL_ERROR;
 80054ea:	2301      	movs	r3, #1
 80054ec:	e046      	b.n	800557c <I2C_WaitOnMasterAddressFlagUntilTimeout+0xf6>
    }

    /* Check for the Timeout */
    if (Timeout != HAL_MAX_DELAY)
 80054ee:	687b      	ldr	r3, [r7, #4]
 80054f0:	f1b3 3fff 	cmp.w	r3, #4294967295
 80054f4:	d021      	beq.n	800553a <I2C_WaitOnMasterAddressFlagUntilTimeout+0xb4>
    {
      if (((HAL_GetTick() - Tickstart) > Timeout) || (Timeout == 0U))
 80054f6:	f7fd ff27 	bl	8003348 <HAL_GetTick>
 80054fa:	4602      	mov	r2, r0
 80054fc:	683b      	ldr	r3, [r7, #0]
 80054fe:	1ad3      	subs	r3, r2, r3
 8005500:	687a      	ldr	r2, [r7, #4]
 8005502:	429a      	cmp	r2, r3
 8005504:	d302      	bcc.n	800550c <I2C_WaitOnMasterAddressFlagUntilTimeout+0x86>
 8005506:	687b      	ldr	r3, [r7, #4]
 8005508:	2b00      	cmp	r3, #0
 800550a:	d116      	bne.n	800553a <I2C_WaitOnMasterAddressFlagUntilTimeout+0xb4>
      {
        hi2c->PreviousState       = I2C_STATE_NONE;
 800550c:	68fb      	ldr	r3, [r7, #12]
 800550e:	2200      	movs	r2, #0
 8005510:	631a      	str	r2, [r3, #48]	; 0x30
        hi2c->State               = HAL_I2C_STATE_READY;
 8005512:	68fb      	ldr	r3, [r7, #12]
 8005514:	2220      	movs	r2, #32
 8005516:	f883 203d 	strb.w	r2, [r3, #61]	; 0x3d
        hi2c->Mode                = HAL_I2C_MODE_NONE;
 800551a:	68fb      	ldr	r3, [r7, #12]
 800551c:	2200      	movs	r2, #0
 800551e:	f883 203e 	strb.w	r2, [r3, #62]	; 0x3e
        hi2c->ErrorCode           |= HAL_I2C_ERROR_TIMEOUT;
 8005522:	68fb      	ldr	r3, [r7, #12]
 8005524:	6c1b      	ldr	r3, [r3, #64]	; 0x40
 8005526:	f043 0220 	orr.w	r2, r3, #32
 800552a:	68fb      	ldr	r3, [r7, #12]
 800552c:	641a      	str	r2, [r3, #64]	; 0x40

        /* Process Unlocked */
        __HAL_UNLOCK(hi2c);
 800552e:	68fb      	ldr	r3, [r7, #12]
 8005530:	2200      	movs	r2, #0
 8005532:	f883 203c 	strb.w	r2, [r3, #60]	; 0x3c

        return HAL_ERROR;
 8005536:	2301      	movs	r3, #1
 8005538:	e020      	b.n	800557c <I2C_WaitOnMasterAddressFlagUntilTimeout+0xf6>
  while (__HAL_I2C_GET_FLAG(hi2c, Flag) == RESET)
 800553a:	68bb      	ldr	r3, [r7, #8]
 800553c:	0c1b      	lsrs	r3, r3, #16
 800553e:	b2db      	uxtb	r3, r3
 8005540:	2b01      	cmp	r3, #1
 8005542:	d10c      	bne.n	800555e <I2C_WaitOnMasterAddressFlagUntilTimeout+0xd8>
 8005544:	68fb      	ldr	r3, [r7, #12]
 8005546:	681b      	ldr	r3, [r3, #0]
 8005548:	695b      	ldr	r3, [r3, #20]
 800554a:	43da      	mvns	r2, r3
 800554c:	68bb      	ldr	r3, [r7, #8]
 800554e:	4013      	ands	r3, r2
 8005550:	b29b      	uxth	r3, r3
 8005552:	2b00      	cmp	r3, #0
 8005554:	bf14      	ite	ne
 8005556:	2301      	movne	r3, #1
 8005558:	2300      	moveq	r3, #0
 800555a:	b2db      	uxtb	r3, r3
 800555c:	e00b      	b.n	8005576 <I2C_WaitOnMasterAddressFlagUntilTimeout+0xf0>
 800555e:	68fb      	ldr	r3, [r7, #12]
 8005560:	681b      	ldr	r3, [r3, #0]
 8005562:	699b      	ldr	r3, [r3, #24]
 8005564:	43da      	mvns	r2, r3
 8005566:	68bb      	ldr	r3, [r7, #8]
 8005568:	4013      	ands	r3, r2
 800556a:	b29b      	uxth	r3, r3
 800556c:	2b00      	cmp	r3, #0
 800556e:	bf14      	ite	ne
 8005570:	2301      	movne	r3, #1
 8005572:	2300      	moveq	r3, #0
 8005574:	b2db      	uxtb	r3, r3
 8005576:	2b00      	cmp	r3, #0
 8005578:	d18d      	bne.n	8005496 <I2C_WaitOnMasterAddressFlagUntilTimeout+0x10>
      }
    }
  }
  return HAL_OK;
 800557a:	2300      	movs	r3, #0
}
 800557c:	4618      	mov	r0, r3
 800557e:	3710      	adds	r7, #16
 8005580:	46bd      	mov	sp, r7
 8005582:	bd80      	pop	{r7, pc}

08005584 <I2C_WaitOnTXEFlagUntilTimeout>:
  * @param  Timeout Timeout duration
  * @param  Tickstart Tick start value
  * @retval HAL status
  */
static HAL_StatusTypeDef I2C_WaitOnTXEFlagUntilTimeout(I2C_HandleTypeDef *hi2c, uint32_t Timeout, uint32_t Tickstart)
{
 8005584:	b580      	push	{r7, lr}
 8005586:	b084      	sub	sp, #16
 8005588:	af00      	add	r7, sp, #0
 800558a:	60f8      	str	r0, [r7, #12]
 800558c:	60b9      	str	r1, [r7, #8]
 800558e:	607a      	str	r2, [r7, #4]
  while (__HAL_I2C_GET_FLAG(hi2c, I2C_FLAG_TXE) == RESET)
 8005590:	e02d      	b.n	80055ee <I2C_WaitOnTXEFlagUntilTimeout+0x6a>
  {
    /* Check if a NACK is detected */
    if (I2C_IsAcknowledgeFailed(hi2c) != HAL_OK)
 8005592:	68f8      	ldr	r0, [r7, #12]
 8005594:	f000 f878 	bl	8005688 <I2C_IsAcknowledgeFailed>
 8005598:	4603      	mov	r3, r0
 800559a:	2b00      	cmp	r3, #0
 800559c:	d001      	beq.n	80055a2 <I2C_WaitOnTXEFlagUntilTimeout+0x1e>
    {
      return HAL_ERROR;
 800559e:	2301      	movs	r3, #1
 80055a0:	e02d      	b.n	80055fe <I2C_WaitOnTXEFlagUntilTimeout+0x7a>
    }

    /* Check for the Timeout */
    if (Timeout != HAL_MAX_DELAY)
 80055a2:	68bb      	ldr	r3, [r7, #8]
 80055a4:	f1b3 3fff 	cmp.w	r3, #4294967295
 80055a8:	d021      	beq.n	80055ee <I2C_WaitOnTXEFlagUntilTimeout+0x6a>
    {
      if (((HAL_GetTick() - Tickstart) > Timeout) || (Timeout == 0U))
 80055aa:	f7fd fecd 	bl	8003348 <HAL_GetTick>
 80055ae:	4602      	mov	r2, r0
 80055b0:	687b      	ldr	r3, [r7, #4]
 80055b2:	1ad3      	subs	r3, r2, r3
 80055b4:	68ba      	ldr	r2, [r7, #8]
 80055b6:	429a      	cmp	r2, r3
 80055b8:	d302      	bcc.n	80055c0 <I2C_WaitOnTXEFlagUntilTimeout+0x3c>
 80055ba:	68bb      	ldr	r3, [r7, #8]
 80055bc:	2b00      	cmp	r3, #0
 80055be:	d116      	bne.n	80055ee <I2C_WaitOnTXEFlagUntilTimeout+0x6a>
      {
        hi2c->PreviousState       = I2C_STATE_NONE;
 80055c0:	68fb      	ldr	r3, [r7, #12]
 80055c2:	2200      	movs	r2, #0
 80055c4:	631a      	str	r2, [r3, #48]	; 0x30
        hi2c->State               = HAL_I2C_STATE_READY;
 80055c6:	68fb      	ldr	r3, [r7, #12]
 80055c8:	2220      	movs	r2, #32
 80055ca:	f883 203d 	strb.w	r2, [r3, #61]	; 0x3d
        hi2c->Mode                = HAL_I2C_MODE_NONE;
 80055ce:	68fb      	ldr	r3, [r7, #12]
 80055d0:	2200      	movs	r2, #0
 80055d2:	f883 203e 	strb.w	r2, [r3, #62]	; 0x3e
        hi2c->ErrorCode           |= HAL_I2C_ERROR_TIMEOUT;
 80055d6:	68fb      	ldr	r3, [r7, #12]
 80055d8:	6c1b      	ldr	r3, [r3, #64]	; 0x40
 80055da:	f043 0220 	orr.w	r2, r3, #32
 80055de:	68fb      	ldr	r3, [r7, #12]
 80055e0:	641a      	str	r2, [r3, #64]	; 0x40

        /* Process Unlocked */
        __HAL_UNLOCK(hi2c);
 80055e2:	68fb      	ldr	r3, [r7, #12]
 80055e4:	2200      	movs	r2, #0
 80055e6:	f883 203c 	strb.w	r2, [r3, #60]	; 0x3c

        return HAL_ERROR;
 80055ea:	2301      	movs	r3, #1
 80055ec:	e007      	b.n	80055fe <I2C_WaitOnTXEFlagUntilTimeout+0x7a>
  while (__HAL_I2C_GET_FLAG(hi2c, I2C_FLAG_TXE) == RESET)
 80055ee:	68fb      	ldr	r3, [r7, #12]
 80055f0:	681b      	ldr	r3, [r3, #0]
 80055f2:	695b      	ldr	r3, [r3, #20]
 80055f4:	f003 0380 	and.w	r3, r3, #128	; 0x80
 80055f8:	2b80      	cmp	r3, #128	; 0x80
 80055fa:	d1ca      	bne.n	8005592 <I2C_WaitOnTXEFlagUntilTimeout+0xe>
      }
    }
  }
  return HAL_OK;
 80055fc:	2300      	movs	r3, #0
}
 80055fe:	4618      	mov	r0, r3
 8005600:	3710      	adds	r7, #16
 8005602:	46bd      	mov	sp, r7
 8005604:	bd80      	pop	{r7, pc}

08005606 <I2C_WaitOnBTFFlagUntilTimeout>:
  * @param  Timeout Timeout duration
  * @param  Tickstart Tick start value
  * @retval HAL status
  */
static HAL_StatusTypeDef I2C_WaitOnBTFFlagUntilTimeout(I2C_HandleTypeDef *hi2c, uint32_t Timeout, uint32_t Tickstart)
{
 8005606:	b580      	push	{r7, lr}
 8005608:	b084      	sub	sp, #16
 800560a:	af00      	add	r7, sp, #0
 800560c:	60f8      	str	r0, [r7, #12]
 800560e:	60b9      	str	r1, [r7, #8]
 8005610:	607a      	str	r2, [r7, #4]
  while (__HAL_I2C_GET_FLAG(hi2c, I2C_FLAG_BTF) == RESET)
 8005612:	e02d      	b.n	8005670 <I2C_WaitOnBTFFlagUntilTimeout+0x6a>
  {
    /* Check if a NACK is detected */
    if (I2C_IsAcknowledgeFailed(hi2c) != HAL_OK)
 8005614:	68f8      	ldr	r0, [r7, #12]
 8005616:	f000 f837 	bl	8005688 <I2C_IsAcknowledgeFailed>
 800561a:	4603      	mov	r3, r0
 800561c:	2b00      	cmp	r3, #0
 800561e:	d001      	beq.n	8005624 <I2C_WaitOnBTFFlagUntilTimeout+0x1e>
    {
      return HAL_ERROR;
 8005620:	2301      	movs	r3, #1
 8005622:	e02d      	b.n	8005680 <I2C_WaitOnBTFFlagUntilTimeout+0x7a>
    }

    /* Check for the Timeout */
    if (Timeout != HAL_MAX_DELAY)
 8005624:	68bb      	ldr	r3, [r7, #8]
 8005626:	f1b3 3fff 	cmp.w	r3, #4294967295
 800562a:	d021      	beq.n	8005670 <I2C_WaitOnBTFFlagUntilTimeout+0x6a>
    {
      if (((HAL_GetTick() - Tickstart) > Timeout) || (Timeout == 0U))
 800562c:	f7fd fe8c 	bl	8003348 <HAL_GetTick>
 8005630:	4602      	mov	r2, r0
 8005632:	687b      	ldr	r3, [r7, #4]
 8005634:	1ad3      	subs	r3, r2, r3
 8005636:	68ba      	ldr	r2, [r7, #8]
 8005638:	429a      	cmp	r2, r3
 800563a:	d302      	bcc.n	8005642 <I2C_WaitOnBTFFlagUntilTimeout+0x3c>
 800563c:	68bb      	ldr	r3, [r7, #8]
 800563e:	2b00      	cmp	r3, #0
 8005640:	d116      	bne.n	8005670 <I2C_WaitOnBTFFlagUntilTimeout+0x6a>
      {
        hi2c->PreviousState       = I2C_STATE_NONE;
 8005642:	68fb      	ldr	r3, [r7, #12]
 8005644:	2200      	movs	r2, #0
 8005646:	631a      	str	r2, [r3, #48]	; 0x30
        hi2c->State               = HAL_I2C_STATE_READY;
 8005648:	68fb      	ldr	r3, [r7, #12]
 800564a:	2220      	movs	r2, #32
 800564c:	f883 203d 	strb.w	r2, [r3, #61]	; 0x3d
        hi2c->Mode                = HAL_I2C_MODE_NONE;
 8005650:	68fb      	ldr	r3, [r7, #12]
 8005652:	2200      	movs	r2, #0
 8005654:	f883 203e 	strb.w	r2, [r3, #62]	; 0x3e
        hi2c->ErrorCode           |= HAL_I2C_ERROR_TIMEOUT;
 8005658:	68fb      	ldr	r3, [r7, #12]
 800565a:	6c1b      	ldr	r3, [r3, #64]	; 0x40
 800565c:	f043 0220 	orr.w	r2, r3, #32
 8005660:	68fb      	ldr	r3, [r7, #12]
 8005662:	641a      	str	r2, [r3, #64]	; 0x40

        /* Process Unlocked */
        __HAL_UNLOCK(hi2c);
 8005664:	68fb      	ldr	r3, [r7, #12]
 8005666:	2200      	movs	r2, #0
 8005668:	f883 203c 	strb.w	r2, [r3, #60]	; 0x3c

        return HAL_ERROR;
 800566c:	2301      	movs	r3, #1
 800566e:	e007      	b.n	8005680 <I2C_WaitOnBTFFlagUntilTimeout+0x7a>
  while (__HAL_I2C_GET_FLAG(hi2c, I2C_FLAG_BTF) == RESET)
 8005670:	68fb      	ldr	r3, [r7, #12]
 8005672:	681b      	ldr	r3, [r3, #0]
 8005674:	695b      	ldr	r3, [r3, #20]
 8005676:	f003 0304 	and.w	r3, r3, #4
 800567a:	2b04      	cmp	r3, #4
 800567c:	d1ca      	bne.n	8005614 <I2C_WaitOnBTFFlagUntilTimeout+0xe>
      }
    }
  }
  return HAL_OK;
 800567e:	2300      	movs	r3, #0
}
 8005680:	4618      	mov	r0, r3
 8005682:	3710      	adds	r7, #16
 8005684:	46bd      	mov	sp, r7
 8005686:	bd80      	pop	{r7, pc}

08005688 <I2C_IsAcknowledgeFailed>:
  * @param  hi2c Pointer to a I2C_HandleTypeDef structure that contains
  *                the configuration information for the specified I2C.
  * @retval HAL status
  */
static HAL_StatusTypeDef I2C_IsAcknowledgeFailed(I2C_HandleTypeDef *hi2c)
{
 8005688:	b480      	push	{r7}
 800568a:	b083      	sub	sp, #12
 800568c:	af00      	add	r7, sp, #0
 800568e:	6078      	str	r0, [r7, #4]
  if (__HAL_I2C_GET_FLAG(hi2c, I2C_FLAG_AF) == SET)
 8005690:	687b      	ldr	r3, [r7, #4]
 8005692:	681b      	ldr	r3, [r3, #0]
 8005694:	695b      	ldr	r3, [r3, #20]
 8005696:	f403 6380 	and.w	r3, r3, #1024	; 0x400
 800569a:	f5b3 6f80 	cmp.w	r3, #1024	; 0x400
 800569e:	d11b      	bne.n	80056d8 <I2C_IsAcknowledgeFailed+0x50>
  {
    /* Clear NACKF Flag */
    __HAL_I2C_CLEAR_FLAG(hi2c, I2C_FLAG_AF);
 80056a0:	687b      	ldr	r3, [r7, #4]
 80056a2:	681b      	ldr	r3, [r3, #0]
 80056a4:	f46f 6280 	mvn.w	r2, #1024	; 0x400
 80056a8:	615a      	str	r2, [r3, #20]

    hi2c->PreviousState       = I2C_STATE_NONE;
 80056aa:	687b      	ldr	r3, [r7, #4]
 80056ac:	2200      	movs	r2, #0
 80056ae:	631a      	str	r2, [r3, #48]	; 0x30
    hi2c->State               = HAL_I2C_STATE_READY;
 80056b0:	687b      	ldr	r3, [r7, #4]
 80056b2:	2220      	movs	r2, #32
 80056b4:	f883 203d 	strb.w	r2, [r3, #61]	; 0x3d
    hi2c->Mode                = HAL_I2C_MODE_NONE;
 80056b8:	687b      	ldr	r3, [r7, #4]
 80056ba:	2200      	movs	r2, #0
 80056bc:	f883 203e 	strb.w	r2, [r3, #62]	; 0x3e
    hi2c->ErrorCode           |= HAL_I2C_ERROR_AF;
 80056c0:	687b      	ldr	r3, [r7, #4]
 80056c2:	6c1b      	ldr	r3, [r3, #64]	; 0x40
 80056c4:	f043 0204 	orr.w	r2, r3, #4
 80056c8:	687b      	ldr	r3, [r7, #4]
 80056ca:	641a      	str	r2, [r3, #64]	; 0x40

    /* Process Unlocked */
    __HAL_UNLOCK(hi2c);
 80056cc:	687b      	ldr	r3, [r7, #4]
 80056ce:	2200      	movs	r2, #0
 80056d0:	f883 203c 	strb.w	r2, [r3, #60]	; 0x3c

    return HAL_ERROR;
 80056d4:	2301      	movs	r3, #1
 80056d6:	e000      	b.n	80056da <I2C_IsAcknowledgeFailed+0x52>
  }
  return HAL_OK;
 80056d8:	2300      	movs	r3, #0
}
 80056da:	4618      	mov	r0, r3
 80056dc:	370c      	adds	r7, #12
 80056de:	46bd      	mov	sp, r7
 80056e0:	bc80      	pop	{r7}
 80056e2:	4770      	bx	lr

080056e4 <HAL_RCC_OscConfig>:
  *         supported by this macro. User should request a transition to HSE Off
  *         first and then HSE On or HSE Bypass.
  * @retval HAL status
  */
HAL_StatusTypeDef HAL_RCC_OscConfig(RCC_OscInitTypeDef  *RCC_OscInitStruct)
{
 80056e4:	b580      	push	{r7, lr}
 80056e6:	b086      	sub	sp, #24
 80056e8:	af00      	add	r7, sp, #0
 80056ea:	6078      	str	r0, [r7, #4]
  uint32_t tickstart;
  uint32_t pll_config;

  /* Check Null pointer */
  if (RCC_OscInitStruct == NULL)
 80056ec:	687b      	ldr	r3, [r7, #4]
 80056ee:	2b00      	cmp	r3, #0
 80056f0:	d101      	bne.n	80056f6 <HAL_RCC_OscConfig+0x12>
  {
    return HAL_ERROR;
 80056f2:	2301      	movs	r3, #1
 80056f4:	e26c      	b.n	8005bd0 <HAL_RCC_OscConfig+0x4ec>

  /* Check the parameters */
  assert_param(IS_RCC_OSCILLATORTYPE(RCC_OscInitStruct->OscillatorType));

  /*------------------------------- HSE Configuration ------------------------*/
  if (((RCC_OscInitStruct->OscillatorType) & RCC_OSCILLATORTYPE_HSE) == RCC_OSCILLATORTYPE_HSE)
 80056f6:	687b      	ldr	r3, [r7, #4]
 80056f8:	681b      	ldr	r3, [r3, #0]
 80056fa:	f003 0301 	and.w	r3, r3, #1
 80056fe:	2b00      	cmp	r3, #0
 8005700:	f000 8087 	beq.w	8005812 <HAL_RCC_OscConfig+0x12e>
  {
    /* Check the parameters */
    assert_param(IS_RCC_HSE(RCC_OscInitStruct->HSEState));

    /* When the HSE is used as system clock or clock source for PLL in these cases it is not allowed to be disabled */
    if ((__HAL_RCC_GET_SYSCLK_SOURCE() == RCC_SYSCLKSOURCE_STATUS_HSE)
 8005704:	4b92      	ldr	r3, [pc, #584]	; (8005950 <HAL_RCC_OscConfig+0x26c>)
 8005706:	685b      	ldr	r3, [r3, #4]
 8005708:	f003 030c 	and.w	r3, r3, #12
 800570c:	2b04      	cmp	r3, #4
 800570e:	d00c      	beq.n	800572a <HAL_RCC_OscConfig+0x46>
        || ((__HAL_RCC_GET_SYSCLK_SOURCE() == RCC_SYSCLKSOURCE_STATUS_PLLCLK) && (__HAL_RCC_GET_PLL_OSCSOURCE() == RCC_PLLSOURCE_HSE)))
 8005710:	4b8f      	ldr	r3, [pc, #572]	; (8005950 <HAL_RCC_OscConfig+0x26c>)
 8005712:	685b      	ldr	r3, [r3, #4]
 8005714:	f003 030c 	and.w	r3, r3, #12
 8005718:	2b08      	cmp	r3, #8
 800571a:	d112      	bne.n	8005742 <HAL_RCC_OscConfig+0x5e>
 800571c:	4b8c      	ldr	r3, [pc, #560]	; (8005950 <HAL_RCC_OscConfig+0x26c>)
 800571e:	685b      	ldr	r3, [r3, #4]
 8005720:	f403 3380 	and.w	r3, r3, #65536	; 0x10000
 8005724:	f5b3 3f80 	cmp.w	r3, #65536	; 0x10000
 8005728:	d10b      	bne.n	8005742 <HAL_RCC_OscConfig+0x5e>
    {
      if ((__HAL_RCC_GET_FLAG(RCC_FLAG_HSERDY) != RESET) && (RCC_OscInitStruct->HSEState == RCC_HSE_OFF))
 800572a:	4b89      	ldr	r3, [pc, #548]	; (8005950 <HAL_RCC_OscConfig+0x26c>)
 800572c:	681b      	ldr	r3, [r3, #0]
 800572e:	f403 3300 	and.w	r3, r3, #131072	; 0x20000
 8005732:	2b00      	cmp	r3, #0
 8005734:	d06c      	beq.n	8005810 <HAL_RCC_OscConfig+0x12c>
 8005736:	687b      	ldr	r3, [r7, #4]
 8005738:	685b      	ldr	r3, [r3, #4]
 800573a:	2b00      	cmp	r3, #0
 800573c:	d168      	bne.n	8005810 <HAL_RCC_OscConfig+0x12c>
      {
        return HAL_ERROR;
 800573e:	2301      	movs	r3, #1
 8005740:	e246      	b.n	8005bd0 <HAL_RCC_OscConfig+0x4ec>
      }
    }
    else
    {
      /* Set the new HSE configuration ---------------------------------------*/
      __HAL_RCC_HSE_CONFIG(RCC_OscInitStruct->HSEState);
 8005742:	687b      	ldr	r3, [r7, #4]
 8005744:	685b      	ldr	r3, [r3, #4]
 8005746:	f5b3 3f80 	cmp.w	r3, #65536	; 0x10000
 800574a:	d106      	bne.n	800575a <HAL_RCC_OscConfig+0x76>
 800574c:	4b80      	ldr	r3, [pc, #512]	; (8005950 <HAL_RCC_OscConfig+0x26c>)
 800574e:	681b      	ldr	r3, [r3, #0]
 8005750:	4a7f      	ldr	r2, [pc, #508]	; (8005950 <HAL_RCC_OscConfig+0x26c>)
 8005752:	f443 3380 	orr.w	r3, r3, #65536	; 0x10000
 8005756:	6013      	str	r3, [r2, #0]
 8005758:	e02e      	b.n	80057b8 <HAL_RCC_OscConfig+0xd4>
 800575a:	687b      	ldr	r3, [r7, #4]
 800575c:	685b      	ldr	r3, [r3, #4]
 800575e:	2b00      	cmp	r3, #0
 8005760:	d10c      	bne.n	800577c <HAL_RCC_OscConfig+0x98>
 8005762:	4b7b      	ldr	r3, [pc, #492]	; (8005950 <HAL_RCC_OscConfig+0x26c>)
 8005764:	681b      	ldr	r3, [r3, #0]
 8005766:	4a7a      	ldr	r2, [pc, #488]	; (8005950 <HAL_RCC_OscConfig+0x26c>)
 8005768:	f423 3380 	bic.w	r3, r3, #65536	; 0x10000
 800576c:	6013      	str	r3, [r2, #0]
 800576e:	4b78      	ldr	r3, [pc, #480]	; (8005950 <HAL_RCC_OscConfig+0x26c>)
 8005770:	681b      	ldr	r3, [r3, #0]
 8005772:	4a77      	ldr	r2, [pc, #476]	; (8005950 <HAL_RCC_OscConfig+0x26c>)
 8005774:	f423 2380 	bic.w	r3, r3, #262144	; 0x40000
 8005778:	6013      	str	r3, [r2, #0]
 800577a:	e01d      	b.n	80057b8 <HAL_RCC_OscConfig+0xd4>
 800577c:	687b      	ldr	r3, [r7, #4]
 800577e:	685b      	ldr	r3, [r3, #4]
 8005780:	f5b3 2fa0 	cmp.w	r3, #327680	; 0x50000
 8005784:	d10c      	bne.n	80057a0 <HAL_RCC_OscConfig+0xbc>
 8005786:	4b72      	ldr	r3, [pc, #456]	; (8005950 <HAL_RCC_OscConfig+0x26c>)
 8005788:	681b      	ldr	r3, [r3, #0]
 800578a:	4a71      	ldr	r2, [pc, #452]	; (8005950 <HAL_RCC_OscConfig+0x26c>)
 800578c:	f443 2380 	orr.w	r3, r3, #262144	; 0x40000
 8005790:	6013      	str	r3, [r2, #0]
 8005792:	4b6f      	ldr	r3, [pc, #444]	; (8005950 <HAL_RCC_OscConfig+0x26c>)
 8005794:	681b      	ldr	r3, [r3, #0]
 8005796:	4a6e      	ldr	r2, [pc, #440]	; (8005950 <HAL_RCC_OscConfig+0x26c>)
 8005798:	f443 3380 	orr.w	r3, r3, #65536	; 0x10000
 800579c:	6013      	str	r3, [r2, #0]
 800579e:	e00b      	b.n	80057b8 <HAL_RCC_OscConfig+0xd4>
 80057a0:	4b6b      	ldr	r3, [pc, #428]	; (8005950 <HAL_RCC_OscConfig+0x26c>)
 80057a2:	681b      	ldr	r3, [r3, #0]
 80057a4:	4a6a      	ldr	r2, [pc, #424]	; (8005950 <HAL_RCC_OscConfig+0x26c>)
 80057a6:	f423 3380 	bic.w	r3, r3, #65536	; 0x10000
 80057aa:	6013      	str	r3, [r2, #0]
 80057ac:	4b68      	ldr	r3, [pc, #416]	; (8005950 <HAL_RCC_OscConfig+0x26c>)
 80057ae:	681b      	ldr	r3, [r3, #0]
 80057b0:	4a67      	ldr	r2, [pc, #412]	; (8005950 <HAL_RCC_OscConfig+0x26c>)
 80057b2:	f423 2380 	bic.w	r3, r3, #262144	; 0x40000
 80057b6:	6013      	str	r3, [r2, #0]


      /* Check the HSE State */
      if (RCC_OscInitStruct->HSEState != RCC_HSE_OFF)
 80057b8:	687b      	ldr	r3, [r7, #4]
 80057ba:	685b      	ldr	r3, [r3, #4]
 80057bc:	2b00      	cmp	r3, #0
 80057be:	d013      	beq.n	80057e8 <HAL_RCC_OscConfig+0x104>
      {
        /* Get Start Tick */
        tickstart = HAL_GetTick();
 80057c0:	f7fd fdc2 	bl	8003348 <HAL_GetTick>
 80057c4:	6138      	str	r0, [r7, #16]

        /* Wait till HSE is ready */
        while (__HAL_RCC_GET_FLAG(RCC_FLAG_HSERDY) == RESET)
 80057c6:	e008      	b.n	80057da <HAL_RCC_OscConfig+0xf6>
        {
          if ((HAL_GetTick() - tickstart) > HSE_TIMEOUT_VALUE)
 80057c8:	f7fd fdbe 	bl	8003348 <HAL_GetTick>
 80057cc:	4602      	mov	r2, r0
 80057ce:	693b      	ldr	r3, [r7, #16]
 80057d0:	1ad3      	subs	r3, r2, r3
 80057d2:	2b64      	cmp	r3, #100	; 0x64
 80057d4:	d901      	bls.n	80057da <HAL_RCC_OscConfig+0xf6>
          {
            return HAL_TIMEOUT;
 80057d6:	2303      	movs	r3, #3
 80057d8:	e1fa      	b.n	8005bd0 <HAL_RCC_OscConfig+0x4ec>
        while (__HAL_RCC_GET_FLAG(RCC_FLAG_HSERDY) == RESET)
 80057da:	4b5d      	ldr	r3, [pc, #372]	; (8005950 <HAL_RCC_OscConfig+0x26c>)
 80057dc:	681b      	ldr	r3, [r3, #0]
 80057de:	f403 3300 	and.w	r3, r3, #131072	; 0x20000
 80057e2:	2b00      	cmp	r3, #0
 80057e4:	d0f0      	beq.n	80057c8 <HAL_RCC_OscConfig+0xe4>
 80057e6:	e014      	b.n	8005812 <HAL_RCC_OscConfig+0x12e>
        }
      }
      else
      {
        /* Get Start Tick */
        tickstart = HAL_GetTick();
 80057e8:	f7fd fdae 	bl	8003348 <HAL_GetTick>
 80057ec:	6138      	str	r0, [r7, #16]

        /* Wait till HSE is disabled */
        while (__HAL_RCC_GET_FLAG(RCC_FLAG_HSERDY) != RESET)
 80057ee:	e008      	b.n	8005802 <HAL_RCC_OscConfig+0x11e>
        {
          if ((HAL_GetTick() - tickstart) > HSE_TIMEOUT_VALUE)
 80057f0:	f7fd fdaa 	bl	8003348 <HAL_GetTick>
 80057f4:	4602      	mov	r2, r0
 80057f6:	693b      	ldr	r3, [r7, #16]
 80057f8:	1ad3      	subs	r3, r2, r3
 80057fa:	2b64      	cmp	r3, #100	; 0x64
 80057fc:	d901      	bls.n	8005802 <HAL_RCC_OscConfig+0x11e>
          {
            return HAL_TIMEOUT;
 80057fe:	2303      	movs	r3, #3
 8005800:	e1e6      	b.n	8005bd0 <HAL_RCC_OscConfig+0x4ec>
        while (__HAL_RCC_GET_FLAG(RCC_FLAG_HSERDY) != RESET)
 8005802:	4b53      	ldr	r3, [pc, #332]	; (8005950 <HAL_RCC_OscConfig+0x26c>)
 8005804:	681b      	ldr	r3, [r3, #0]
 8005806:	f403 3300 	and.w	r3, r3, #131072	; 0x20000
 800580a:	2b00      	cmp	r3, #0
 800580c:	d1f0      	bne.n	80057f0 <HAL_RCC_OscConfig+0x10c>
 800580e:	e000      	b.n	8005812 <HAL_RCC_OscConfig+0x12e>
      if ((__HAL_RCC_GET_FLAG(RCC_FLAG_HSERDY) != RESET) && (RCC_OscInitStruct->HSEState == RCC_HSE_OFF))
 8005810:	bf00      	nop
        }
      }
    }
  }
  /*----------------------------- HSI Configuration --------------------------*/
  if (((RCC_OscInitStruct->OscillatorType) & RCC_OSCILLATORTYPE_HSI) == RCC_OSCILLATORTYPE_HSI)
 8005812:	687b      	ldr	r3, [r7, #4]
 8005814:	681b      	ldr	r3, [r3, #0]
 8005816:	f003 0302 	and.w	r3, r3, #2
 800581a:	2b00      	cmp	r3, #0
 800581c:	d063      	beq.n	80058e6 <HAL_RCC_OscConfig+0x202>
    /* Check the parameters */
    assert_param(IS_RCC_HSI(RCC_OscInitStruct->HSIState));
    assert_param(IS_RCC_CALIBRATION_VALUE(RCC_OscInitStruct->HSICalibrationValue));

    /* Check if HSI is used as system clock or as PLL source when PLL is selected as system clock */
    if ((__HAL_RCC_GET_SYSCLK_SOURCE() == RCC_SYSCLKSOURCE_STATUS_HSI)
 800581e:	4b4c      	ldr	r3, [pc, #304]	; (8005950 <HAL_RCC_OscConfig+0x26c>)
 8005820:	685b      	ldr	r3, [r3, #4]
 8005822:	f003 030c 	and.w	r3, r3, #12
 8005826:	2b00      	cmp	r3, #0
 8005828:	d00b      	beq.n	8005842 <HAL_RCC_OscConfig+0x15e>
        || ((__HAL_RCC_GET_SYSCLK_SOURCE() == RCC_SYSCLKSOURCE_STATUS_PLLCLK) && (__HAL_RCC_GET_PLL_OSCSOURCE() == RCC_PLLSOURCE_HSI_DIV2)))
 800582a:	4b49      	ldr	r3, [pc, #292]	; (8005950 <HAL_RCC_OscConfig+0x26c>)
 800582c:	685b      	ldr	r3, [r3, #4]
 800582e:	f003 030c 	and.w	r3, r3, #12
 8005832:	2b08      	cmp	r3, #8
 8005834:	d11c      	bne.n	8005870 <HAL_RCC_OscConfig+0x18c>
 8005836:	4b46      	ldr	r3, [pc, #280]	; (8005950 <HAL_RCC_OscConfig+0x26c>)
 8005838:	685b      	ldr	r3, [r3, #4]
 800583a:	f403 3380 	and.w	r3, r3, #65536	; 0x10000
 800583e:	2b00      	cmp	r3, #0
 8005840:	d116      	bne.n	8005870 <HAL_RCC_OscConfig+0x18c>
    {
      /* When HSI is used as system clock it will not disabled */
      if ((__HAL_RCC_GET_FLAG(RCC_FLAG_HSIRDY) != RESET) && (RCC_OscInitStruct->HSIState != RCC_HSI_ON))
 8005842:	4b43      	ldr	r3, [pc, #268]	; (8005950 <HAL_RCC_OscConfig+0x26c>)
 8005844:	681b      	ldr	r3, [r3, #0]
 8005846:	f003 0302 	and.w	r3, r3, #2
 800584a:	2b00      	cmp	r3, #0
 800584c:	d005      	beq.n	800585a <HAL_RCC_OscConfig+0x176>
 800584e:	687b      	ldr	r3, [r7, #4]
 8005850:	691b      	ldr	r3, [r3, #16]
 8005852:	2b01      	cmp	r3, #1
 8005854:	d001      	beq.n	800585a <HAL_RCC_OscConfig+0x176>
      {
        return HAL_ERROR;
 8005856:	2301      	movs	r3, #1
 8005858:	e1ba      	b.n	8005bd0 <HAL_RCC_OscConfig+0x4ec>
      }
      /* Otherwise, just the calibration is allowed */
      else
      {
        /* Adjusts the Internal High Speed oscillator (HSI) calibration value.*/
        __HAL_RCC_HSI_CALIBRATIONVALUE_ADJUST(RCC_OscInitStruct->HSICalibrationValue);
 800585a:	4b3d      	ldr	r3, [pc, #244]	; (8005950 <HAL_RCC_OscConfig+0x26c>)
 800585c:	681b      	ldr	r3, [r3, #0]
 800585e:	f023 02f8 	bic.w	r2, r3, #248	; 0xf8
 8005862:	687b      	ldr	r3, [r7, #4]
 8005864:	695b      	ldr	r3, [r3, #20]
 8005866:	00db      	lsls	r3, r3, #3
 8005868:	4939      	ldr	r1, [pc, #228]	; (8005950 <HAL_RCC_OscConfig+0x26c>)
 800586a:	4313      	orrs	r3, r2
 800586c:	600b      	str	r3, [r1, #0]
      if ((__HAL_RCC_GET_FLAG(RCC_FLAG_HSIRDY) != RESET) && (RCC_OscInitStruct->HSIState != RCC_HSI_ON))
 800586e:	e03a      	b.n	80058e6 <HAL_RCC_OscConfig+0x202>
      }
    }
    else
    {
      /* Check the HSI State */
      if (RCC_OscInitStruct->HSIState != RCC_HSI_OFF)
 8005870:	687b      	ldr	r3, [r7, #4]
 8005872:	691b      	ldr	r3, [r3, #16]
 8005874:	2b00      	cmp	r3, #0
 8005876:	d020      	beq.n	80058ba <HAL_RCC_OscConfig+0x1d6>
      {
        /* Enable the Internal High Speed oscillator (HSI). */
        __HAL_RCC_HSI_ENABLE();
 8005878:	4b36      	ldr	r3, [pc, #216]	; (8005954 <HAL_RCC_OscConfig+0x270>)
 800587a:	2201      	movs	r2, #1
 800587c:	601a      	str	r2, [r3, #0]

        /* Get Start Tick */
        tickstart = HAL_GetTick();
 800587e:	f7fd fd63 	bl	8003348 <HAL_GetTick>
 8005882:	6138      	str	r0, [r7, #16]

        /* Wait till HSI is ready */
        while (__HAL_RCC_GET_FLAG(RCC_FLAG_HSIRDY) == RESET)
 8005884:	e008      	b.n	8005898 <HAL_RCC_OscConfig+0x1b4>
        {
          if ((HAL_GetTick() - tickstart) > HSI_TIMEOUT_VALUE)
 8005886:	f7fd fd5f 	bl	8003348 <HAL_GetTick>
 800588a:	4602      	mov	r2, r0
 800588c:	693b      	ldr	r3, [r7, #16]
 800588e:	1ad3      	subs	r3, r2, r3
 8005890:	2b02      	cmp	r3, #2
 8005892:	d901      	bls.n	8005898 <HAL_RCC_OscConfig+0x1b4>
          {
            return HAL_TIMEOUT;
 8005894:	2303      	movs	r3, #3
 8005896:	e19b      	b.n	8005bd0 <HAL_RCC_OscConfig+0x4ec>
        while (__HAL_RCC_GET_FLAG(RCC_FLAG_HSIRDY) == RESET)
 8005898:	4b2d      	ldr	r3, [pc, #180]	; (8005950 <HAL_RCC_OscConfig+0x26c>)
 800589a:	681b      	ldr	r3, [r3, #0]
 800589c:	f003 0302 	and.w	r3, r3, #2
 80058a0:	2b00      	cmp	r3, #0
 80058a2:	d0f0      	beq.n	8005886 <HAL_RCC_OscConfig+0x1a2>
          }
        }

        /* Adjusts the Internal High Speed oscillator (HSI) calibration value.*/
        __HAL_RCC_HSI_CALIBRATIONVALUE_ADJUST(RCC_OscInitStruct->HSICalibrationValue);
 80058a4:	4b2a      	ldr	r3, [pc, #168]	; (8005950 <HAL_RCC_OscConfig+0x26c>)
 80058a6:	681b      	ldr	r3, [r3, #0]
 80058a8:	f023 02f8 	bic.w	r2, r3, #248	; 0xf8
 80058ac:	687b      	ldr	r3, [r7, #4]
 80058ae:	695b      	ldr	r3, [r3, #20]
 80058b0:	00db      	lsls	r3, r3, #3
 80058b2:	4927      	ldr	r1, [pc, #156]	; (8005950 <HAL_RCC_OscConfig+0x26c>)
 80058b4:	4313      	orrs	r3, r2
 80058b6:	600b      	str	r3, [r1, #0]
 80058b8:	e015      	b.n	80058e6 <HAL_RCC_OscConfig+0x202>
      }
      else
      {
        /* Disable the Internal High Speed oscillator (HSI). */
        __HAL_RCC_HSI_DISABLE();
 80058ba:	4b26      	ldr	r3, [pc, #152]	; (8005954 <HAL_RCC_OscConfig+0x270>)
 80058bc:	2200      	movs	r2, #0
 80058be:	601a      	str	r2, [r3, #0]

        /* Get Start Tick */
        tickstart = HAL_GetTick();
 80058c0:	f7fd fd42 	bl	8003348 <HAL_GetTick>
 80058c4:	6138      	str	r0, [r7, #16]

        /* Wait till HSI is disabled */
        while (__HAL_RCC_GET_FLAG(RCC_FLAG_HSIRDY) != RESET)
 80058c6:	e008      	b.n	80058da <HAL_RCC_OscConfig+0x1f6>
        {
          if ((HAL_GetTick() - tickstart) > HSI_TIMEOUT_VALUE)
 80058c8:	f7fd fd3e 	bl	8003348 <HAL_GetTick>
 80058cc:	4602      	mov	r2, r0
 80058ce:	693b      	ldr	r3, [r7, #16]
 80058d0:	1ad3      	subs	r3, r2, r3
 80058d2:	2b02      	cmp	r3, #2
 80058d4:	d901      	bls.n	80058da <HAL_RCC_OscConfig+0x1f6>
          {
            return HAL_TIMEOUT;
 80058d6:	2303      	movs	r3, #3
 80058d8:	e17a      	b.n	8005bd0 <HAL_RCC_OscConfig+0x4ec>
        while (__HAL_RCC_GET_FLAG(RCC_FLAG_HSIRDY) != RESET)
 80058da:	4b1d      	ldr	r3, [pc, #116]	; (8005950 <HAL_RCC_OscConfig+0x26c>)
 80058dc:	681b      	ldr	r3, [r3, #0]
 80058de:	f003 0302 	and.w	r3, r3, #2
 80058e2:	2b00      	cmp	r3, #0
 80058e4:	d1f0      	bne.n	80058c8 <HAL_RCC_OscConfig+0x1e4>
        }
      }
    }
  }
  /*------------------------------ LSI Configuration -------------------------*/
  if (((RCC_OscInitStruct->OscillatorType) & RCC_OSCILLATORTYPE_LSI) == RCC_OSCILLATORTYPE_LSI)
 80058e6:	687b      	ldr	r3, [r7, #4]
 80058e8:	681b      	ldr	r3, [r3, #0]
 80058ea:	f003 0308 	and.w	r3, r3, #8
 80058ee:	2b00      	cmp	r3, #0
 80058f0:	d03a      	beq.n	8005968 <HAL_RCC_OscConfig+0x284>
  {
    /* Check the parameters */
    assert_param(IS_RCC_LSI(RCC_OscInitStruct->LSIState));

    /* Check the LSI State */
    if (RCC_OscInitStruct->LSIState != RCC_LSI_OFF)
 80058f2:	687b      	ldr	r3, [r7, #4]
 80058f4:	699b      	ldr	r3, [r3, #24]
 80058f6:	2b00      	cmp	r3, #0
 80058f8:	d019      	beq.n	800592e <HAL_RCC_OscConfig+0x24a>
    {
      /* Enable the Internal Low Speed oscillator (LSI). */
      __HAL_RCC_LSI_ENABLE();
 80058fa:	4b17      	ldr	r3, [pc, #92]	; (8005958 <HAL_RCC_OscConfig+0x274>)
 80058fc:	2201      	movs	r2, #1
 80058fe:	601a      	str	r2, [r3, #0]

      /* Get Start Tick */
      tickstart = HAL_GetTick();
 8005900:	f7fd fd22 	bl	8003348 <HAL_GetTick>
 8005904:	6138      	str	r0, [r7, #16]

      /* Wait till LSI is ready */
      while (__HAL_RCC_GET_FLAG(RCC_FLAG_LSIRDY) == RESET)
 8005906:	e008      	b.n	800591a <HAL_RCC_OscConfig+0x236>
      {
        if ((HAL_GetTick() - tickstart) > LSI_TIMEOUT_VALUE)
 8005908:	f7fd fd1e 	bl	8003348 <HAL_GetTick>
 800590c:	4602      	mov	r2, r0
 800590e:	693b      	ldr	r3, [r7, #16]
 8005910:	1ad3      	subs	r3, r2, r3
 8005912:	2b02      	cmp	r3, #2
 8005914:	d901      	bls.n	800591a <HAL_RCC_OscConfig+0x236>
        {
          return HAL_TIMEOUT;
 8005916:	2303      	movs	r3, #3
 8005918:	e15a      	b.n	8005bd0 <HAL_RCC_OscConfig+0x4ec>
      while (__HAL_RCC_GET_FLAG(RCC_FLAG_LSIRDY) == RESET)
 800591a:	4b0d      	ldr	r3, [pc, #52]	; (8005950 <HAL_RCC_OscConfig+0x26c>)
 800591c:	6a5b      	ldr	r3, [r3, #36]	; 0x24
 800591e:	f003 0302 	and.w	r3, r3, #2
 8005922:	2b00      	cmp	r3, #0
 8005924:	d0f0      	beq.n	8005908 <HAL_RCC_OscConfig+0x224>
        }
      }
      /*  To have a fully stabilized clock in the specified range, a software delay of 1ms
          should be added.*/
      RCC_Delay(1);
 8005926:	2001      	movs	r0, #1
 8005928:	f000 fac4 	bl	8005eb4 <RCC_Delay>
 800592c:	e01c      	b.n	8005968 <HAL_RCC_OscConfig+0x284>
    }
    else
    {
      /* Disable the Internal Low Speed oscillator (LSI). */
      __HAL_RCC_LSI_DISABLE();
 800592e:	4b0a      	ldr	r3, [pc, #40]	; (8005958 <HAL_RCC_OscConfig+0x274>)
 8005930:	2200      	movs	r2, #0
 8005932:	601a      	str	r2, [r3, #0]

      /* Get Start Tick */
      tickstart = HAL_GetTick();
 8005934:	f7fd fd08 	bl	8003348 <HAL_GetTick>
 8005938:	6138      	str	r0, [r7, #16]

      /* Wait till LSI is disabled */
      while (__HAL_RCC_GET_FLAG(RCC_FLAG_LSIRDY) != RESET)
 800593a:	e00f      	b.n	800595c <HAL_RCC_OscConfig+0x278>
      {
        if ((HAL_GetTick() - tickstart) > LSI_TIMEOUT_VALUE)
 800593c:	f7fd fd04 	bl	8003348 <HAL_GetTick>
 8005940:	4602      	mov	r2, r0
 8005942:	693b      	ldr	r3, [r7, #16]
 8005944:	1ad3      	subs	r3, r2, r3
 8005946:	2b02      	cmp	r3, #2
 8005948:	d908      	bls.n	800595c <HAL_RCC_OscConfig+0x278>
        {
          return HAL_TIMEOUT;
 800594a:	2303      	movs	r3, #3
 800594c:	e140      	b.n	8005bd0 <HAL_RCC_OscConfig+0x4ec>
 800594e:	bf00      	nop
 8005950:	40021000 	.word	0x40021000
 8005954:	42420000 	.word	0x42420000
 8005958:	42420480 	.word	0x42420480
      while (__HAL_RCC_GET_FLAG(RCC_FLAG_LSIRDY) != RESET)
 800595c:	4b9e      	ldr	r3, [pc, #632]	; (8005bd8 <HAL_RCC_OscConfig+0x4f4>)
 800595e:	6a5b      	ldr	r3, [r3, #36]	; 0x24
 8005960:	f003 0302 	and.w	r3, r3, #2
 8005964:	2b00      	cmp	r3, #0
 8005966:	d1e9      	bne.n	800593c <HAL_RCC_OscConfig+0x258>
        }
      }
    }
  }
  /*------------------------------ LSE Configuration -------------------------*/
  if (((RCC_OscInitStruct->OscillatorType) & RCC_OSCILLATORTYPE_LSE) == RCC_OSCILLATORTYPE_LSE)
 8005968:	687b      	ldr	r3, [r7, #4]
 800596a:	681b      	ldr	r3, [r3, #0]
 800596c:	f003 0304 	and.w	r3, r3, #4
 8005970:	2b00      	cmp	r3, #0
 8005972:	f000 80a6 	beq.w	8005ac2 <HAL_RCC_OscConfig+0x3de>
  {
    FlagStatus       pwrclkchanged = RESET;
 8005976:	2300      	movs	r3, #0
 8005978:	75fb      	strb	r3, [r7, #23]
    /* Check the parameters */
    assert_param(IS_RCC_LSE(RCC_OscInitStruct->LSEState));

    /* Update LSE configuration in Backup Domain control register    */
    /* Requires to enable write access to Backup Domain of necessary */
    if (__HAL_RCC_PWR_IS_CLK_DISABLED())
 800597a:	4b97      	ldr	r3, [pc, #604]	; (8005bd8 <HAL_RCC_OscConfig+0x4f4>)
 800597c:	69db      	ldr	r3, [r3, #28]
 800597e:	f003 5380 	and.w	r3, r3, #268435456	; 0x10000000
 8005982:	2b00      	cmp	r3, #0
 8005984:	d10d      	bne.n	80059a2 <HAL_RCC_OscConfig+0x2be>
    {
      __HAL_RCC_PWR_CLK_ENABLE();
 8005986:	4b94      	ldr	r3, [pc, #592]	; (8005bd8 <HAL_RCC_OscConfig+0x4f4>)
 8005988:	69db      	ldr	r3, [r3, #28]
 800598a:	4a93      	ldr	r2, [pc, #588]	; (8005bd8 <HAL_RCC_OscConfig+0x4f4>)
 800598c:	f043 5380 	orr.w	r3, r3, #268435456	; 0x10000000
 8005990:	61d3      	str	r3, [r2, #28]
 8005992:	4b91      	ldr	r3, [pc, #580]	; (8005bd8 <HAL_RCC_OscConfig+0x4f4>)
 8005994:	69db      	ldr	r3, [r3, #28]
 8005996:	f003 5380 	and.w	r3, r3, #268435456	; 0x10000000
 800599a:	60bb      	str	r3, [r7, #8]
 800599c:	68bb      	ldr	r3, [r7, #8]
      pwrclkchanged = SET;
 800599e:	2301      	movs	r3, #1
 80059a0:	75fb      	strb	r3, [r7, #23]
    }

    if (HAL_IS_BIT_CLR(PWR->CR, PWR_CR_DBP))
 80059a2:	4b8e      	ldr	r3, [pc, #568]	; (8005bdc <HAL_RCC_OscConfig+0x4f8>)
 80059a4:	681b      	ldr	r3, [r3, #0]
 80059a6:	f403 7380 	and.w	r3, r3, #256	; 0x100
 80059aa:	2b00      	cmp	r3, #0
 80059ac:	d118      	bne.n	80059e0 <HAL_RCC_OscConfig+0x2fc>
    {
      /* Enable write access to Backup domain */
      SET_BIT(PWR->CR, PWR_CR_DBP);
 80059ae:	4b8b      	ldr	r3, [pc, #556]	; (8005bdc <HAL_RCC_OscConfig+0x4f8>)
 80059b0:	681b      	ldr	r3, [r3, #0]
 80059b2:	4a8a      	ldr	r2, [pc, #552]	; (8005bdc <HAL_RCC_OscConfig+0x4f8>)
 80059b4:	f443 7380 	orr.w	r3, r3, #256	; 0x100
 80059b8:	6013      	str	r3, [r2, #0]

      /* Wait for Backup domain Write protection disable */
      tickstart = HAL_GetTick();
 80059ba:	f7fd fcc5 	bl	8003348 <HAL_GetTick>
 80059be:	6138      	str	r0, [r7, #16]

      while (HAL_IS_BIT_CLR(PWR->CR, PWR_CR_DBP))
 80059c0:	e008      	b.n	80059d4 <HAL_RCC_OscConfig+0x2f0>
      {
        if ((HAL_GetTick() - tickstart) > RCC_DBP_TIMEOUT_VALUE)
 80059c2:	f7fd fcc1 	bl	8003348 <HAL_GetTick>
 80059c6:	4602      	mov	r2, r0
 80059c8:	693b      	ldr	r3, [r7, #16]
 80059ca:	1ad3      	subs	r3, r2, r3
 80059cc:	2b64      	cmp	r3, #100	; 0x64
 80059ce:	d901      	bls.n	80059d4 <HAL_RCC_OscConfig+0x2f0>
        {
          return HAL_TIMEOUT;
 80059d0:	2303      	movs	r3, #3
 80059d2:	e0fd      	b.n	8005bd0 <HAL_RCC_OscConfig+0x4ec>
      while (HAL_IS_BIT_CLR(PWR->CR, PWR_CR_DBP))
 80059d4:	4b81      	ldr	r3, [pc, #516]	; (8005bdc <HAL_RCC_OscConfig+0x4f8>)
 80059d6:	681b      	ldr	r3, [r3, #0]
 80059d8:	f403 7380 	and.w	r3, r3, #256	; 0x100
 80059dc:	2b00      	cmp	r3, #0
 80059de:	d0f0      	beq.n	80059c2 <HAL_RCC_OscConfig+0x2de>
        }
      }
    }

    /* Set the new LSE configuration -----------------------------------------*/
    __HAL_RCC_LSE_CONFIG(RCC_OscInitStruct->LSEState);
 80059e0:	687b      	ldr	r3, [r7, #4]
 80059e2:	68db      	ldr	r3, [r3, #12]
 80059e4:	2b01      	cmp	r3, #1
 80059e6:	d106      	bne.n	80059f6 <HAL_RCC_OscConfig+0x312>
 80059e8:	4b7b      	ldr	r3, [pc, #492]	; (8005bd8 <HAL_RCC_OscConfig+0x4f4>)
 80059ea:	6a1b      	ldr	r3, [r3, #32]
 80059ec:	4a7a      	ldr	r2, [pc, #488]	; (8005bd8 <HAL_RCC_OscConfig+0x4f4>)
 80059ee:	f043 0301 	orr.w	r3, r3, #1
 80059f2:	6213      	str	r3, [r2, #32]
 80059f4:	e02d      	b.n	8005a52 <HAL_RCC_OscConfig+0x36e>
 80059f6:	687b      	ldr	r3, [r7, #4]
 80059f8:	68db      	ldr	r3, [r3, #12]
 80059fa:	2b00      	cmp	r3, #0
 80059fc:	d10c      	bne.n	8005a18 <HAL_RCC_OscConfig+0x334>
 80059fe:	4b76      	ldr	r3, [pc, #472]	; (8005bd8 <HAL_RCC_OscConfig+0x4f4>)
 8005a00:	6a1b      	ldr	r3, [r3, #32]
 8005a02:	4a75      	ldr	r2, [pc, #468]	; (8005bd8 <HAL_RCC_OscConfig+0x4f4>)
 8005a04:	f023 0301 	bic.w	r3, r3, #1
 8005a08:	6213      	str	r3, [r2, #32]
 8005a0a:	4b73      	ldr	r3, [pc, #460]	; (8005bd8 <HAL_RCC_OscConfig+0x4f4>)
 8005a0c:	6a1b      	ldr	r3, [r3, #32]
 8005a0e:	4a72      	ldr	r2, [pc, #456]	; (8005bd8 <HAL_RCC_OscConfig+0x4f4>)
 8005a10:	f023 0304 	bic.w	r3, r3, #4
 8005a14:	6213      	str	r3, [r2, #32]
 8005a16:	e01c      	b.n	8005a52 <HAL_RCC_OscConfig+0x36e>
 8005a18:	687b      	ldr	r3, [r7, #4]
 8005a1a:	68db      	ldr	r3, [r3, #12]
 8005a1c:	2b05      	cmp	r3, #5
 8005a1e:	d10c      	bne.n	8005a3a <HAL_RCC_OscConfig+0x356>
 8005a20:	4b6d      	ldr	r3, [pc, #436]	; (8005bd8 <HAL_RCC_OscConfig+0x4f4>)
 8005a22:	6a1b      	ldr	r3, [r3, #32]
 8005a24:	4a6c      	ldr	r2, [pc, #432]	; (8005bd8 <HAL_RCC_OscConfig+0x4f4>)
 8005a26:	f043 0304 	orr.w	r3, r3, #4
 8005a2a:	6213      	str	r3, [r2, #32]
 8005a2c:	4b6a      	ldr	r3, [pc, #424]	; (8005bd8 <HAL_RCC_OscConfig+0x4f4>)
 8005a2e:	6a1b      	ldr	r3, [r3, #32]
 8005a30:	4a69      	ldr	r2, [pc, #420]	; (8005bd8 <HAL_RCC_OscConfig+0x4f4>)
 8005a32:	f043 0301 	orr.w	r3, r3, #1
 8005a36:	6213      	str	r3, [r2, #32]
 8005a38:	e00b      	b.n	8005a52 <HAL_RCC_OscConfig+0x36e>
 8005a3a:	4b67      	ldr	r3, [pc, #412]	; (8005bd8 <HAL_RCC_OscConfig+0x4f4>)
 8005a3c:	6a1b      	ldr	r3, [r3, #32]
 8005a3e:	4a66      	ldr	r2, [pc, #408]	; (8005bd8 <HAL_RCC_OscConfig+0x4f4>)
 8005a40:	f023 0301 	bic.w	r3, r3, #1
 8005a44:	6213      	str	r3, [r2, #32]
 8005a46:	4b64      	ldr	r3, [pc, #400]	; (8005bd8 <HAL_RCC_OscConfig+0x4f4>)
 8005a48:	6a1b      	ldr	r3, [r3, #32]
 8005a4a:	4a63      	ldr	r2, [pc, #396]	; (8005bd8 <HAL_RCC_OscConfig+0x4f4>)
 8005a4c:	f023 0304 	bic.w	r3, r3, #4
 8005a50:	6213      	str	r3, [r2, #32]
    /* Check the LSE State */
    if (RCC_OscInitStruct->LSEState != RCC_LSE_OFF)
 8005a52:	687b      	ldr	r3, [r7, #4]
 8005a54:	68db      	ldr	r3, [r3, #12]
 8005a56:	2b00      	cmp	r3, #0
 8005a58:	d015      	beq.n	8005a86 <HAL_RCC_OscConfig+0x3a2>
    {
      /* Get Start Tick */
      tickstart = HAL_GetTick();
 8005a5a:	f7fd fc75 	bl	8003348 <HAL_GetTick>
 8005a5e:	6138      	str	r0, [r7, #16]

      /* Wait till LSE is ready */
      while (__HAL_RCC_GET_FLAG(RCC_FLAG_LSERDY) == RESET)
 8005a60:	e00a      	b.n	8005a78 <HAL_RCC_OscConfig+0x394>
      {
        if ((HAL_GetTick() - tickstart) > RCC_LSE_TIMEOUT_VALUE)
 8005a62:	f7fd fc71 	bl	8003348 <HAL_GetTick>
 8005a66:	4602      	mov	r2, r0
 8005a68:	693b      	ldr	r3, [r7, #16]
 8005a6a:	1ad3      	subs	r3, r2, r3
 8005a6c:	f241 3288 	movw	r2, #5000	; 0x1388
 8005a70:	4293      	cmp	r3, r2
 8005a72:	d901      	bls.n	8005a78 <HAL_RCC_OscConfig+0x394>
        {
          return HAL_TIMEOUT;
 8005a74:	2303      	movs	r3, #3
 8005a76:	e0ab      	b.n	8005bd0 <HAL_RCC_OscConfig+0x4ec>
      while (__HAL_RCC_GET_FLAG(RCC_FLAG_LSERDY) == RESET)
 8005a78:	4b57      	ldr	r3, [pc, #348]	; (8005bd8 <HAL_RCC_OscConfig+0x4f4>)
 8005a7a:	6a1b      	ldr	r3, [r3, #32]
 8005a7c:	f003 0302 	and.w	r3, r3, #2
 8005a80:	2b00      	cmp	r3, #0
 8005a82:	d0ee      	beq.n	8005a62 <HAL_RCC_OscConfig+0x37e>
 8005a84:	e014      	b.n	8005ab0 <HAL_RCC_OscConfig+0x3cc>
      }
    }
    else
    {
      /* Get Start Tick */
      tickstart = HAL_GetTick();
 8005a86:	f7fd fc5f 	bl	8003348 <HAL_GetTick>
 8005a8a:	6138      	str	r0, [r7, #16]

      /* Wait till LSE is disabled */
      while (__HAL_RCC_GET_FLAG(RCC_FLAG_LSERDY) != RESET)
 8005a8c:	e00a      	b.n	8005aa4 <HAL_RCC_OscConfig+0x3c0>
      {
        if ((HAL_GetTick() - tickstart) > RCC_LSE_TIMEOUT_VALUE)
 8005a8e:	f7fd fc5b 	bl	8003348 <HAL_GetTick>
 8005a92:	4602      	mov	r2, r0
 8005a94:	693b      	ldr	r3, [r7, #16]
 8005a96:	1ad3      	subs	r3, r2, r3
 8005a98:	f241 3288 	movw	r2, #5000	; 0x1388
 8005a9c:	4293      	cmp	r3, r2
 8005a9e:	d901      	bls.n	8005aa4 <HAL_RCC_OscConfig+0x3c0>
        {
          return HAL_TIMEOUT;
 8005aa0:	2303      	movs	r3, #3
 8005aa2:	e095      	b.n	8005bd0 <HAL_RCC_OscConfig+0x4ec>
      while (__HAL_RCC_GET_FLAG(RCC_FLAG_LSERDY) != RESET)
 8005aa4:	4b4c      	ldr	r3, [pc, #304]	; (8005bd8 <HAL_RCC_OscConfig+0x4f4>)
 8005aa6:	6a1b      	ldr	r3, [r3, #32]
 8005aa8:	f003 0302 	and.w	r3, r3, #2
 8005aac:	2b00      	cmp	r3, #0
 8005aae:	d1ee      	bne.n	8005a8e <HAL_RCC_OscConfig+0x3aa>
        }
      }
    }

    /* Require to disable power clock if necessary */
    if (pwrclkchanged == SET)
 8005ab0:	7dfb      	ldrb	r3, [r7, #23]
 8005ab2:	2b01      	cmp	r3, #1
 8005ab4:	d105      	bne.n	8005ac2 <HAL_RCC_OscConfig+0x3de>
    {
      __HAL_RCC_PWR_CLK_DISABLE();
 8005ab6:	4b48      	ldr	r3, [pc, #288]	; (8005bd8 <HAL_RCC_OscConfig+0x4f4>)
 8005ab8:	69db      	ldr	r3, [r3, #28]
 8005aba:	4a47      	ldr	r2, [pc, #284]	; (8005bd8 <HAL_RCC_OscConfig+0x4f4>)
 8005abc:	f023 5380 	bic.w	r3, r3, #268435456	; 0x10000000
 8005ac0:	61d3      	str	r3, [r2, #28]

#endif /* RCC_CR_PLL2ON */
  /*-------------------------------- PLL Configuration -----------------------*/
  /* Check the parameters */
  assert_param(IS_RCC_PLL(RCC_OscInitStruct->PLL.PLLState));
  if ((RCC_OscInitStruct->PLL.PLLState) != RCC_PLL_NONE)
 8005ac2:	687b      	ldr	r3, [r7, #4]
 8005ac4:	69db      	ldr	r3, [r3, #28]
 8005ac6:	2b00      	cmp	r3, #0
 8005ac8:	f000 8081 	beq.w	8005bce <HAL_RCC_OscConfig+0x4ea>
  {
    /* Check if the PLL is used as system clock or not */
    if (__HAL_RCC_GET_SYSCLK_SOURCE() != RCC_SYSCLKSOURCE_STATUS_PLLCLK)
 8005acc:	4b42      	ldr	r3, [pc, #264]	; (8005bd8 <HAL_RCC_OscConfig+0x4f4>)
 8005ace:	685b      	ldr	r3, [r3, #4]
 8005ad0:	f003 030c 	and.w	r3, r3, #12
 8005ad4:	2b08      	cmp	r3, #8
 8005ad6:	d061      	beq.n	8005b9c <HAL_RCC_OscConfig+0x4b8>
    {
      if ((RCC_OscInitStruct->PLL.PLLState) == RCC_PLL_ON)
 8005ad8:	687b      	ldr	r3, [r7, #4]
 8005ada:	69db      	ldr	r3, [r3, #28]
 8005adc:	2b02      	cmp	r3, #2
 8005ade:	d146      	bne.n	8005b6e <HAL_RCC_OscConfig+0x48a>
        /* Check the parameters */
        assert_param(IS_RCC_PLLSOURCE(RCC_OscInitStruct->PLL.PLLSource));
        assert_param(IS_RCC_PLL_MUL(RCC_OscInitStruct->PLL.PLLMUL));

        /* Disable the main PLL. */
        __HAL_RCC_PLL_DISABLE();
 8005ae0:	4b3f      	ldr	r3, [pc, #252]	; (8005be0 <HAL_RCC_OscConfig+0x4fc>)
 8005ae2:	2200      	movs	r2, #0
 8005ae4:	601a      	str	r2, [r3, #0]

        /* Get Start Tick */
        tickstart = HAL_GetTick();
 8005ae6:	f7fd fc2f 	bl	8003348 <HAL_GetTick>
 8005aea:	6138      	str	r0, [r7, #16]

        /* Wait till PLL is disabled */
        while (__HAL_RCC_GET_FLAG(RCC_FLAG_PLLRDY)  != RESET)
 8005aec:	e008      	b.n	8005b00 <HAL_RCC_OscConfig+0x41c>
        {
          if ((HAL_GetTick() - tickstart) > PLL_TIMEOUT_VALUE)
 8005aee:	f7fd fc2b 	bl	8003348 <HAL_GetTick>
 8005af2:	4602      	mov	r2, r0
 8005af4:	693b      	ldr	r3, [r7, #16]
 8005af6:	1ad3      	subs	r3, r2, r3
 8005af8:	2b02      	cmp	r3, #2
 8005afa:	d901      	bls.n	8005b00 <HAL_RCC_OscConfig+0x41c>
          {
            return HAL_TIMEOUT;
 8005afc:	2303      	movs	r3, #3
 8005afe:	e067      	b.n	8005bd0 <HAL_RCC_OscConfig+0x4ec>
        while (__HAL_RCC_GET_FLAG(RCC_FLAG_PLLRDY)  != RESET)
 8005b00:	4b35      	ldr	r3, [pc, #212]	; (8005bd8 <HAL_RCC_OscConfig+0x4f4>)
 8005b02:	681b      	ldr	r3, [r3, #0]
 8005b04:	f003 7300 	and.w	r3, r3, #33554432	; 0x2000000
 8005b08:	2b00      	cmp	r3, #0
 8005b0a:	d1f0      	bne.n	8005aee <HAL_RCC_OscConfig+0x40a>
          }
        }

        /* Configure the HSE prediv factor --------------------------------*/
        /* It can be written only when the PLL is disabled. Not used in PLL source is different than HSE */
        if (RCC_OscInitStruct->PLL.PLLSource == RCC_PLLSOURCE_HSE)
 8005b0c:	687b      	ldr	r3, [r7, #4]
 8005b0e:	6a1b      	ldr	r3, [r3, #32]
 8005b10:	f5b3 3f80 	cmp.w	r3, #65536	; 0x10000
 8005b14:	d108      	bne.n	8005b28 <HAL_RCC_OscConfig+0x444>
          /* Set PREDIV1 source */
          SET_BIT(RCC->CFGR2, RCC_OscInitStruct->Prediv1Source);
#endif /* RCC_CFGR2_PREDIV1SRC */

          /* Set PREDIV1 Value */
          __HAL_RCC_HSE_PREDIV_CONFIG(RCC_OscInitStruct->HSEPredivValue);
 8005b16:	4b30      	ldr	r3, [pc, #192]	; (8005bd8 <HAL_RCC_OscConfig+0x4f4>)
 8005b18:	685b      	ldr	r3, [r3, #4]
 8005b1a:	f423 3200 	bic.w	r2, r3, #131072	; 0x20000
 8005b1e:	687b      	ldr	r3, [r7, #4]
 8005b20:	689b      	ldr	r3, [r3, #8]
 8005b22:	492d      	ldr	r1, [pc, #180]	; (8005bd8 <HAL_RCC_OscConfig+0x4f4>)
 8005b24:	4313      	orrs	r3, r2
 8005b26:	604b      	str	r3, [r1, #4]
        }

        /* Configure the main PLL clock source and multiplication factors. */
        __HAL_RCC_PLL_CONFIG(RCC_OscInitStruct->PLL.PLLSource,
 8005b28:	4b2b      	ldr	r3, [pc, #172]	; (8005bd8 <HAL_RCC_OscConfig+0x4f4>)
 8005b2a:	685b      	ldr	r3, [r3, #4]
 8005b2c:	f423 1274 	bic.w	r2, r3, #3997696	; 0x3d0000
 8005b30:	687b      	ldr	r3, [r7, #4]
 8005b32:	6a19      	ldr	r1, [r3, #32]
 8005b34:	687b      	ldr	r3, [r7, #4]
 8005b36:	6a5b      	ldr	r3, [r3, #36]	; 0x24
 8005b38:	430b      	orrs	r3, r1
 8005b3a:	4927      	ldr	r1, [pc, #156]	; (8005bd8 <HAL_RCC_OscConfig+0x4f4>)
 8005b3c:	4313      	orrs	r3, r2
 8005b3e:	604b      	str	r3, [r1, #4]
                             RCC_OscInitStruct->PLL.PLLMUL);
        /* Enable the main PLL. */
        __HAL_RCC_PLL_ENABLE();
 8005b40:	4b27      	ldr	r3, [pc, #156]	; (8005be0 <HAL_RCC_OscConfig+0x4fc>)
 8005b42:	2201      	movs	r2, #1
 8005b44:	601a      	str	r2, [r3, #0]

        /* Get Start Tick */
        tickstart = HAL_GetTick();
 8005b46:	f7fd fbff 	bl	8003348 <HAL_GetTick>
 8005b4a:	6138      	str	r0, [r7, #16]

        /* Wait till PLL is ready */
        while (__HAL_RCC_GET_FLAG(RCC_FLAG_PLLRDY)  == RESET)
 8005b4c:	e008      	b.n	8005b60 <HAL_RCC_OscConfig+0x47c>
        {
          if ((HAL_GetTick() - tickstart) > PLL_TIMEOUT_VALUE)
 8005b4e:	f7fd fbfb 	bl	8003348 <HAL_GetTick>
 8005b52:	4602      	mov	r2, r0
 8005b54:	693b      	ldr	r3, [r7, #16]
 8005b56:	1ad3      	subs	r3, r2, r3
 8005b58:	2b02      	cmp	r3, #2
 8005b5a:	d901      	bls.n	8005b60 <HAL_RCC_OscConfig+0x47c>
          {
            return HAL_TIMEOUT;
 8005b5c:	2303      	movs	r3, #3
 8005b5e:	e037      	b.n	8005bd0 <HAL_RCC_OscConfig+0x4ec>
        while (__HAL_RCC_GET_FLAG(RCC_FLAG_PLLRDY)  == RESET)
 8005b60:	4b1d      	ldr	r3, [pc, #116]	; (8005bd8 <HAL_RCC_OscConfig+0x4f4>)
 8005b62:	681b      	ldr	r3, [r3, #0]
 8005b64:	f003 7300 	and.w	r3, r3, #33554432	; 0x2000000
 8005b68:	2b00      	cmp	r3, #0
 8005b6a:	d0f0      	beq.n	8005b4e <HAL_RCC_OscConfig+0x46a>
 8005b6c:	e02f      	b.n	8005bce <HAL_RCC_OscConfig+0x4ea>
        }
      }
      else
      {
        /* Disable the main PLL. */
        __HAL_RCC_PLL_DISABLE();
 8005b6e:	4b1c      	ldr	r3, [pc, #112]	; (8005be0 <HAL_RCC_OscConfig+0x4fc>)
 8005b70:	2200      	movs	r2, #0
 8005b72:	601a      	str	r2, [r3, #0]

        /* Get Start Tick */
        tickstart = HAL_GetTick();
 8005b74:	f7fd fbe8 	bl	8003348 <HAL_GetTick>
 8005b78:	6138      	str	r0, [r7, #16]

        /* Wait till PLL is disabled */
        while (__HAL_RCC_GET_FLAG(RCC_FLAG_PLLRDY)  != RESET)
 8005b7a:	e008      	b.n	8005b8e <HAL_RCC_OscConfig+0x4aa>
        {
          if ((HAL_GetTick() - tickstart) > PLL_TIMEOUT_VALUE)
 8005b7c:	f7fd fbe4 	bl	8003348 <HAL_GetTick>
 8005b80:	4602      	mov	r2, r0
 8005b82:	693b      	ldr	r3, [r7, #16]
 8005b84:	1ad3      	subs	r3, r2, r3
 8005b86:	2b02      	cmp	r3, #2
 8005b88:	d901      	bls.n	8005b8e <HAL_RCC_OscConfig+0x4aa>
          {
            return HAL_TIMEOUT;
 8005b8a:	2303      	movs	r3, #3
 8005b8c:	e020      	b.n	8005bd0 <HAL_RCC_OscConfig+0x4ec>
        while (__HAL_RCC_GET_FLAG(RCC_FLAG_PLLRDY)  != RESET)
 8005b8e:	4b12      	ldr	r3, [pc, #72]	; (8005bd8 <HAL_RCC_OscConfig+0x4f4>)
 8005b90:	681b      	ldr	r3, [r3, #0]
 8005b92:	f003 7300 	and.w	r3, r3, #33554432	; 0x2000000
 8005b96:	2b00      	cmp	r3, #0
 8005b98:	d1f0      	bne.n	8005b7c <HAL_RCC_OscConfig+0x498>
 8005b9a:	e018      	b.n	8005bce <HAL_RCC_OscConfig+0x4ea>
      }
    }
    else
    {
      /* Check if there is a request to disable the PLL used as System clock source */
      if ((RCC_OscInitStruct->PLL.PLLState) == RCC_PLL_OFF)
 8005b9c:	687b      	ldr	r3, [r7, #4]
 8005b9e:	69db      	ldr	r3, [r3, #28]
 8005ba0:	2b01      	cmp	r3, #1
 8005ba2:	d101      	bne.n	8005ba8 <HAL_RCC_OscConfig+0x4c4>
      {
        return HAL_ERROR;
 8005ba4:	2301      	movs	r3, #1
 8005ba6:	e013      	b.n	8005bd0 <HAL_RCC_OscConfig+0x4ec>
      }
      else
      {
        /* Do not return HAL_ERROR if request repeats the current configuration */
        pll_config = RCC->CFGR;
 8005ba8:	4b0b      	ldr	r3, [pc, #44]	; (8005bd8 <HAL_RCC_OscConfig+0x4f4>)
 8005baa:	685b      	ldr	r3, [r3, #4]
 8005bac:	60fb      	str	r3, [r7, #12]
        if ((READ_BIT(pll_config, RCC_CFGR_PLLSRC) != RCC_OscInitStruct->PLL.PLLSource) ||
 8005bae:	68fb      	ldr	r3, [r7, #12]
 8005bb0:	f403 3280 	and.w	r2, r3, #65536	; 0x10000
 8005bb4:	687b      	ldr	r3, [r7, #4]
 8005bb6:	6a1b      	ldr	r3, [r3, #32]
 8005bb8:	429a      	cmp	r2, r3
 8005bba:	d106      	bne.n	8005bca <HAL_RCC_OscConfig+0x4e6>
            (READ_BIT(pll_config, RCC_CFGR_PLLMULL) != RCC_OscInitStruct->PLL.PLLMUL))
 8005bbc:	68fb      	ldr	r3, [r7, #12]
 8005bbe:	f403 1270 	and.w	r2, r3, #3932160	; 0x3c0000
 8005bc2:	687b      	ldr	r3, [r7, #4]
 8005bc4:	6a5b      	ldr	r3, [r3, #36]	; 0x24
        if ((READ_BIT(pll_config, RCC_CFGR_PLLSRC) != RCC_OscInitStruct->PLL.PLLSource) ||
 8005bc6:	429a      	cmp	r2, r3
 8005bc8:	d001      	beq.n	8005bce <HAL_RCC_OscConfig+0x4ea>
        {
          return HAL_ERROR;
 8005bca:	2301      	movs	r3, #1
 8005bcc:	e000      	b.n	8005bd0 <HAL_RCC_OscConfig+0x4ec>
        }
      }
    }
  }

  return HAL_OK;
 8005bce:	2300      	movs	r3, #0
}
 8005bd0:	4618      	mov	r0, r3
 8005bd2:	3718      	adds	r7, #24
 8005bd4:	46bd      	mov	sp, r7
 8005bd6:	bd80      	pop	{r7, pc}
 8005bd8:	40021000 	.word	0x40021000
 8005bdc:	40007000 	.word	0x40007000
 8005be0:	42420060 	.word	0x42420060

08005be4 <HAL_RCC_ClockConfig>:
  *         You can use @ref HAL_RCC_GetClockConfig() function to know which clock is
  *         currently used as system clock source.
  * @retval HAL status
  */
HAL_StatusTypeDef HAL_RCC_ClockConfig(RCC_ClkInitTypeDef  *RCC_ClkInitStruct, uint32_t FLatency)
{
 8005be4:	b580      	push	{r7, lr}
 8005be6:	b084      	sub	sp, #16
 8005be8:	af00      	add	r7, sp, #0
 8005bea:	6078      	str	r0, [r7, #4]
 8005bec:	6039      	str	r1, [r7, #0]
  uint32_t tickstart;

  /* Check Null pointer */
  if (RCC_ClkInitStruct == NULL)
 8005bee:	687b      	ldr	r3, [r7, #4]
 8005bf0:	2b00      	cmp	r3, #0
 8005bf2:	d101      	bne.n	8005bf8 <HAL_RCC_ClockConfig+0x14>
  {
    return HAL_ERROR;
 8005bf4:	2301      	movs	r3, #1
 8005bf6:	e0d0      	b.n	8005d9a <HAL_RCC_ClockConfig+0x1b6>
  must be correctly programmed according to the frequency of the CPU clock
    (HCLK) of the device. */

#if defined(FLASH_ACR_LATENCY)
  /* Increasing the number of wait states because of higher CPU frequency */
  if (FLatency > __HAL_FLASH_GET_LATENCY())
 8005bf8:	4b6a      	ldr	r3, [pc, #424]	; (8005da4 <HAL_RCC_ClockConfig+0x1c0>)
 8005bfa:	681b      	ldr	r3, [r3, #0]
 8005bfc:	f003 0307 	and.w	r3, r3, #7
 8005c00:	683a      	ldr	r2, [r7, #0]
 8005c02:	429a      	cmp	r2, r3
 8005c04:	d910      	bls.n	8005c28 <HAL_RCC_ClockConfig+0x44>
  {
    /* Program the new number of wait states to the LATENCY bits in the FLASH_ACR register */
    __HAL_FLASH_SET_LATENCY(FLatency);
 8005c06:	4b67      	ldr	r3, [pc, #412]	; (8005da4 <HAL_RCC_ClockConfig+0x1c0>)
 8005c08:	681b      	ldr	r3, [r3, #0]
 8005c0a:	f023 0207 	bic.w	r2, r3, #7
 8005c0e:	4965      	ldr	r1, [pc, #404]	; (8005da4 <HAL_RCC_ClockConfig+0x1c0>)
 8005c10:	683b      	ldr	r3, [r7, #0]
 8005c12:	4313      	orrs	r3, r2
 8005c14:	600b      	str	r3, [r1, #0]

    /* Check that the new number of wait states is taken into account to access the Flash
    memory by reading the FLASH_ACR register */
    if (__HAL_FLASH_GET_LATENCY() != FLatency)
 8005c16:	4b63      	ldr	r3, [pc, #396]	; (8005da4 <HAL_RCC_ClockConfig+0x1c0>)
 8005c18:	681b      	ldr	r3, [r3, #0]
 8005c1a:	f003 0307 	and.w	r3, r3, #7
 8005c1e:	683a      	ldr	r2, [r7, #0]
 8005c20:	429a      	cmp	r2, r3
 8005c22:	d001      	beq.n	8005c28 <HAL_RCC_ClockConfig+0x44>
  {
    return HAL_ERROR;
 8005c24:	2301      	movs	r3, #1
 8005c26:	e0b8      	b.n	8005d9a <HAL_RCC_ClockConfig+0x1b6>
  }
}

#endif /* FLASH_ACR_LATENCY */
/*-------------------------- HCLK Configuration --------------------------*/
if (((RCC_ClkInitStruct->ClockType) & RCC_CLOCKTYPE_HCLK) == RCC_CLOCKTYPE_HCLK)
 8005c28:	687b      	ldr	r3, [r7, #4]
 8005c2a:	681b      	ldr	r3, [r3, #0]
 8005c2c:	f003 0302 	and.w	r3, r3, #2
 8005c30:	2b00      	cmp	r3, #0
 8005c32:	d020      	beq.n	8005c76 <HAL_RCC_ClockConfig+0x92>
  {
    /* Set the highest APBx dividers in order to ensure that we do not go through
    a non-spec phase whatever we decrease or increase HCLK. */
    if (((RCC_ClkInitStruct->ClockType) & RCC_CLOCKTYPE_PCLK1) == RCC_CLOCKTYPE_PCLK1)
 8005c34:	687b      	ldr	r3, [r7, #4]
 8005c36:	681b      	ldr	r3, [r3, #0]
 8005c38:	f003 0304 	and.w	r3, r3, #4
 8005c3c:	2b00      	cmp	r3, #0
 8005c3e:	d005      	beq.n	8005c4c <HAL_RCC_ClockConfig+0x68>
    {
      MODIFY_REG(RCC->CFGR, RCC_CFGR_PPRE1, RCC_HCLK_DIV16);
 8005c40:	4b59      	ldr	r3, [pc, #356]	; (8005da8 <HAL_RCC_ClockConfig+0x1c4>)
 8005c42:	685b      	ldr	r3, [r3, #4]
 8005c44:	4a58      	ldr	r2, [pc, #352]	; (8005da8 <HAL_RCC_ClockConfig+0x1c4>)
 8005c46:	f443 63e0 	orr.w	r3, r3, #1792	; 0x700
 8005c4a:	6053      	str	r3, [r2, #4]
    }

    if (((RCC_ClkInitStruct->ClockType) & RCC_CLOCKTYPE_PCLK2) == RCC_CLOCKTYPE_PCLK2)
 8005c4c:	687b      	ldr	r3, [r7, #4]
 8005c4e:	681b      	ldr	r3, [r3, #0]
 8005c50:	f003 0308 	and.w	r3, r3, #8
 8005c54:	2b00      	cmp	r3, #0
 8005c56:	d005      	beq.n	8005c64 <HAL_RCC_ClockConfig+0x80>
    {
      MODIFY_REG(RCC->CFGR, RCC_CFGR_PPRE2, (RCC_HCLK_DIV16 << 3));
 8005c58:	4b53      	ldr	r3, [pc, #332]	; (8005da8 <HAL_RCC_ClockConfig+0x1c4>)
 8005c5a:	685b      	ldr	r3, [r3, #4]
 8005c5c:	4a52      	ldr	r2, [pc, #328]	; (8005da8 <HAL_RCC_ClockConfig+0x1c4>)
 8005c5e:	f443 5360 	orr.w	r3, r3, #14336	; 0x3800
 8005c62:	6053      	str	r3, [r2, #4]
    }

    /* Set the new HCLK clock divider */
    assert_param(IS_RCC_HCLK(RCC_ClkInitStruct->AHBCLKDivider));
    MODIFY_REG(RCC->CFGR, RCC_CFGR_HPRE, RCC_ClkInitStruct->AHBCLKDivider);
 8005c64:	4b50      	ldr	r3, [pc, #320]	; (8005da8 <HAL_RCC_ClockConfig+0x1c4>)
 8005c66:	685b      	ldr	r3, [r3, #4]
 8005c68:	f023 02f0 	bic.w	r2, r3, #240	; 0xf0
 8005c6c:	687b      	ldr	r3, [r7, #4]
 8005c6e:	689b      	ldr	r3, [r3, #8]
 8005c70:	494d      	ldr	r1, [pc, #308]	; (8005da8 <HAL_RCC_ClockConfig+0x1c4>)
 8005c72:	4313      	orrs	r3, r2
 8005c74:	604b      	str	r3, [r1, #4]
  }

  /*------------------------- SYSCLK Configuration ---------------------------*/
  if (((RCC_ClkInitStruct->ClockType) & RCC_CLOCKTYPE_SYSCLK) == RCC_CLOCKTYPE_SYSCLK)
 8005c76:	687b      	ldr	r3, [r7, #4]
 8005c78:	681b      	ldr	r3, [r3, #0]
 8005c7a:	f003 0301 	and.w	r3, r3, #1
 8005c7e:	2b00      	cmp	r3, #0
 8005c80:	d040      	beq.n	8005d04 <HAL_RCC_ClockConfig+0x120>
  {
    assert_param(IS_RCC_SYSCLKSOURCE(RCC_ClkInitStruct->SYSCLKSource));

    /* HSE is selected as System Clock Source */
    if (RCC_ClkInitStruct->SYSCLKSource == RCC_SYSCLKSOURCE_HSE)
 8005c82:	687b      	ldr	r3, [r7, #4]
 8005c84:	685b      	ldr	r3, [r3, #4]
 8005c86:	2b01      	cmp	r3, #1
 8005c88:	d107      	bne.n	8005c9a <HAL_RCC_ClockConfig+0xb6>
    {
      /* Check the HSE ready flag */
      if (__HAL_RCC_GET_FLAG(RCC_FLAG_HSERDY) == RESET)
 8005c8a:	4b47      	ldr	r3, [pc, #284]	; (8005da8 <HAL_RCC_ClockConfig+0x1c4>)
 8005c8c:	681b      	ldr	r3, [r3, #0]
 8005c8e:	f403 3300 	and.w	r3, r3, #131072	; 0x20000
 8005c92:	2b00      	cmp	r3, #0
 8005c94:	d115      	bne.n	8005cc2 <HAL_RCC_ClockConfig+0xde>
      {
        return HAL_ERROR;
 8005c96:	2301      	movs	r3, #1
 8005c98:	e07f      	b.n	8005d9a <HAL_RCC_ClockConfig+0x1b6>
      }
    }
    /* PLL is selected as System Clock Source */
    else if (RCC_ClkInitStruct->SYSCLKSource == RCC_SYSCLKSOURCE_PLLCLK)
 8005c9a:	687b      	ldr	r3, [r7, #4]
 8005c9c:	685b      	ldr	r3, [r3, #4]
 8005c9e:	2b02      	cmp	r3, #2
 8005ca0:	d107      	bne.n	8005cb2 <HAL_RCC_ClockConfig+0xce>
    {
      /* Check the PLL ready flag */
      if (__HAL_RCC_GET_FLAG(RCC_FLAG_PLLRDY) == RESET)
 8005ca2:	4b41      	ldr	r3, [pc, #260]	; (8005da8 <HAL_RCC_ClockConfig+0x1c4>)
 8005ca4:	681b      	ldr	r3, [r3, #0]
 8005ca6:	f003 7300 	and.w	r3, r3, #33554432	; 0x2000000
 8005caa:	2b00      	cmp	r3, #0
 8005cac:	d109      	bne.n	8005cc2 <HAL_RCC_ClockConfig+0xde>
      {
        return HAL_ERROR;
 8005cae:	2301      	movs	r3, #1
 8005cb0:	e073      	b.n	8005d9a <HAL_RCC_ClockConfig+0x1b6>
    }
    /* HSI is selected as System Clock Source */
    else
    {
      /* Check the HSI ready flag */
      if (__HAL_RCC_GET_FLAG(RCC_FLAG_HSIRDY) == RESET)
 8005cb2:	4b3d      	ldr	r3, [pc, #244]	; (8005da8 <HAL_RCC_ClockConfig+0x1c4>)
 8005cb4:	681b      	ldr	r3, [r3, #0]
 8005cb6:	f003 0302 	and.w	r3, r3, #2
 8005cba:	2b00      	cmp	r3, #0
 8005cbc:	d101      	bne.n	8005cc2 <HAL_RCC_ClockConfig+0xde>
      {
        return HAL_ERROR;
 8005cbe:	2301      	movs	r3, #1
 8005cc0:	e06b      	b.n	8005d9a <HAL_RCC_ClockConfig+0x1b6>
      }
    }
    __HAL_RCC_SYSCLK_CONFIG(RCC_ClkInitStruct->SYSCLKSource);
 8005cc2:	4b39      	ldr	r3, [pc, #228]	; (8005da8 <HAL_RCC_ClockConfig+0x1c4>)
 8005cc4:	685b      	ldr	r3, [r3, #4]
 8005cc6:	f023 0203 	bic.w	r2, r3, #3
 8005cca:	687b      	ldr	r3, [r7, #4]
 8005ccc:	685b      	ldr	r3, [r3, #4]
 8005cce:	4936      	ldr	r1, [pc, #216]	; (8005da8 <HAL_RCC_ClockConfig+0x1c4>)
 8005cd0:	4313      	orrs	r3, r2
 8005cd2:	604b      	str	r3, [r1, #4]

    /* Get Start Tick */
    tickstart = HAL_GetTick();
 8005cd4:	f7fd fb38 	bl	8003348 <HAL_GetTick>
 8005cd8:	60f8      	str	r0, [r7, #12]

    while (__HAL_RCC_GET_SYSCLK_SOURCE() != (RCC_ClkInitStruct->SYSCLKSource << RCC_CFGR_SWS_Pos))
 8005cda:	e00a      	b.n	8005cf2 <HAL_RCC_ClockConfig+0x10e>
    {
      if ((HAL_GetTick() - tickstart) > CLOCKSWITCH_TIMEOUT_VALUE)
 8005cdc:	f7fd fb34 	bl	8003348 <HAL_GetTick>
 8005ce0:	4602      	mov	r2, r0
 8005ce2:	68fb      	ldr	r3, [r7, #12]
 8005ce4:	1ad3      	subs	r3, r2, r3
 8005ce6:	f241 3288 	movw	r2, #5000	; 0x1388
 8005cea:	4293      	cmp	r3, r2
 8005cec:	d901      	bls.n	8005cf2 <HAL_RCC_ClockConfig+0x10e>
      {
        return HAL_TIMEOUT;
 8005cee:	2303      	movs	r3, #3
 8005cf0:	e053      	b.n	8005d9a <HAL_RCC_ClockConfig+0x1b6>
    while (__HAL_RCC_GET_SYSCLK_SOURCE() != (RCC_ClkInitStruct->SYSCLKSource << RCC_CFGR_SWS_Pos))
 8005cf2:	4b2d      	ldr	r3, [pc, #180]	; (8005da8 <HAL_RCC_ClockConfig+0x1c4>)
 8005cf4:	685b      	ldr	r3, [r3, #4]
 8005cf6:	f003 020c 	and.w	r2, r3, #12
 8005cfa:	687b      	ldr	r3, [r7, #4]
 8005cfc:	685b      	ldr	r3, [r3, #4]
 8005cfe:	009b      	lsls	r3, r3, #2
 8005d00:	429a      	cmp	r2, r3
 8005d02:	d1eb      	bne.n	8005cdc <HAL_RCC_ClockConfig+0xf8>
    }
  }

#if defined(FLASH_ACR_LATENCY)
  /* Decreasing the number of wait states because of lower CPU frequency */
  if (FLatency < __HAL_FLASH_GET_LATENCY())
 8005d04:	4b27      	ldr	r3, [pc, #156]	; (8005da4 <HAL_RCC_ClockConfig+0x1c0>)
 8005d06:	681b      	ldr	r3, [r3, #0]
 8005d08:	f003 0307 	and.w	r3, r3, #7
 8005d0c:	683a      	ldr	r2, [r7, #0]
 8005d0e:	429a      	cmp	r2, r3
 8005d10:	d210      	bcs.n	8005d34 <HAL_RCC_ClockConfig+0x150>
  {
    /* Program the new number of wait states to the LATENCY bits in the FLASH_ACR register */
    __HAL_FLASH_SET_LATENCY(FLatency);
 8005d12:	4b24      	ldr	r3, [pc, #144]	; (8005da4 <HAL_RCC_ClockConfig+0x1c0>)
 8005d14:	681b      	ldr	r3, [r3, #0]
 8005d16:	f023 0207 	bic.w	r2, r3, #7
 8005d1a:	4922      	ldr	r1, [pc, #136]	; (8005da4 <HAL_RCC_ClockConfig+0x1c0>)
 8005d1c:	683b      	ldr	r3, [r7, #0]
 8005d1e:	4313      	orrs	r3, r2
 8005d20:	600b      	str	r3, [r1, #0]

    /* Check that the new number of wait states is taken into account to access the Flash
    memory by reading the FLASH_ACR register */
    if (__HAL_FLASH_GET_LATENCY() != FLatency)
 8005d22:	4b20      	ldr	r3, [pc, #128]	; (8005da4 <HAL_RCC_ClockConfig+0x1c0>)
 8005d24:	681b      	ldr	r3, [r3, #0]
 8005d26:	f003 0307 	and.w	r3, r3, #7
 8005d2a:	683a      	ldr	r2, [r7, #0]
 8005d2c:	429a      	cmp	r2, r3
 8005d2e:	d001      	beq.n	8005d34 <HAL_RCC_ClockConfig+0x150>
  {
    return HAL_ERROR;
 8005d30:	2301      	movs	r3, #1
 8005d32:	e032      	b.n	8005d9a <HAL_RCC_ClockConfig+0x1b6>
  }
}
#endif /* FLASH_ACR_LATENCY */

/*-------------------------- PCLK1 Configuration ---------------------------*/
if (((RCC_ClkInitStruct->ClockType) & RCC_CLOCKTYPE_PCLK1) == RCC_CLOCKTYPE_PCLK1)
 8005d34:	687b      	ldr	r3, [r7, #4]
 8005d36:	681b      	ldr	r3, [r3, #0]
 8005d38:	f003 0304 	and.w	r3, r3, #4
 8005d3c:	2b00      	cmp	r3, #0
 8005d3e:	d008      	beq.n	8005d52 <HAL_RCC_ClockConfig+0x16e>
  {
    assert_param(IS_RCC_PCLK(RCC_ClkInitStruct->APB1CLKDivider));
    MODIFY_REG(RCC->CFGR, RCC_CFGR_PPRE1, RCC_ClkInitStruct->APB1CLKDivider);
 8005d40:	4b19      	ldr	r3, [pc, #100]	; (8005da8 <HAL_RCC_ClockConfig+0x1c4>)
 8005d42:	685b      	ldr	r3, [r3, #4]
 8005d44:	f423 62e0 	bic.w	r2, r3, #1792	; 0x700
 8005d48:	687b      	ldr	r3, [r7, #4]
 8005d4a:	68db      	ldr	r3, [r3, #12]
 8005d4c:	4916      	ldr	r1, [pc, #88]	; (8005da8 <HAL_RCC_ClockConfig+0x1c4>)
 8005d4e:	4313      	orrs	r3, r2
 8005d50:	604b      	str	r3, [r1, #4]
  }

  /*-------------------------- PCLK2 Configuration ---------------------------*/
  if (((RCC_ClkInitStruct->ClockType) & RCC_CLOCKTYPE_PCLK2) == RCC_CLOCKTYPE_PCLK2)
 8005d52:	687b      	ldr	r3, [r7, #4]
 8005d54:	681b      	ldr	r3, [r3, #0]
 8005d56:	f003 0308 	and.w	r3, r3, #8
 8005d5a:	2b00      	cmp	r3, #0
 8005d5c:	d009      	beq.n	8005d72 <HAL_RCC_ClockConfig+0x18e>
  {
    assert_param(IS_RCC_PCLK(RCC_ClkInitStruct->APB2CLKDivider));
    MODIFY_REG(RCC->CFGR, RCC_CFGR_PPRE2, ((RCC_ClkInitStruct->APB2CLKDivider) << 3));
 8005d5e:	4b12      	ldr	r3, [pc, #72]	; (8005da8 <HAL_RCC_ClockConfig+0x1c4>)
 8005d60:	685b      	ldr	r3, [r3, #4]
 8005d62:	f423 5260 	bic.w	r2, r3, #14336	; 0x3800
 8005d66:	687b      	ldr	r3, [r7, #4]
 8005d68:	691b      	ldr	r3, [r3, #16]
 8005d6a:	00db      	lsls	r3, r3, #3
 8005d6c:	490e      	ldr	r1, [pc, #56]	; (8005da8 <HAL_RCC_ClockConfig+0x1c4>)
 8005d6e:	4313      	orrs	r3, r2
 8005d70:	604b      	str	r3, [r1, #4]
  }

  /* Update the SystemCoreClock global variable */
  SystemCoreClock = HAL_RCC_GetSysClockFreq() >> AHBPrescTable[(RCC->CFGR & RCC_CFGR_HPRE) >> RCC_CFGR_HPRE_Pos];
 8005d72:	f000 f821 	bl	8005db8 <HAL_RCC_GetSysClockFreq>
 8005d76:	4602      	mov	r2, r0
 8005d78:	4b0b      	ldr	r3, [pc, #44]	; (8005da8 <HAL_RCC_ClockConfig+0x1c4>)
 8005d7a:	685b      	ldr	r3, [r3, #4]
 8005d7c:	091b      	lsrs	r3, r3, #4
 8005d7e:	f003 030f 	and.w	r3, r3, #15
 8005d82:	490a      	ldr	r1, [pc, #40]	; (8005dac <HAL_RCC_ClockConfig+0x1c8>)
 8005d84:	5ccb      	ldrb	r3, [r1, r3]
 8005d86:	fa22 f303 	lsr.w	r3, r2, r3
 8005d8a:	4a09      	ldr	r2, [pc, #36]	; (8005db0 <HAL_RCC_ClockConfig+0x1cc>)
 8005d8c:	6013      	str	r3, [r2, #0]

  /* Configure the source of time base considering new system clocks settings*/
  HAL_InitTick(uwTickPrio);
 8005d8e:	4b09      	ldr	r3, [pc, #36]	; (8005db4 <HAL_RCC_ClockConfig+0x1d0>)
 8005d90:	681b      	ldr	r3, [r3, #0]
 8005d92:	4618      	mov	r0, r3
 8005d94:	f7fd fa96 	bl	80032c4 <HAL_InitTick>

  return HAL_OK;
 8005d98:	2300      	movs	r3, #0
}
 8005d9a:	4618      	mov	r0, r3
 8005d9c:	3710      	adds	r7, #16
 8005d9e:	46bd      	mov	sp, r7
 8005da0:	bd80      	pop	{r7, pc}
 8005da2:	bf00      	nop
 8005da4:	40022000 	.word	0x40022000
 8005da8:	40021000 	.word	0x40021000
 8005dac:	08007b34 	.word	0x08007b34
 8005db0:	20000014 	.word	0x20000014
 8005db4:	20000018 	.word	0x20000018

08005db8 <HAL_RCC_GetSysClockFreq>:
  *         right SYSCLK value. Otherwise, any configuration based on this function will be incorrect.
  *
  * @retval SYSCLK frequency
  */
uint32_t HAL_RCC_GetSysClockFreq(void)
{
 8005db8:	b490      	push	{r4, r7}
 8005dba:	b08a      	sub	sp, #40	; 0x28
 8005dbc:	af00      	add	r7, sp, #0
#if defined(RCC_CFGR2_PREDIV1SRC)
  const uint8_t aPLLMULFactorTable[14] = {0, 0, 4, 5, 6, 7, 8, 9, 0, 0, 0, 0, 0, 13};
  const uint8_t aPredivFactorTable[16] = {1, 2, 3, 4, 5, 6, 7, 8, 9, 10, 11, 12, 13, 14, 15, 16};
#else
  const uint8_t aPLLMULFactorTable[16] = {2, 3, 4, 5, 6, 7, 8, 9, 10, 11, 12, 13, 14, 15, 16, 16};
 8005dbe:	4b2a      	ldr	r3, [pc, #168]	; (8005e68 <HAL_RCC_GetSysClockFreq+0xb0>)
 8005dc0:	1d3c      	adds	r4, r7, #4
 8005dc2:	cb0f      	ldmia	r3, {r0, r1, r2, r3}
 8005dc4:	e884 000f 	stmia.w	r4, {r0, r1, r2, r3}
#if defined(RCC_CFGR2_PREDIV1)
  const uint8_t aPredivFactorTable[16] = {1, 2, 3, 4, 5, 6, 7, 8, 9, 10, 11, 12, 13, 14, 15, 16};
#else
  const uint8_t aPredivFactorTable[2] = {1, 2};
 8005dc8:	f240 2301 	movw	r3, #513	; 0x201
 8005dcc:	803b      	strh	r3, [r7, #0]
#endif /*RCC_CFGR2_PREDIV1*/

#endif
  uint32_t tmpreg = 0U, prediv = 0U, pllclk = 0U, pllmul = 0U;
 8005dce:	2300      	movs	r3, #0
 8005dd0:	61fb      	str	r3, [r7, #28]
 8005dd2:	2300      	movs	r3, #0
 8005dd4:	61bb      	str	r3, [r7, #24]
 8005dd6:	2300      	movs	r3, #0
 8005dd8:	627b      	str	r3, [r7, #36]	; 0x24
 8005dda:	2300      	movs	r3, #0
 8005ddc:	617b      	str	r3, [r7, #20]
  uint32_t sysclockfreq = 0U;
 8005dde:	2300      	movs	r3, #0
 8005de0:	623b      	str	r3, [r7, #32]
#if defined(RCC_CFGR2_PREDIV1SRC)
  uint32_t prediv2 = 0U, pll2mul = 0U;
#endif /*RCC_CFGR2_PREDIV1SRC*/

  tmpreg = RCC->CFGR;
 8005de2:	4b22      	ldr	r3, [pc, #136]	; (8005e6c <HAL_RCC_GetSysClockFreq+0xb4>)
 8005de4:	685b      	ldr	r3, [r3, #4]
 8005de6:	61fb      	str	r3, [r7, #28]

  /* Get SYSCLK source -------------------------------------------------------*/
  switch (tmpreg & RCC_CFGR_SWS)
 8005de8:	69fb      	ldr	r3, [r7, #28]
 8005dea:	f003 030c 	and.w	r3, r3, #12
 8005dee:	2b04      	cmp	r3, #4
 8005df0:	d002      	beq.n	8005df8 <HAL_RCC_GetSysClockFreq+0x40>
 8005df2:	2b08      	cmp	r3, #8
 8005df4:	d003      	beq.n	8005dfe <HAL_RCC_GetSysClockFreq+0x46>
 8005df6:	e02d      	b.n	8005e54 <HAL_RCC_GetSysClockFreq+0x9c>
  {
    case RCC_SYSCLKSOURCE_STATUS_HSE:  /* HSE used as system clock */
    {
      sysclockfreq = HSE_VALUE;
 8005df8:	4b1d      	ldr	r3, [pc, #116]	; (8005e70 <HAL_RCC_GetSysClockFreq+0xb8>)
 8005dfa:	623b      	str	r3, [r7, #32]
      break;
 8005dfc:	e02d      	b.n	8005e5a <HAL_RCC_GetSysClockFreq+0xa2>
    }
    case RCC_SYSCLKSOURCE_STATUS_PLLCLK:  /* PLL used as system clock */
    {
      pllmul = aPLLMULFactorTable[(uint32_t)(tmpreg & RCC_CFGR_PLLMULL) >> RCC_CFGR_PLLMULL_Pos];
 8005dfe:	69fb      	ldr	r3, [r7, #28]
 8005e00:	0c9b      	lsrs	r3, r3, #18
 8005e02:	f003 030f 	and.w	r3, r3, #15
 8005e06:	f107 0228 	add.w	r2, r7, #40	; 0x28
 8005e0a:	4413      	add	r3, r2
 8005e0c:	f813 3c24 	ldrb.w	r3, [r3, #-36]
 8005e10:	617b      	str	r3, [r7, #20]
      if ((tmpreg & RCC_CFGR_PLLSRC) != RCC_PLLSOURCE_HSI_DIV2)
 8005e12:	69fb      	ldr	r3, [r7, #28]
 8005e14:	f403 3380 	and.w	r3, r3, #65536	; 0x10000
 8005e18:	2b00      	cmp	r3, #0
 8005e1a:	d013      	beq.n	8005e44 <HAL_RCC_GetSysClockFreq+0x8c>
      {
#if defined(RCC_CFGR2_PREDIV1)
        prediv = aPredivFactorTable[(uint32_t)(RCC->CFGR2 & RCC_CFGR2_PREDIV1) >> RCC_CFGR2_PREDIV1_Pos];
#else
        prediv = aPredivFactorTable[(uint32_t)(RCC->CFGR & RCC_CFGR_PLLXTPRE) >> RCC_CFGR_PLLXTPRE_Pos];
 8005e1c:	4b13      	ldr	r3, [pc, #76]	; (8005e6c <HAL_RCC_GetSysClockFreq+0xb4>)
 8005e1e:	685b      	ldr	r3, [r3, #4]
 8005e20:	0c5b      	lsrs	r3, r3, #17
 8005e22:	f003 0301 	and.w	r3, r3, #1
 8005e26:	f107 0228 	add.w	r2, r7, #40	; 0x28
 8005e2a:	4413      	add	r3, r2
 8005e2c:	f813 3c28 	ldrb.w	r3, [r3, #-40]
 8005e30:	61bb      	str	r3, [r7, #24]
        {
          pllclk = pllclk / 2;
        }
#else
        /* HSE used as PLL clock source : PLLCLK = HSE/PREDIV1 * PLLMUL */
        pllclk = (uint32_t)((HSE_VALUE  * pllmul) / prediv);
 8005e32:	697b      	ldr	r3, [r7, #20]
 8005e34:	4a0e      	ldr	r2, [pc, #56]	; (8005e70 <HAL_RCC_GetSysClockFreq+0xb8>)
 8005e36:	fb02 f203 	mul.w	r2, r2, r3
 8005e3a:	69bb      	ldr	r3, [r7, #24]
 8005e3c:	fbb2 f3f3 	udiv	r3, r2, r3
 8005e40:	627b      	str	r3, [r7, #36]	; 0x24
 8005e42:	e004      	b.n	8005e4e <HAL_RCC_GetSysClockFreq+0x96>
#endif /*RCC_CFGR2_PREDIV1SRC*/
      }
      else
      {
        /* HSI used as PLL clock source : PLLCLK = HSI/2 * PLLMUL */
        pllclk = (uint32_t)((HSI_VALUE >> 1) * pllmul);
 8005e44:	697b      	ldr	r3, [r7, #20]
 8005e46:	4a0b      	ldr	r2, [pc, #44]	; (8005e74 <HAL_RCC_GetSysClockFreq+0xbc>)
 8005e48:	fb02 f303 	mul.w	r3, r2, r3
 8005e4c:	627b      	str	r3, [r7, #36]	; 0x24
      }
      sysclockfreq = pllclk;
 8005e4e:	6a7b      	ldr	r3, [r7, #36]	; 0x24
 8005e50:	623b      	str	r3, [r7, #32]
      break;
 8005e52:	e002      	b.n	8005e5a <HAL_RCC_GetSysClockFreq+0xa2>
    }
    case RCC_SYSCLKSOURCE_STATUS_HSI:  /* HSI used as system clock source */
    default: /* HSI used as system clock */
    {
      sysclockfreq = HSI_VALUE;
 8005e54:	4b06      	ldr	r3, [pc, #24]	; (8005e70 <HAL_RCC_GetSysClockFreq+0xb8>)
 8005e56:	623b      	str	r3, [r7, #32]
      break;
 8005e58:	bf00      	nop
    }
  }
  return sysclockfreq;
 8005e5a:	6a3b      	ldr	r3, [r7, #32]
}
 8005e5c:	4618      	mov	r0, r3
 8005e5e:	3728      	adds	r7, #40	; 0x28
 8005e60:	46bd      	mov	sp, r7
 8005e62:	bc90      	pop	{r4, r7}
 8005e64:	4770      	bx	lr
 8005e66:	bf00      	nop
 8005e68:	08006dc8 	.word	0x08006dc8
 8005e6c:	40021000 	.word	0x40021000
 8005e70:	007a1200 	.word	0x007a1200
 8005e74:	003d0900 	.word	0x003d0900

08005e78 <HAL_RCC_GetHCLKFreq>:
  * @note   The SystemCoreClock CMSIS variable is used to store System Clock Frequency
  *         and updated within this function
  * @retval HCLK frequency
  */
uint32_t HAL_RCC_GetHCLKFreq(void)
{
 8005e78:	b480      	push	{r7}
 8005e7a:	af00      	add	r7, sp, #0
  return SystemCoreClock;
 8005e7c:	4b02      	ldr	r3, [pc, #8]	; (8005e88 <HAL_RCC_GetHCLKFreq+0x10>)
 8005e7e:	681b      	ldr	r3, [r3, #0]
}
 8005e80:	4618      	mov	r0, r3
 8005e82:	46bd      	mov	sp, r7
 8005e84:	bc80      	pop	{r7}
 8005e86:	4770      	bx	lr
 8005e88:	20000014 	.word	0x20000014

08005e8c <HAL_RCC_GetPCLK1Freq>:
  * @note   Each time PCLK1 changes, this function must be called to update the
  *         right PCLK1 value. Otherwise, any configuration based on this function will be incorrect.
  * @retval PCLK1 frequency
  */
uint32_t HAL_RCC_GetPCLK1Freq(void)
{
 8005e8c:	b580      	push	{r7, lr}
 8005e8e:	af00      	add	r7, sp, #0
  /* Get HCLK source and Compute PCLK1 frequency ---------------------------*/
  return (HAL_RCC_GetHCLKFreq() >> APBPrescTable[(RCC->CFGR & RCC_CFGR_PPRE1) >> RCC_CFGR_PPRE1_Pos]);
 8005e90:	f7ff fff2 	bl	8005e78 <HAL_RCC_GetHCLKFreq>
 8005e94:	4602      	mov	r2, r0
 8005e96:	4b05      	ldr	r3, [pc, #20]	; (8005eac <HAL_RCC_GetPCLK1Freq+0x20>)
 8005e98:	685b      	ldr	r3, [r3, #4]
 8005e9a:	0a1b      	lsrs	r3, r3, #8
 8005e9c:	f003 0307 	and.w	r3, r3, #7
 8005ea0:	4903      	ldr	r1, [pc, #12]	; (8005eb0 <HAL_RCC_GetPCLK1Freq+0x24>)
 8005ea2:	5ccb      	ldrb	r3, [r1, r3]
 8005ea4:	fa22 f303 	lsr.w	r3, r2, r3
}
 8005ea8:	4618      	mov	r0, r3
 8005eaa:	bd80      	pop	{r7, pc}
 8005eac:	40021000 	.word	0x40021000
 8005eb0:	08007b44 	.word	0x08007b44

08005eb4 <RCC_Delay>:
  * @brief  This function provides delay (in milliseconds) based on CPU cycles method.
  * @param  mdelay: specifies the delay time length, in milliseconds.
  * @retval None
  */
static void RCC_Delay(uint32_t mdelay)
{
 8005eb4:	b480      	push	{r7}
 8005eb6:	b085      	sub	sp, #20
 8005eb8:	af00      	add	r7, sp, #0
 8005eba:	6078      	str	r0, [r7, #4]
  __IO uint32_t Delay = mdelay * (SystemCoreClock / 8U / 1000U);
 8005ebc:	4b0a      	ldr	r3, [pc, #40]	; (8005ee8 <RCC_Delay+0x34>)
 8005ebe:	681b      	ldr	r3, [r3, #0]
 8005ec0:	4a0a      	ldr	r2, [pc, #40]	; (8005eec <RCC_Delay+0x38>)
 8005ec2:	fba2 2303 	umull	r2, r3, r2, r3
 8005ec6:	0a5b      	lsrs	r3, r3, #9
 8005ec8:	687a      	ldr	r2, [r7, #4]
 8005eca:	fb02 f303 	mul.w	r3, r2, r3
 8005ece:	60fb      	str	r3, [r7, #12]
  do
  {
    __NOP();
 8005ed0:	bf00      	nop
  }
  while (Delay --);
 8005ed2:	68fb      	ldr	r3, [r7, #12]
 8005ed4:	1e5a      	subs	r2, r3, #1
 8005ed6:	60fa      	str	r2, [r7, #12]
 8005ed8:	2b00      	cmp	r3, #0
 8005eda:	d1f9      	bne.n	8005ed0 <RCC_Delay+0x1c>
}
 8005edc:	bf00      	nop
 8005ede:	bf00      	nop
 8005ee0:	3714      	adds	r7, #20
 8005ee2:	46bd      	mov	sp, r7
 8005ee4:	bc80      	pop	{r7}
 8005ee6:	4770      	bx	lr
 8005ee8:	20000014 	.word	0x20000014
 8005eec:	10624dd3 	.word	0x10624dd3

08005ef0 <HAL_RCCEx_PeriphCLKConfig>:
  *         manually disable it.
  *
  * @retval HAL status
  */
HAL_StatusTypeDef HAL_RCCEx_PeriphCLKConfig(RCC_PeriphCLKInitTypeDef  *PeriphClkInit)
{
 8005ef0:	b580      	push	{r7, lr}
 8005ef2:	b086      	sub	sp, #24
 8005ef4:	af00      	add	r7, sp, #0
 8005ef6:	6078      	str	r0, [r7, #4]
  uint32_t tickstart = 0U, temp_reg = 0U;
 8005ef8:	2300      	movs	r3, #0
 8005efa:	613b      	str	r3, [r7, #16]
 8005efc:	2300      	movs	r3, #0
 8005efe:	60fb      	str	r3, [r7, #12]

  /* Check the parameters */
  assert_param(IS_RCC_PERIPHCLOCK(PeriphClkInit->PeriphClockSelection));

  /*------------------------------- RTC/LCD Configuration ------------------------*/
  if ((((PeriphClkInit->PeriphClockSelection) & RCC_PERIPHCLK_RTC) == RCC_PERIPHCLK_RTC))
 8005f00:	687b      	ldr	r3, [r7, #4]
 8005f02:	681b      	ldr	r3, [r3, #0]
 8005f04:	f003 0301 	and.w	r3, r3, #1
 8005f08:	2b00      	cmp	r3, #0
 8005f0a:	d07d      	beq.n	8006008 <HAL_RCCEx_PeriphCLKConfig+0x118>
  {
    FlagStatus pwrclkchanged = RESET;
 8005f0c:	2300      	movs	r3, #0
 8005f0e:	75fb      	strb	r3, [r7, #23]
    assert_param(IS_RCC_RTCCLKSOURCE(PeriphClkInit->RTCClockSelection));

    /* As soon as function is called to change RTC clock source, activation of the
       power domain is done. */
    /* Requires to enable write access to Backup Domain of necessary */
    if (__HAL_RCC_PWR_IS_CLK_DISABLED())
 8005f10:	4b4f      	ldr	r3, [pc, #316]	; (8006050 <HAL_RCCEx_PeriphCLKConfig+0x160>)
 8005f12:	69db      	ldr	r3, [r3, #28]
 8005f14:	f003 5380 	and.w	r3, r3, #268435456	; 0x10000000
 8005f18:	2b00      	cmp	r3, #0
 8005f1a:	d10d      	bne.n	8005f38 <HAL_RCCEx_PeriphCLKConfig+0x48>
    {
      __HAL_RCC_PWR_CLK_ENABLE();
 8005f1c:	4b4c      	ldr	r3, [pc, #304]	; (8006050 <HAL_RCCEx_PeriphCLKConfig+0x160>)
 8005f1e:	69db      	ldr	r3, [r3, #28]
 8005f20:	4a4b      	ldr	r2, [pc, #300]	; (8006050 <HAL_RCCEx_PeriphCLKConfig+0x160>)
 8005f22:	f043 5380 	orr.w	r3, r3, #268435456	; 0x10000000
 8005f26:	61d3      	str	r3, [r2, #28]
 8005f28:	4b49      	ldr	r3, [pc, #292]	; (8006050 <HAL_RCCEx_PeriphCLKConfig+0x160>)
 8005f2a:	69db      	ldr	r3, [r3, #28]
 8005f2c:	f003 5380 	and.w	r3, r3, #268435456	; 0x10000000
 8005f30:	60bb      	str	r3, [r7, #8]
 8005f32:	68bb      	ldr	r3, [r7, #8]
      pwrclkchanged = SET;
 8005f34:	2301      	movs	r3, #1
 8005f36:	75fb      	strb	r3, [r7, #23]
    }

    if (HAL_IS_BIT_CLR(PWR->CR, PWR_CR_DBP))
 8005f38:	4b46      	ldr	r3, [pc, #280]	; (8006054 <HAL_RCCEx_PeriphCLKConfig+0x164>)
 8005f3a:	681b      	ldr	r3, [r3, #0]
 8005f3c:	f403 7380 	and.w	r3, r3, #256	; 0x100
 8005f40:	2b00      	cmp	r3, #0
 8005f42:	d118      	bne.n	8005f76 <HAL_RCCEx_PeriphCLKConfig+0x86>
    {
      /* Enable write access to Backup domain */
      SET_BIT(PWR->CR, PWR_CR_DBP);
 8005f44:	4b43      	ldr	r3, [pc, #268]	; (8006054 <HAL_RCCEx_PeriphCLKConfig+0x164>)
 8005f46:	681b      	ldr	r3, [r3, #0]
 8005f48:	4a42      	ldr	r2, [pc, #264]	; (8006054 <HAL_RCCEx_PeriphCLKConfig+0x164>)
 8005f4a:	f443 7380 	orr.w	r3, r3, #256	; 0x100
 8005f4e:	6013      	str	r3, [r2, #0]

      /* Wait for Backup domain Write protection disable */
      tickstart = HAL_GetTick();
 8005f50:	f7fd f9fa 	bl	8003348 <HAL_GetTick>
 8005f54:	6138      	str	r0, [r7, #16]

      while (HAL_IS_BIT_CLR(PWR->CR, PWR_CR_DBP))
 8005f56:	e008      	b.n	8005f6a <HAL_RCCEx_PeriphCLKConfig+0x7a>
      {
        if ((HAL_GetTick() - tickstart) > RCC_DBP_TIMEOUT_VALUE)
 8005f58:	f7fd f9f6 	bl	8003348 <HAL_GetTick>
 8005f5c:	4602      	mov	r2, r0
 8005f5e:	693b      	ldr	r3, [r7, #16]
 8005f60:	1ad3      	subs	r3, r2, r3
 8005f62:	2b64      	cmp	r3, #100	; 0x64
 8005f64:	d901      	bls.n	8005f6a <HAL_RCCEx_PeriphCLKConfig+0x7a>
        {
          return HAL_TIMEOUT;
 8005f66:	2303      	movs	r3, #3
 8005f68:	e06d      	b.n	8006046 <HAL_RCCEx_PeriphCLKConfig+0x156>
      while (HAL_IS_BIT_CLR(PWR->CR, PWR_CR_DBP))
 8005f6a:	4b3a      	ldr	r3, [pc, #232]	; (8006054 <HAL_RCCEx_PeriphCLKConfig+0x164>)
 8005f6c:	681b      	ldr	r3, [r3, #0]
 8005f6e:	f403 7380 	and.w	r3, r3, #256	; 0x100
 8005f72:	2b00      	cmp	r3, #0
 8005f74:	d0f0      	beq.n	8005f58 <HAL_RCCEx_PeriphCLKConfig+0x68>
        }
      }
    }

    /* Reset the Backup domain only if the RTC Clock source selection is modified from reset value */
    temp_reg = (RCC->BDCR & RCC_BDCR_RTCSEL);
 8005f76:	4b36      	ldr	r3, [pc, #216]	; (8006050 <HAL_RCCEx_PeriphCLKConfig+0x160>)
 8005f78:	6a1b      	ldr	r3, [r3, #32]
 8005f7a:	f403 7340 	and.w	r3, r3, #768	; 0x300
 8005f7e:	60fb      	str	r3, [r7, #12]
    if ((temp_reg != 0x00000000U) && (temp_reg != (PeriphClkInit->RTCClockSelection & RCC_BDCR_RTCSEL)))
 8005f80:	68fb      	ldr	r3, [r7, #12]
 8005f82:	2b00      	cmp	r3, #0
 8005f84:	d02e      	beq.n	8005fe4 <HAL_RCCEx_PeriphCLKConfig+0xf4>
 8005f86:	687b      	ldr	r3, [r7, #4]
 8005f88:	685b      	ldr	r3, [r3, #4]
 8005f8a:	f403 7340 	and.w	r3, r3, #768	; 0x300
 8005f8e:	68fa      	ldr	r2, [r7, #12]
 8005f90:	429a      	cmp	r2, r3
 8005f92:	d027      	beq.n	8005fe4 <HAL_RCCEx_PeriphCLKConfig+0xf4>
    {
      /* Store the content of BDCR register before the reset of Backup Domain */
      temp_reg = (RCC->BDCR & ~(RCC_BDCR_RTCSEL));
 8005f94:	4b2e      	ldr	r3, [pc, #184]	; (8006050 <HAL_RCCEx_PeriphCLKConfig+0x160>)
 8005f96:	6a1b      	ldr	r3, [r3, #32]
 8005f98:	f423 7340 	bic.w	r3, r3, #768	; 0x300
 8005f9c:	60fb      	str	r3, [r7, #12]
      /* RTC Clock selection can be changed only if the Backup Domain is reset */
      __HAL_RCC_BACKUPRESET_FORCE();
 8005f9e:	4b2e      	ldr	r3, [pc, #184]	; (8006058 <HAL_RCCEx_PeriphCLKConfig+0x168>)
 8005fa0:	2201      	movs	r2, #1
 8005fa2:	601a      	str	r2, [r3, #0]
      __HAL_RCC_BACKUPRESET_RELEASE();
 8005fa4:	4b2c      	ldr	r3, [pc, #176]	; (8006058 <HAL_RCCEx_PeriphCLKConfig+0x168>)
 8005fa6:	2200      	movs	r2, #0
 8005fa8:	601a      	str	r2, [r3, #0]
      /* Restore the Content of BDCR register */
      RCC->BDCR = temp_reg;
 8005faa:	4a29      	ldr	r2, [pc, #164]	; (8006050 <HAL_RCCEx_PeriphCLKConfig+0x160>)
 8005fac:	68fb      	ldr	r3, [r7, #12]
 8005fae:	6213      	str	r3, [r2, #32]

      /* Wait for LSERDY if LSE was enabled */
      if (HAL_IS_BIT_SET(temp_reg, RCC_BDCR_LSEON))
 8005fb0:	68fb      	ldr	r3, [r7, #12]
 8005fb2:	f003 0301 	and.w	r3, r3, #1
 8005fb6:	2b00      	cmp	r3, #0
 8005fb8:	d014      	beq.n	8005fe4 <HAL_RCCEx_PeriphCLKConfig+0xf4>
      {
        /* Get Start Tick */
        tickstart = HAL_GetTick();
 8005fba:	f7fd f9c5 	bl	8003348 <HAL_GetTick>
 8005fbe:	6138      	str	r0, [r7, #16]

        /* Wait till LSE is ready */
        while (__HAL_RCC_GET_FLAG(RCC_FLAG_LSERDY) == RESET)
 8005fc0:	e00a      	b.n	8005fd8 <HAL_RCCEx_PeriphCLKConfig+0xe8>
        {
          if ((HAL_GetTick() - tickstart) > RCC_LSE_TIMEOUT_VALUE)
 8005fc2:	f7fd f9c1 	bl	8003348 <HAL_GetTick>
 8005fc6:	4602      	mov	r2, r0
 8005fc8:	693b      	ldr	r3, [r7, #16]
 8005fca:	1ad3      	subs	r3, r2, r3
 8005fcc:	f241 3288 	movw	r2, #5000	; 0x1388
 8005fd0:	4293      	cmp	r3, r2
 8005fd2:	d901      	bls.n	8005fd8 <HAL_RCCEx_PeriphCLKConfig+0xe8>
          {
            return HAL_TIMEOUT;
 8005fd4:	2303      	movs	r3, #3
 8005fd6:	e036      	b.n	8006046 <HAL_RCCEx_PeriphCLKConfig+0x156>
        while (__HAL_RCC_GET_FLAG(RCC_FLAG_LSERDY) == RESET)
 8005fd8:	4b1d      	ldr	r3, [pc, #116]	; (8006050 <HAL_RCCEx_PeriphCLKConfig+0x160>)
 8005fda:	6a1b      	ldr	r3, [r3, #32]
 8005fdc:	f003 0302 	and.w	r3, r3, #2
 8005fe0:	2b00      	cmp	r3, #0
 8005fe2:	d0ee      	beq.n	8005fc2 <HAL_RCCEx_PeriphCLKConfig+0xd2>
          }
        }
      }
    }
    __HAL_RCC_RTC_CONFIG(PeriphClkInit->RTCClockSelection);
 8005fe4:	4b1a      	ldr	r3, [pc, #104]	; (8006050 <HAL_RCCEx_PeriphCLKConfig+0x160>)
 8005fe6:	6a1b      	ldr	r3, [r3, #32]
 8005fe8:	f423 7240 	bic.w	r2, r3, #768	; 0x300
 8005fec:	687b      	ldr	r3, [r7, #4]
 8005fee:	685b      	ldr	r3, [r3, #4]
 8005ff0:	4917      	ldr	r1, [pc, #92]	; (8006050 <HAL_RCCEx_PeriphCLKConfig+0x160>)
 8005ff2:	4313      	orrs	r3, r2
 8005ff4:	620b      	str	r3, [r1, #32]

    /* Require to disable power clock if necessary */
    if (pwrclkchanged == SET)
 8005ff6:	7dfb      	ldrb	r3, [r7, #23]
 8005ff8:	2b01      	cmp	r3, #1
 8005ffa:	d105      	bne.n	8006008 <HAL_RCCEx_PeriphCLKConfig+0x118>
    {
      __HAL_RCC_PWR_CLK_DISABLE();
 8005ffc:	4b14      	ldr	r3, [pc, #80]	; (8006050 <HAL_RCCEx_PeriphCLKConfig+0x160>)
 8005ffe:	69db      	ldr	r3, [r3, #28]
 8006000:	4a13      	ldr	r2, [pc, #76]	; (8006050 <HAL_RCCEx_PeriphCLKConfig+0x160>)
 8006002:	f023 5380 	bic.w	r3, r3, #268435456	; 0x10000000
 8006006:	61d3      	str	r3, [r2, #28]
    }
  }

  /*------------------------------ ADC clock Configuration ------------------*/
  if (((PeriphClkInit->PeriphClockSelection) & RCC_PERIPHCLK_ADC) == RCC_PERIPHCLK_ADC)
 8006008:	687b      	ldr	r3, [r7, #4]
 800600a:	681b      	ldr	r3, [r3, #0]
 800600c:	f003 0302 	and.w	r3, r3, #2
 8006010:	2b00      	cmp	r3, #0
 8006012:	d008      	beq.n	8006026 <HAL_RCCEx_PeriphCLKConfig+0x136>
  {
    /* Check the parameters */
    assert_param(IS_RCC_ADCPLLCLK_DIV(PeriphClkInit->AdcClockSelection));

    /* Configure the ADC clock source */
    __HAL_RCC_ADC_CONFIG(PeriphClkInit->AdcClockSelection);
 8006014:	4b0e      	ldr	r3, [pc, #56]	; (8006050 <HAL_RCCEx_PeriphCLKConfig+0x160>)
 8006016:	685b      	ldr	r3, [r3, #4]
 8006018:	f423 4240 	bic.w	r2, r3, #49152	; 0xc000
 800601c:	687b      	ldr	r3, [r7, #4]
 800601e:	689b      	ldr	r3, [r3, #8]
 8006020:	490b      	ldr	r1, [pc, #44]	; (8006050 <HAL_RCCEx_PeriphCLKConfig+0x160>)
 8006022:	4313      	orrs	r3, r2
 8006024:	604b      	str	r3, [r1, #4]

#if defined(STM32F102x6) || defined(STM32F102xB) || defined(STM32F103x6)\
 || defined(STM32F103xB) || defined(STM32F103xE) || defined(STM32F103xG)\
 || defined(STM32F105xC) || defined(STM32F107xC)
  /*------------------------------ USB clock Configuration ------------------*/
  if (((PeriphClkInit->PeriphClockSelection) & RCC_PERIPHCLK_USB) == RCC_PERIPHCLK_USB)
 8006026:	687b      	ldr	r3, [r7, #4]
 8006028:	681b      	ldr	r3, [r3, #0]
 800602a:	f003 0310 	and.w	r3, r3, #16
 800602e:	2b00      	cmp	r3, #0
 8006030:	d008      	beq.n	8006044 <HAL_RCCEx_PeriphCLKConfig+0x154>
  {
    /* Check the parameters */
    assert_param(IS_RCC_USBPLLCLK_DIV(PeriphClkInit->UsbClockSelection));

    /* Configure the USB clock source */
    __HAL_RCC_USB_CONFIG(PeriphClkInit->UsbClockSelection);
 8006032:	4b07      	ldr	r3, [pc, #28]	; (8006050 <HAL_RCCEx_PeriphCLKConfig+0x160>)
 8006034:	685b      	ldr	r3, [r3, #4]
 8006036:	f423 0280 	bic.w	r2, r3, #4194304	; 0x400000
 800603a:	687b      	ldr	r3, [r7, #4]
 800603c:	68db      	ldr	r3, [r3, #12]
 800603e:	4904      	ldr	r1, [pc, #16]	; (8006050 <HAL_RCCEx_PeriphCLKConfig+0x160>)
 8006040:	4313      	orrs	r3, r2
 8006042:	604b      	str	r3, [r1, #4]
  }
#endif /* STM32F102x6 || STM32F102xB || STM32F103x6 || STM32F103xB || STM32F103xE || STM32F103xG || STM32F105xC || STM32F107xC */

  return HAL_OK;
 8006044:	2300      	movs	r3, #0
}
 8006046:	4618      	mov	r0, r3
 8006048:	3718      	adds	r7, #24
 800604a:	46bd      	mov	sp, r7
 800604c:	bd80      	pop	{r7, pc}
 800604e:	bf00      	nop
 8006050:	40021000 	.word	0x40021000
 8006054:	40007000 	.word	0x40007000
 8006058:	42420440 	.word	0x42420440

0800605c <HAL_TIM_PWM_Init>:
  *         Ex: call @ref HAL_TIM_PWM_DeInit() before HAL_TIM_PWM_Init()
  * @param  htim TIM PWM handle
  * @retval HAL status
  */
HAL_StatusTypeDef HAL_TIM_PWM_Init(TIM_HandleTypeDef *htim)
{
 800605c:	b580      	push	{r7, lr}
 800605e:	b082      	sub	sp, #8
 8006060:	af00      	add	r7, sp, #0
 8006062:	6078      	str	r0, [r7, #4]
  /* Check the TIM handle allocation */
  if (htim == NULL)
 8006064:	687b      	ldr	r3, [r7, #4]
 8006066:	2b00      	cmp	r3, #0
 8006068:	d101      	bne.n	800606e <HAL_TIM_PWM_Init+0x12>
  {
    return HAL_ERROR;
 800606a:	2301      	movs	r3, #1
 800606c:	e041      	b.n	80060f2 <HAL_TIM_PWM_Init+0x96>
  assert_param(IS_TIM_INSTANCE(htim->Instance));
  assert_param(IS_TIM_COUNTER_MODE(htim->Init.CounterMode));
  assert_param(IS_TIM_CLOCKDIVISION_DIV(htim->Init.ClockDivision));
  assert_param(IS_TIM_AUTORELOAD_PRELOAD(htim->Init.AutoReloadPreload));

  if (htim->State == HAL_TIM_STATE_RESET)
 800606e:	687b      	ldr	r3, [r7, #4]
 8006070:	f893 303d 	ldrb.w	r3, [r3, #61]	; 0x3d
 8006074:	b2db      	uxtb	r3, r3
 8006076:	2b00      	cmp	r3, #0
 8006078:	d106      	bne.n	8006088 <HAL_TIM_PWM_Init+0x2c>
  {
    /* Allocate lock resource and initialize it */
    htim->Lock = HAL_UNLOCKED;
 800607a:	687b      	ldr	r3, [r7, #4]
 800607c:	2200      	movs	r2, #0
 800607e:	f883 203c 	strb.w	r2, [r3, #60]	; 0x3c
    }
    /* Init the low level hardware : GPIO, CLOCK, NVIC */
    htim->PWM_MspInitCallback(htim);
#else
    /* Init the low level hardware : GPIO, CLOCK, NVIC and DMA */
    HAL_TIM_PWM_MspInit(htim);
 8006082:	6878      	ldr	r0, [r7, #4]
 8006084:	f7fd f82e 	bl	80030e4 <HAL_TIM_PWM_MspInit>
#endif /* USE_HAL_TIM_REGISTER_CALLBACKS */
  }

  /* Set the TIM state */
  htim->State = HAL_TIM_STATE_BUSY;
 8006088:	687b      	ldr	r3, [r7, #4]
 800608a:	2202      	movs	r2, #2
 800608c:	f883 203d 	strb.w	r2, [r3, #61]	; 0x3d

  /* Init the base time for the PWM */
  TIM_Base_SetConfig(htim->Instance, &htim->Init);
 8006090:	687b      	ldr	r3, [r7, #4]
 8006092:	681a      	ldr	r2, [r3, #0]
 8006094:	687b      	ldr	r3, [r7, #4]
 8006096:	3304      	adds	r3, #4
 8006098:	4619      	mov	r1, r3
 800609a:	4610      	mov	r0, r2
 800609c:	f000 f98e 	bl	80063bc <TIM_Base_SetConfig>

  /* Initialize the DMA burst operation state */
  htim->DMABurstState = HAL_DMA_BURST_STATE_READY;
 80060a0:	687b      	ldr	r3, [r7, #4]
 80060a2:	2201      	movs	r2, #1
 80060a4:	f883 2046 	strb.w	r2, [r3, #70]	; 0x46

  /* Initialize the TIM channels state */
  TIM_CHANNEL_STATE_SET_ALL(htim, HAL_TIM_CHANNEL_STATE_READY);
 80060a8:	687b      	ldr	r3, [r7, #4]
 80060aa:	2201      	movs	r2, #1
 80060ac:	f883 203e 	strb.w	r2, [r3, #62]	; 0x3e
 80060b0:	687b      	ldr	r3, [r7, #4]
 80060b2:	2201      	movs	r2, #1
 80060b4:	f883 203f 	strb.w	r2, [r3, #63]	; 0x3f
 80060b8:	687b      	ldr	r3, [r7, #4]
 80060ba:	2201      	movs	r2, #1
 80060bc:	f883 2040 	strb.w	r2, [r3, #64]	; 0x40
 80060c0:	687b      	ldr	r3, [r7, #4]
 80060c2:	2201      	movs	r2, #1
 80060c4:	f883 2041 	strb.w	r2, [r3, #65]	; 0x41
  TIM_CHANNEL_N_STATE_SET_ALL(htim, HAL_TIM_CHANNEL_STATE_READY);
 80060c8:	687b      	ldr	r3, [r7, #4]
 80060ca:	2201      	movs	r2, #1
 80060cc:	f883 2042 	strb.w	r2, [r3, #66]	; 0x42
 80060d0:	687b      	ldr	r3, [r7, #4]
 80060d2:	2201      	movs	r2, #1
 80060d4:	f883 2043 	strb.w	r2, [r3, #67]	; 0x43
 80060d8:	687b      	ldr	r3, [r7, #4]
 80060da:	2201      	movs	r2, #1
 80060dc:	f883 2044 	strb.w	r2, [r3, #68]	; 0x44
 80060e0:	687b      	ldr	r3, [r7, #4]
 80060e2:	2201      	movs	r2, #1
 80060e4:	f883 2045 	strb.w	r2, [r3, #69]	; 0x45

  /* Initialize the TIM state*/
  htim->State = HAL_TIM_STATE_READY;
 80060e8:	687b      	ldr	r3, [r7, #4]
 80060ea:	2201      	movs	r2, #1
 80060ec:	f883 203d 	strb.w	r2, [r3, #61]	; 0x3d

  return HAL_OK;
 80060f0:	2300      	movs	r3, #0
}
 80060f2:	4618      	mov	r0, r3
 80060f4:	3708      	adds	r7, #8
 80060f6:	46bd      	mov	sp, r7
 80060f8:	bd80      	pop	{r7, pc}
	...

080060fc <HAL_TIM_PWM_Start>:
  *            @arg TIM_CHANNEL_3: TIM Channel 3 selected
  *            @arg TIM_CHANNEL_4: TIM Channel 4 selected
  * @retval HAL status
  */
HAL_StatusTypeDef HAL_TIM_PWM_Start(TIM_HandleTypeDef *htim, uint32_t Channel)
{
 80060fc:	b580      	push	{r7, lr}
 80060fe:	b084      	sub	sp, #16
 8006100:	af00      	add	r7, sp, #0
 8006102:	6078      	str	r0, [r7, #4]
 8006104:	6039      	str	r1, [r7, #0]

  /* Check the parameters */
  assert_param(IS_TIM_CCX_INSTANCE(htim->Instance, Channel));

  /* Check the TIM channel state */
  if (TIM_CHANNEL_STATE_GET(htim, Channel) != HAL_TIM_CHANNEL_STATE_READY)
 8006106:	683b      	ldr	r3, [r7, #0]
 8006108:	2b00      	cmp	r3, #0
 800610a:	d109      	bne.n	8006120 <HAL_TIM_PWM_Start+0x24>
 800610c:	687b      	ldr	r3, [r7, #4]
 800610e:	f893 303e 	ldrb.w	r3, [r3, #62]	; 0x3e
 8006112:	b2db      	uxtb	r3, r3
 8006114:	2b01      	cmp	r3, #1
 8006116:	bf14      	ite	ne
 8006118:	2301      	movne	r3, #1
 800611a:	2300      	moveq	r3, #0
 800611c:	b2db      	uxtb	r3, r3
 800611e:	e022      	b.n	8006166 <HAL_TIM_PWM_Start+0x6a>
 8006120:	683b      	ldr	r3, [r7, #0]
 8006122:	2b04      	cmp	r3, #4
 8006124:	d109      	bne.n	800613a <HAL_TIM_PWM_Start+0x3e>
 8006126:	687b      	ldr	r3, [r7, #4]
 8006128:	f893 303f 	ldrb.w	r3, [r3, #63]	; 0x3f
 800612c:	b2db      	uxtb	r3, r3
 800612e:	2b01      	cmp	r3, #1
 8006130:	bf14      	ite	ne
 8006132:	2301      	movne	r3, #1
 8006134:	2300      	moveq	r3, #0
 8006136:	b2db      	uxtb	r3, r3
 8006138:	e015      	b.n	8006166 <HAL_TIM_PWM_Start+0x6a>
 800613a:	683b      	ldr	r3, [r7, #0]
 800613c:	2b08      	cmp	r3, #8
 800613e:	d109      	bne.n	8006154 <HAL_TIM_PWM_Start+0x58>
 8006140:	687b      	ldr	r3, [r7, #4]
 8006142:	f893 3040 	ldrb.w	r3, [r3, #64]	; 0x40
 8006146:	b2db      	uxtb	r3, r3
 8006148:	2b01      	cmp	r3, #1
 800614a:	bf14      	ite	ne
 800614c:	2301      	movne	r3, #1
 800614e:	2300      	moveq	r3, #0
 8006150:	b2db      	uxtb	r3, r3
 8006152:	e008      	b.n	8006166 <HAL_TIM_PWM_Start+0x6a>
 8006154:	687b      	ldr	r3, [r7, #4]
 8006156:	f893 3041 	ldrb.w	r3, [r3, #65]	; 0x41
 800615a:	b2db      	uxtb	r3, r3
 800615c:	2b01      	cmp	r3, #1
 800615e:	bf14      	ite	ne
 8006160:	2301      	movne	r3, #1
 8006162:	2300      	moveq	r3, #0
 8006164:	b2db      	uxtb	r3, r3
 8006166:	2b00      	cmp	r3, #0
 8006168:	d001      	beq.n	800616e <HAL_TIM_PWM_Start+0x72>
  {
    return HAL_ERROR;
 800616a:	2301      	movs	r3, #1
 800616c:	e05e      	b.n	800622c <HAL_TIM_PWM_Start+0x130>
  }

  /* Set the TIM channel state */
  TIM_CHANNEL_STATE_SET(htim, Channel, HAL_TIM_CHANNEL_STATE_BUSY);
 800616e:	683b      	ldr	r3, [r7, #0]
 8006170:	2b00      	cmp	r3, #0
 8006172:	d104      	bne.n	800617e <HAL_TIM_PWM_Start+0x82>
 8006174:	687b      	ldr	r3, [r7, #4]
 8006176:	2202      	movs	r2, #2
 8006178:	f883 203e 	strb.w	r2, [r3, #62]	; 0x3e
 800617c:	e013      	b.n	80061a6 <HAL_TIM_PWM_Start+0xaa>
 800617e:	683b      	ldr	r3, [r7, #0]
 8006180:	2b04      	cmp	r3, #4
 8006182:	d104      	bne.n	800618e <HAL_TIM_PWM_Start+0x92>
 8006184:	687b      	ldr	r3, [r7, #4]
 8006186:	2202      	movs	r2, #2
 8006188:	f883 203f 	strb.w	r2, [r3, #63]	; 0x3f
 800618c:	e00b      	b.n	80061a6 <HAL_TIM_PWM_Start+0xaa>
 800618e:	683b      	ldr	r3, [r7, #0]
 8006190:	2b08      	cmp	r3, #8
 8006192:	d104      	bne.n	800619e <HAL_TIM_PWM_Start+0xa2>
 8006194:	687b      	ldr	r3, [r7, #4]
 8006196:	2202      	movs	r2, #2
 8006198:	f883 2040 	strb.w	r2, [r3, #64]	; 0x40
 800619c:	e003      	b.n	80061a6 <HAL_TIM_PWM_Start+0xaa>
 800619e:	687b      	ldr	r3, [r7, #4]
 80061a0:	2202      	movs	r2, #2
 80061a2:	f883 2041 	strb.w	r2, [r3, #65]	; 0x41

  /* Enable the Capture compare channel */
  TIM_CCxChannelCmd(htim->Instance, Channel, TIM_CCx_ENABLE);
 80061a6:	687b      	ldr	r3, [r7, #4]
 80061a8:	681b      	ldr	r3, [r3, #0]
 80061aa:	2201      	movs	r2, #1
 80061ac:	6839      	ldr	r1, [r7, #0]
 80061ae:	4618      	mov	r0, r3
 80061b0:	f000 faee 	bl	8006790 <TIM_CCxChannelCmd>

  if (IS_TIM_BREAK_INSTANCE(htim->Instance) != RESET)
 80061b4:	687b      	ldr	r3, [r7, #4]
 80061b6:	681b      	ldr	r3, [r3, #0]
 80061b8:	4a1e      	ldr	r2, [pc, #120]	; (8006234 <HAL_TIM_PWM_Start+0x138>)
 80061ba:	4293      	cmp	r3, r2
 80061bc:	d107      	bne.n	80061ce <HAL_TIM_PWM_Start+0xd2>
  {
    /* Enable the main output */
    __HAL_TIM_MOE_ENABLE(htim);
 80061be:	687b      	ldr	r3, [r7, #4]
 80061c0:	681b      	ldr	r3, [r3, #0]
 80061c2:	6c5a      	ldr	r2, [r3, #68]	; 0x44
 80061c4:	687b      	ldr	r3, [r7, #4]
 80061c6:	681b      	ldr	r3, [r3, #0]
 80061c8:	f442 4200 	orr.w	r2, r2, #32768	; 0x8000
 80061cc:	645a      	str	r2, [r3, #68]	; 0x44
  }

  /* Enable the Peripheral, except in trigger mode where enable is automatically done with trigger */
  if (IS_TIM_SLAVE_INSTANCE(htim->Instance))
 80061ce:	687b      	ldr	r3, [r7, #4]
 80061d0:	681b      	ldr	r3, [r3, #0]
 80061d2:	4a18      	ldr	r2, [pc, #96]	; (8006234 <HAL_TIM_PWM_Start+0x138>)
 80061d4:	4293      	cmp	r3, r2
 80061d6:	d00e      	beq.n	80061f6 <HAL_TIM_PWM_Start+0xfa>
 80061d8:	687b      	ldr	r3, [r7, #4]
 80061da:	681b      	ldr	r3, [r3, #0]
 80061dc:	f1b3 4f80 	cmp.w	r3, #1073741824	; 0x40000000
 80061e0:	d009      	beq.n	80061f6 <HAL_TIM_PWM_Start+0xfa>
 80061e2:	687b      	ldr	r3, [r7, #4]
 80061e4:	681b      	ldr	r3, [r3, #0]
 80061e6:	4a14      	ldr	r2, [pc, #80]	; (8006238 <HAL_TIM_PWM_Start+0x13c>)
 80061e8:	4293      	cmp	r3, r2
 80061ea:	d004      	beq.n	80061f6 <HAL_TIM_PWM_Start+0xfa>
 80061ec:	687b      	ldr	r3, [r7, #4]
 80061ee:	681b      	ldr	r3, [r3, #0]
 80061f0:	4a12      	ldr	r2, [pc, #72]	; (800623c <HAL_TIM_PWM_Start+0x140>)
 80061f2:	4293      	cmp	r3, r2
 80061f4:	d111      	bne.n	800621a <HAL_TIM_PWM_Start+0x11e>
  {
    tmpsmcr = htim->Instance->SMCR & TIM_SMCR_SMS;
 80061f6:	687b      	ldr	r3, [r7, #4]
 80061f8:	681b      	ldr	r3, [r3, #0]
 80061fa:	689b      	ldr	r3, [r3, #8]
 80061fc:	f003 0307 	and.w	r3, r3, #7
 8006200:	60fb      	str	r3, [r7, #12]
    if (!IS_TIM_SLAVEMODE_TRIGGER_ENABLED(tmpsmcr))
 8006202:	68fb      	ldr	r3, [r7, #12]
 8006204:	2b06      	cmp	r3, #6
 8006206:	d010      	beq.n	800622a <HAL_TIM_PWM_Start+0x12e>
    {
      __HAL_TIM_ENABLE(htim);
 8006208:	687b      	ldr	r3, [r7, #4]
 800620a:	681b      	ldr	r3, [r3, #0]
 800620c:	681a      	ldr	r2, [r3, #0]
 800620e:	687b      	ldr	r3, [r7, #4]
 8006210:	681b      	ldr	r3, [r3, #0]
 8006212:	f042 0201 	orr.w	r2, r2, #1
 8006216:	601a      	str	r2, [r3, #0]
    if (!IS_TIM_SLAVEMODE_TRIGGER_ENABLED(tmpsmcr))
 8006218:	e007      	b.n	800622a <HAL_TIM_PWM_Start+0x12e>
    }
  }
  else
  {
    __HAL_TIM_ENABLE(htim);
 800621a:	687b      	ldr	r3, [r7, #4]
 800621c:	681b      	ldr	r3, [r3, #0]
 800621e:	681a      	ldr	r2, [r3, #0]
 8006220:	687b      	ldr	r3, [r7, #4]
 8006222:	681b      	ldr	r3, [r3, #0]
 8006224:	f042 0201 	orr.w	r2, r2, #1
 8006228:	601a      	str	r2, [r3, #0]
  }

  /* Return function status */
  return HAL_OK;
 800622a:	2300      	movs	r3, #0
}
 800622c:	4618      	mov	r0, r3
 800622e:	3710      	adds	r7, #16
 8006230:	46bd      	mov	sp, r7
 8006232:	bd80      	pop	{r7, pc}
 8006234:	40012c00 	.word	0x40012c00
 8006238:	40000400 	.word	0x40000400
 800623c:	40000800 	.word	0x40000800

08006240 <HAL_TIM_PWM_ConfigChannel>:
  * @retval HAL status
  */
HAL_StatusTypeDef HAL_TIM_PWM_ConfigChannel(TIM_HandleTypeDef *htim,
                                            TIM_OC_InitTypeDef *sConfig,
                                            uint32_t Channel)
{
 8006240:	b580      	push	{r7, lr}
 8006242:	b084      	sub	sp, #16
 8006244:	af00      	add	r7, sp, #0
 8006246:	60f8      	str	r0, [r7, #12]
 8006248:	60b9      	str	r1, [r7, #8]
 800624a:	607a      	str	r2, [r7, #4]
  assert_param(IS_TIM_PWM_MODE(sConfig->OCMode));
  assert_param(IS_TIM_OC_POLARITY(sConfig->OCPolarity));
  assert_param(IS_TIM_FAST_STATE(sConfig->OCFastMode));

  /* Process Locked */
  __HAL_LOCK(htim);
 800624c:	68fb      	ldr	r3, [r7, #12]
 800624e:	f893 303c 	ldrb.w	r3, [r3, #60]	; 0x3c
 8006252:	2b01      	cmp	r3, #1
 8006254:	d101      	bne.n	800625a <HAL_TIM_PWM_ConfigChannel+0x1a>
 8006256:	2302      	movs	r3, #2
 8006258:	e0ac      	b.n	80063b4 <HAL_TIM_PWM_ConfigChannel+0x174>
 800625a:	68fb      	ldr	r3, [r7, #12]
 800625c:	2201      	movs	r2, #1
 800625e:	f883 203c 	strb.w	r2, [r3, #60]	; 0x3c
 8006262:	687b      	ldr	r3, [r7, #4]
 8006264:	2b0c      	cmp	r3, #12
 8006266:	f200 809f 	bhi.w	80063a8 <HAL_TIM_PWM_ConfigChannel+0x168>
 800626a:	a201      	add	r2, pc, #4	; (adr r2, 8006270 <HAL_TIM_PWM_ConfigChannel+0x30>)
 800626c:	f852 f023 	ldr.w	pc, [r2, r3, lsl #2]
 8006270:	080062a5 	.word	0x080062a5
 8006274:	080063a9 	.word	0x080063a9
 8006278:	080063a9 	.word	0x080063a9
 800627c:	080063a9 	.word	0x080063a9
 8006280:	080062e5 	.word	0x080062e5
 8006284:	080063a9 	.word	0x080063a9
 8006288:	080063a9 	.word	0x080063a9
 800628c:	080063a9 	.word	0x080063a9
 8006290:	08006327 	.word	0x08006327
 8006294:	080063a9 	.word	0x080063a9
 8006298:	080063a9 	.word	0x080063a9
 800629c:	080063a9 	.word	0x080063a9
 80062a0:	08006367 	.word	0x08006367
    {
      /* Check the parameters */
      assert_param(IS_TIM_CC1_INSTANCE(htim->Instance));

      /* Configure the Channel 1 in PWM mode */
      TIM_OC1_SetConfig(htim->Instance, sConfig);
 80062a4:	68fb      	ldr	r3, [r7, #12]
 80062a6:	681b      	ldr	r3, [r3, #0]
 80062a8:	68b9      	ldr	r1, [r7, #8]
 80062aa:	4618      	mov	r0, r3
 80062ac:	f000 f8e8 	bl	8006480 <TIM_OC1_SetConfig>

      /* Set the Preload enable bit for channel1 */
      htim->Instance->CCMR1 |= TIM_CCMR1_OC1PE;
 80062b0:	68fb      	ldr	r3, [r7, #12]
 80062b2:	681b      	ldr	r3, [r3, #0]
 80062b4:	699a      	ldr	r2, [r3, #24]
 80062b6:	68fb      	ldr	r3, [r7, #12]
 80062b8:	681b      	ldr	r3, [r3, #0]
 80062ba:	f042 0208 	orr.w	r2, r2, #8
 80062be:	619a      	str	r2, [r3, #24]

      /* Configure the Output Fast mode */
      htim->Instance->CCMR1 &= ~TIM_CCMR1_OC1FE;
 80062c0:	68fb      	ldr	r3, [r7, #12]
 80062c2:	681b      	ldr	r3, [r3, #0]
 80062c4:	699a      	ldr	r2, [r3, #24]
 80062c6:	68fb      	ldr	r3, [r7, #12]
 80062c8:	681b      	ldr	r3, [r3, #0]
 80062ca:	f022 0204 	bic.w	r2, r2, #4
 80062ce:	619a      	str	r2, [r3, #24]
      htim->Instance->CCMR1 |= sConfig->OCFastMode;
 80062d0:	68fb      	ldr	r3, [r7, #12]
 80062d2:	681b      	ldr	r3, [r3, #0]
 80062d4:	6999      	ldr	r1, [r3, #24]
 80062d6:	68bb      	ldr	r3, [r7, #8]
 80062d8:	691a      	ldr	r2, [r3, #16]
 80062da:	68fb      	ldr	r3, [r7, #12]
 80062dc:	681b      	ldr	r3, [r3, #0]
 80062de:	430a      	orrs	r2, r1
 80062e0:	619a      	str	r2, [r3, #24]
      break;
 80062e2:	e062      	b.n	80063aa <HAL_TIM_PWM_ConfigChannel+0x16a>
    {
      /* Check the parameters */
      assert_param(IS_TIM_CC2_INSTANCE(htim->Instance));

      /* Configure the Channel 2 in PWM mode */
      TIM_OC2_SetConfig(htim->Instance, sConfig);
 80062e4:	68fb      	ldr	r3, [r7, #12]
 80062e6:	681b      	ldr	r3, [r3, #0]
 80062e8:	68b9      	ldr	r1, [r7, #8]
 80062ea:	4618      	mov	r0, r3
 80062ec:	f000 f92e 	bl	800654c <TIM_OC2_SetConfig>

      /* Set the Preload enable bit for channel2 */
      htim->Instance->CCMR1 |= TIM_CCMR1_OC2PE;
 80062f0:	68fb      	ldr	r3, [r7, #12]
 80062f2:	681b      	ldr	r3, [r3, #0]
 80062f4:	699a      	ldr	r2, [r3, #24]
 80062f6:	68fb      	ldr	r3, [r7, #12]
 80062f8:	681b      	ldr	r3, [r3, #0]
 80062fa:	f442 6200 	orr.w	r2, r2, #2048	; 0x800
 80062fe:	619a      	str	r2, [r3, #24]

      /* Configure the Output Fast mode */
      htim->Instance->CCMR1 &= ~TIM_CCMR1_OC2FE;
 8006300:	68fb      	ldr	r3, [r7, #12]
 8006302:	681b      	ldr	r3, [r3, #0]
 8006304:	699a      	ldr	r2, [r3, #24]
 8006306:	68fb      	ldr	r3, [r7, #12]
 8006308:	681b      	ldr	r3, [r3, #0]
 800630a:	f422 6280 	bic.w	r2, r2, #1024	; 0x400
 800630e:	619a      	str	r2, [r3, #24]
      htim->Instance->CCMR1 |= sConfig->OCFastMode << 8U;
 8006310:	68fb      	ldr	r3, [r7, #12]
 8006312:	681b      	ldr	r3, [r3, #0]
 8006314:	6999      	ldr	r1, [r3, #24]
 8006316:	68bb      	ldr	r3, [r7, #8]
 8006318:	691b      	ldr	r3, [r3, #16]
 800631a:	021a      	lsls	r2, r3, #8
 800631c:	68fb      	ldr	r3, [r7, #12]
 800631e:	681b      	ldr	r3, [r3, #0]
 8006320:	430a      	orrs	r2, r1
 8006322:	619a      	str	r2, [r3, #24]
      break;
 8006324:	e041      	b.n	80063aa <HAL_TIM_PWM_ConfigChannel+0x16a>
    {
      /* Check the parameters */
      assert_param(IS_TIM_CC3_INSTANCE(htim->Instance));

      /* Configure the Channel 3 in PWM mode */
      TIM_OC3_SetConfig(htim->Instance, sConfig);
 8006326:	68fb      	ldr	r3, [r7, #12]
 8006328:	681b      	ldr	r3, [r3, #0]
 800632a:	68b9      	ldr	r1, [r7, #8]
 800632c:	4618      	mov	r0, r3
 800632e:	f000 f977 	bl	8006620 <TIM_OC3_SetConfig>

      /* Set the Preload enable bit for channel3 */
      htim->Instance->CCMR2 |= TIM_CCMR2_OC3PE;
 8006332:	68fb      	ldr	r3, [r7, #12]
 8006334:	681b      	ldr	r3, [r3, #0]
 8006336:	69da      	ldr	r2, [r3, #28]
 8006338:	68fb      	ldr	r3, [r7, #12]
 800633a:	681b      	ldr	r3, [r3, #0]
 800633c:	f042 0208 	orr.w	r2, r2, #8
 8006340:	61da      	str	r2, [r3, #28]

      /* Configure the Output Fast mode */
      htim->Instance->CCMR2 &= ~TIM_CCMR2_OC3FE;
 8006342:	68fb      	ldr	r3, [r7, #12]
 8006344:	681b      	ldr	r3, [r3, #0]
 8006346:	69da      	ldr	r2, [r3, #28]
 8006348:	68fb      	ldr	r3, [r7, #12]
 800634a:	681b      	ldr	r3, [r3, #0]
 800634c:	f022 0204 	bic.w	r2, r2, #4
 8006350:	61da      	str	r2, [r3, #28]
      htim->Instance->CCMR2 |= sConfig->OCFastMode;
 8006352:	68fb      	ldr	r3, [r7, #12]
 8006354:	681b      	ldr	r3, [r3, #0]
 8006356:	69d9      	ldr	r1, [r3, #28]
 8006358:	68bb      	ldr	r3, [r7, #8]
 800635a:	691a      	ldr	r2, [r3, #16]
 800635c:	68fb      	ldr	r3, [r7, #12]
 800635e:	681b      	ldr	r3, [r3, #0]
 8006360:	430a      	orrs	r2, r1
 8006362:	61da      	str	r2, [r3, #28]
      break;
 8006364:	e021      	b.n	80063aa <HAL_TIM_PWM_ConfigChannel+0x16a>
    {
      /* Check the parameters */
      assert_param(IS_TIM_CC4_INSTANCE(htim->Instance));

      /* Configure the Channel 4 in PWM mode */
      TIM_OC4_SetConfig(htim->Instance, sConfig);
 8006366:	68fb      	ldr	r3, [r7, #12]
 8006368:	681b      	ldr	r3, [r3, #0]
 800636a:	68b9      	ldr	r1, [r7, #8]
 800636c:	4618      	mov	r0, r3
 800636e:	f000 f9c1 	bl	80066f4 <TIM_OC4_SetConfig>

      /* Set the Preload enable bit for channel4 */
      htim->Instance->CCMR2 |= TIM_CCMR2_OC4PE;
 8006372:	68fb      	ldr	r3, [r7, #12]
 8006374:	681b      	ldr	r3, [r3, #0]
 8006376:	69da      	ldr	r2, [r3, #28]
 8006378:	68fb      	ldr	r3, [r7, #12]
 800637a:	681b      	ldr	r3, [r3, #0]
 800637c:	f442 6200 	orr.w	r2, r2, #2048	; 0x800
 8006380:	61da      	str	r2, [r3, #28]

      /* Configure the Output Fast mode */
      htim->Instance->CCMR2 &= ~TIM_CCMR2_OC4FE;
 8006382:	68fb      	ldr	r3, [r7, #12]
 8006384:	681b      	ldr	r3, [r3, #0]
 8006386:	69da      	ldr	r2, [r3, #28]
 8006388:	68fb      	ldr	r3, [r7, #12]
 800638a:	681b      	ldr	r3, [r3, #0]
 800638c:	f422 6280 	bic.w	r2, r2, #1024	; 0x400
 8006390:	61da      	str	r2, [r3, #28]
      htim->Instance->CCMR2 |= sConfig->OCFastMode << 8U;
 8006392:	68fb      	ldr	r3, [r7, #12]
 8006394:	681b      	ldr	r3, [r3, #0]
 8006396:	69d9      	ldr	r1, [r3, #28]
 8006398:	68bb      	ldr	r3, [r7, #8]
 800639a:	691b      	ldr	r3, [r3, #16]
 800639c:	021a      	lsls	r2, r3, #8
 800639e:	68fb      	ldr	r3, [r7, #12]
 80063a0:	681b      	ldr	r3, [r3, #0]
 80063a2:	430a      	orrs	r2, r1
 80063a4:	61da      	str	r2, [r3, #28]
      break;
 80063a6:	e000      	b.n	80063aa <HAL_TIM_PWM_ConfigChannel+0x16a>
    }

    default:
      break;
 80063a8:	bf00      	nop
  }

  __HAL_UNLOCK(htim);
 80063aa:	68fb      	ldr	r3, [r7, #12]
 80063ac:	2200      	movs	r2, #0
 80063ae:	f883 203c 	strb.w	r2, [r3, #60]	; 0x3c

  return HAL_OK;
 80063b2:	2300      	movs	r3, #0
}
 80063b4:	4618      	mov	r0, r3
 80063b6:	3710      	adds	r7, #16
 80063b8:	46bd      	mov	sp, r7
 80063ba:	bd80      	pop	{r7, pc}

080063bc <TIM_Base_SetConfig>:
  * @param  TIMx TIM peripheral
  * @param  Structure TIM Base configuration structure
  * @retval None
  */
void TIM_Base_SetConfig(TIM_TypeDef *TIMx, TIM_Base_InitTypeDef *Structure)
{
 80063bc:	b480      	push	{r7}
 80063be:	b085      	sub	sp, #20
 80063c0:	af00      	add	r7, sp, #0
 80063c2:	6078      	str	r0, [r7, #4]
 80063c4:	6039      	str	r1, [r7, #0]
  uint32_t tmpcr1;
  tmpcr1 = TIMx->CR1;
 80063c6:	687b      	ldr	r3, [r7, #4]
 80063c8:	681b      	ldr	r3, [r3, #0]
 80063ca:	60fb      	str	r3, [r7, #12]

  /* Set TIM Time Base Unit parameters ---------------------------------------*/
  if (IS_TIM_COUNTER_MODE_SELECT_INSTANCE(TIMx))
 80063cc:	687b      	ldr	r3, [r7, #4]
 80063ce:	4a29      	ldr	r2, [pc, #164]	; (8006474 <TIM_Base_SetConfig+0xb8>)
 80063d0:	4293      	cmp	r3, r2
 80063d2:	d00b      	beq.n	80063ec <TIM_Base_SetConfig+0x30>
 80063d4:	687b      	ldr	r3, [r7, #4]
 80063d6:	f1b3 4f80 	cmp.w	r3, #1073741824	; 0x40000000
 80063da:	d007      	beq.n	80063ec <TIM_Base_SetConfig+0x30>
 80063dc:	687b      	ldr	r3, [r7, #4]
 80063de:	4a26      	ldr	r2, [pc, #152]	; (8006478 <TIM_Base_SetConfig+0xbc>)
 80063e0:	4293      	cmp	r3, r2
 80063e2:	d003      	beq.n	80063ec <TIM_Base_SetConfig+0x30>
 80063e4:	687b      	ldr	r3, [r7, #4]
 80063e6:	4a25      	ldr	r2, [pc, #148]	; (800647c <TIM_Base_SetConfig+0xc0>)
 80063e8:	4293      	cmp	r3, r2
 80063ea:	d108      	bne.n	80063fe <TIM_Base_SetConfig+0x42>
  {
    /* Select the Counter Mode */
    tmpcr1 &= ~(TIM_CR1_DIR | TIM_CR1_CMS);
 80063ec:	68fb      	ldr	r3, [r7, #12]
 80063ee:	f023 0370 	bic.w	r3, r3, #112	; 0x70
 80063f2:	60fb      	str	r3, [r7, #12]
    tmpcr1 |= Structure->CounterMode;
 80063f4:	683b      	ldr	r3, [r7, #0]
 80063f6:	685b      	ldr	r3, [r3, #4]
 80063f8:	68fa      	ldr	r2, [r7, #12]
 80063fa:	4313      	orrs	r3, r2
 80063fc:	60fb      	str	r3, [r7, #12]
  }

  if (IS_TIM_CLOCK_DIVISION_INSTANCE(TIMx))
 80063fe:	687b      	ldr	r3, [r7, #4]
 8006400:	4a1c      	ldr	r2, [pc, #112]	; (8006474 <TIM_Base_SetConfig+0xb8>)
 8006402:	4293      	cmp	r3, r2
 8006404:	d00b      	beq.n	800641e <TIM_Base_SetConfig+0x62>
 8006406:	687b      	ldr	r3, [r7, #4]
 8006408:	f1b3 4f80 	cmp.w	r3, #1073741824	; 0x40000000
 800640c:	d007      	beq.n	800641e <TIM_Base_SetConfig+0x62>
 800640e:	687b      	ldr	r3, [r7, #4]
 8006410:	4a19      	ldr	r2, [pc, #100]	; (8006478 <TIM_Base_SetConfig+0xbc>)
 8006412:	4293      	cmp	r3, r2
 8006414:	d003      	beq.n	800641e <TIM_Base_SetConfig+0x62>
 8006416:	687b      	ldr	r3, [r7, #4]
 8006418:	4a18      	ldr	r2, [pc, #96]	; (800647c <TIM_Base_SetConfig+0xc0>)
 800641a:	4293      	cmp	r3, r2
 800641c:	d108      	bne.n	8006430 <TIM_Base_SetConfig+0x74>
  {
    /* Set the clock division */
    tmpcr1 &= ~TIM_CR1_CKD;
 800641e:	68fb      	ldr	r3, [r7, #12]
 8006420:	f423 7340 	bic.w	r3, r3, #768	; 0x300
 8006424:	60fb      	str	r3, [r7, #12]
    tmpcr1 |= (uint32_t)Structure->ClockDivision;
 8006426:	683b      	ldr	r3, [r7, #0]
 8006428:	68db      	ldr	r3, [r3, #12]
 800642a:	68fa      	ldr	r2, [r7, #12]
 800642c:	4313      	orrs	r3, r2
 800642e:	60fb      	str	r3, [r7, #12]
  }

  /* Set the auto-reload preload */
  MODIFY_REG(tmpcr1, TIM_CR1_ARPE, Structure->AutoReloadPreload);
 8006430:	68fb      	ldr	r3, [r7, #12]
 8006432:	f023 0280 	bic.w	r2, r3, #128	; 0x80
 8006436:	683b      	ldr	r3, [r7, #0]
 8006438:	695b      	ldr	r3, [r3, #20]
 800643a:	4313      	orrs	r3, r2
 800643c:	60fb      	str	r3, [r7, #12]

  TIMx->CR1 = tmpcr1;
 800643e:	687b      	ldr	r3, [r7, #4]
 8006440:	68fa      	ldr	r2, [r7, #12]
 8006442:	601a      	str	r2, [r3, #0]

  /* Set the Autoreload value */
  TIMx->ARR = (uint32_t)Structure->Period ;
 8006444:	683b      	ldr	r3, [r7, #0]
 8006446:	689a      	ldr	r2, [r3, #8]
 8006448:	687b      	ldr	r3, [r7, #4]
 800644a:	62da      	str	r2, [r3, #44]	; 0x2c

  /* Set the Prescaler value */
  TIMx->PSC = Structure->Prescaler;
 800644c:	683b      	ldr	r3, [r7, #0]
 800644e:	681a      	ldr	r2, [r3, #0]
 8006450:	687b      	ldr	r3, [r7, #4]
 8006452:	629a      	str	r2, [r3, #40]	; 0x28

  if (IS_TIM_REPETITION_COUNTER_INSTANCE(TIMx))
 8006454:	687b      	ldr	r3, [r7, #4]
 8006456:	4a07      	ldr	r2, [pc, #28]	; (8006474 <TIM_Base_SetConfig+0xb8>)
 8006458:	4293      	cmp	r3, r2
 800645a:	d103      	bne.n	8006464 <TIM_Base_SetConfig+0xa8>
  {
    /* Set the Repetition Counter value */
    TIMx->RCR = Structure->RepetitionCounter;
 800645c:	683b      	ldr	r3, [r7, #0]
 800645e:	691a      	ldr	r2, [r3, #16]
 8006460:	687b      	ldr	r3, [r7, #4]
 8006462:	631a      	str	r2, [r3, #48]	; 0x30
  }

  /* Generate an update event to reload the Prescaler
     and the repetition counter (only for advanced timer) value immediately */
  TIMx->EGR = TIM_EGR_UG;
 8006464:	687b      	ldr	r3, [r7, #4]
 8006466:	2201      	movs	r2, #1
 8006468:	615a      	str	r2, [r3, #20]
}
 800646a:	bf00      	nop
 800646c:	3714      	adds	r7, #20
 800646e:	46bd      	mov	sp, r7
 8006470:	bc80      	pop	{r7}
 8006472:	4770      	bx	lr
 8006474:	40012c00 	.word	0x40012c00
 8006478:	40000400 	.word	0x40000400
 800647c:	40000800 	.word	0x40000800

08006480 <TIM_OC1_SetConfig>:
  * @param  TIMx to select the TIM peripheral
  * @param  OC_Config The output configuration structure
  * @retval None
  */
static void TIM_OC1_SetConfig(TIM_TypeDef *TIMx, TIM_OC_InitTypeDef *OC_Config)
{
 8006480:	b480      	push	{r7}
 8006482:	b087      	sub	sp, #28
 8006484:	af00      	add	r7, sp, #0
 8006486:	6078      	str	r0, [r7, #4]
 8006488:	6039      	str	r1, [r7, #0]
  uint32_t tmpccmrx;
  uint32_t tmpccer;
  uint32_t tmpcr2;

  /* Disable the Channel 1: Reset the CC1E Bit */
  TIMx->CCER &= ~TIM_CCER_CC1E;
 800648a:	687b      	ldr	r3, [r7, #4]
 800648c:	6a1b      	ldr	r3, [r3, #32]
 800648e:	f023 0201 	bic.w	r2, r3, #1
 8006492:	687b      	ldr	r3, [r7, #4]
 8006494:	621a      	str	r2, [r3, #32]

  /* Get the TIMx CCER register value */
  tmpccer = TIMx->CCER;
 8006496:	687b      	ldr	r3, [r7, #4]
 8006498:	6a1b      	ldr	r3, [r3, #32]
 800649a:	617b      	str	r3, [r7, #20]
  /* Get the TIMx CR2 register value */
  tmpcr2 =  TIMx->CR2;
 800649c:	687b      	ldr	r3, [r7, #4]
 800649e:	685b      	ldr	r3, [r3, #4]
 80064a0:	613b      	str	r3, [r7, #16]

  /* Get the TIMx CCMR1 register value */
  tmpccmrx = TIMx->CCMR1;
 80064a2:	687b      	ldr	r3, [r7, #4]
 80064a4:	699b      	ldr	r3, [r3, #24]
 80064a6:	60fb      	str	r3, [r7, #12]

  /* Reset the Output Compare Mode Bits */
  tmpccmrx &= ~TIM_CCMR1_OC1M;
 80064a8:	68fb      	ldr	r3, [r7, #12]
 80064aa:	f023 0370 	bic.w	r3, r3, #112	; 0x70
 80064ae:	60fb      	str	r3, [r7, #12]
  tmpccmrx &= ~TIM_CCMR1_CC1S;
 80064b0:	68fb      	ldr	r3, [r7, #12]
 80064b2:	f023 0303 	bic.w	r3, r3, #3
 80064b6:	60fb      	str	r3, [r7, #12]
  /* Select the Output Compare Mode */
  tmpccmrx |= OC_Config->OCMode;
 80064b8:	683b      	ldr	r3, [r7, #0]
 80064ba:	681b      	ldr	r3, [r3, #0]
 80064bc:	68fa      	ldr	r2, [r7, #12]
 80064be:	4313      	orrs	r3, r2
 80064c0:	60fb      	str	r3, [r7, #12]

  /* Reset the Output Polarity level */
  tmpccer &= ~TIM_CCER_CC1P;
 80064c2:	697b      	ldr	r3, [r7, #20]
 80064c4:	f023 0302 	bic.w	r3, r3, #2
 80064c8:	617b      	str	r3, [r7, #20]
  /* Set the Output Compare Polarity */
  tmpccer |= OC_Config->OCPolarity;
 80064ca:	683b      	ldr	r3, [r7, #0]
 80064cc:	689b      	ldr	r3, [r3, #8]
 80064ce:	697a      	ldr	r2, [r7, #20]
 80064d0:	4313      	orrs	r3, r2
 80064d2:	617b      	str	r3, [r7, #20]

  if (IS_TIM_CCXN_INSTANCE(TIMx, TIM_CHANNEL_1))
 80064d4:	687b      	ldr	r3, [r7, #4]
 80064d6:	4a1c      	ldr	r2, [pc, #112]	; (8006548 <TIM_OC1_SetConfig+0xc8>)
 80064d8:	4293      	cmp	r3, r2
 80064da:	d10c      	bne.n	80064f6 <TIM_OC1_SetConfig+0x76>
  {
    /* Check parameters */
    assert_param(IS_TIM_OCN_POLARITY(OC_Config->OCNPolarity));

    /* Reset the Output N Polarity level */
    tmpccer &= ~TIM_CCER_CC1NP;
 80064dc:	697b      	ldr	r3, [r7, #20]
 80064de:	f023 0308 	bic.w	r3, r3, #8
 80064e2:	617b      	str	r3, [r7, #20]
    /* Set the Output N Polarity */
    tmpccer |= OC_Config->OCNPolarity;
 80064e4:	683b      	ldr	r3, [r7, #0]
 80064e6:	68db      	ldr	r3, [r3, #12]
 80064e8:	697a      	ldr	r2, [r7, #20]
 80064ea:	4313      	orrs	r3, r2
 80064ec:	617b      	str	r3, [r7, #20]
    /* Reset the Output N State */
    tmpccer &= ~TIM_CCER_CC1NE;
 80064ee:	697b      	ldr	r3, [r7, #20]
 80064f0:	f023 0304 	bic.w	r3, r3, #4
 80064f4:	617b      	str	r3, [r7, #20]
  }

  if (IS_TIM_BREAK_INSTANCE(TIMx))
 80064f6:	687b      	ldr	r3, [r7, #4]
 80064f8:	4a13      	ldr	r2, [pc, #76]	; (8006548 <TIM_OC1_SetConfig+0xc8>)
 80064fa:	4293      	cmp	r3, r2
 80064fc:	d111      	bne.n	8006522 <TIM_OC1_SetConfig+0xa2>
    /* Check parameters */
    assert_param(IS_TIM_OCNIDLE_STATE(OC_Config->OCNIdleState));
    assert_param(IS_TIM_OCIDLE_STATE(OC_Config->OCIdleState));

    /* Reset the Output Compare and Output Compare N IDLE State */
    tmpcr2 &= ~TIM_CR2_OIS1;
 80064fe:	693b      	ldr	r3, [r7, #16]
 8006500:	f423 7380 	bic.w	r3, r3, #256	; 0x100
 8006504:	613b      	str	r3, [r7, #16]
    tmpcr2 &= ~TIM_CR2_OIS1N;
 8006506:	693b      	ldr	r3, [r7, #16]
 8006508:	f423 7300 	bic.w	r3, r3, #512	; 0x200
 800650c:	613b      	str	r3, [r7, #16]
    /* Set the Output Idle state */
    tmpcr2 |= OC_Config->OCIdleState;
 800650e:	683b      	ldr	r3, [r7, #0]
 8006510:	695b      	ldr	r3, [r3, #20]
 8006512:	693a      	ldr	r2, [r7, #16]
 8006514:	4313      	orrs	r3, r2
 8006516:	613b      	str	r3, [r7, #16]
    /* Set the Output N Idle state */
    tmpcr2 |= OC_Config->OCNIdleState;
 8006518:	683b      	ldr	r3, [r7, #0]
 800651a:	699b      	ldr	r3, [r3, #24]
 800651c:	693a      	ldr	r2, [r7, #16]
 800651e:	4313      	orrs	r3, r2
 8006520:	613b      	str	r3, [r7, #16]
  }

  /* Write to TIMx CR2 */
  TIMx->CR2 = tmpcr2;
 8006522:	687b      	ldr	r3, [r7, #4]
 8006524:	693a      	ldr	r2, [r7, #16]
 8006526:	605a      	str	r2, [r3, #4]

  /* Write to TIMx CCMR1 */
  TIMx->CCMR1 = tmpccmrx;
 8006528:	687b      	ldr	r3, [r7, #4]
 800652a:	68fa      	ldr	r2, [r7, #12]
 800652c:	619a      	str	r2, [r3, #24]

  /* Set the Capture Compare Register value */
  TIMx->CCR1 = OC_Config->Pulse;
 800652e:	683b      	ldr	r3, [r7, #0]
 8006530:	685a      	ldr	r2, [r3, #4]
 8006532:	687b      	ldr	r3, [r7, #4]
 8006534:	635a      	str	r2, [r3, #52]	; 0x34

  /* Write to TIMx CCER */
  TIMx->CCER = tmpccer;
 8006536:	687b      	ldr	r3, [r7, #4]
 8006538:	697a      	ldr	r2, [r7, #20]
 800653a:	621a      	str	r2, [r3, #32]
}
 800653c:	bf00      	nop
 800653e:	371c      	adds	r7, #28
 8006540:	46bd      	mov	sp, r7
 8006542:	bc80      	pop	{r7}
 8006544:	4770      	bx	lr
 8006546:	bf00      	nop
 8006548:	40012c00 	.word	0x40012c00

0800654c <TIM_OC2_SetConfig>:
  * @param  TIMx to select the TIM peripheral
  * @param  OC_Config The output configuration structure
  * @retval None
  */
void TIM_OC2_SetConfig(TIM_TypeDef *TIMx, TIM_OC_InitTypeDef *OC_Config)
{
 800654c:	b480      	push	{r7}
 800654e:	b087      	sub	sp, #28
 8006550:	af00      	add	r7, sp, #0
 8006552:	6078      	str	r0, [r7, #4]
 8006554:	6039      	str	r1, [r7, #0]
  uint32_t tmpccmrx;
  uint32_t tmpccer;
  uint32_t tmpcr2;

  /* Disable the Channel 2: Reset the CC2E Bit */
  TIMx->CCER &= ~TIM_CCER_CC2E;
 8006556:	687b      	ldr	r3, [r7, #4]
 8006558:	6a1b      	ldr	r3, [r3, #32]
 800655a:	f023 0210 	bic.w	r2, r3, #16
 800655e:	687b      	ldr	r3, [r7, #4]
 8006560:	621a      	str	r2, [r3, #32]

  /* Get the TIMx CCER register value */
  tmpccer = TIMx->CCER;
 8006562:	687b      	ldr	r3, [r7, #4]
 8006564:	6a1b      	ldr	r3, [r3, #32]
 8006566:	617b      	str	r3, [r7, #20]
  /* Get the TIMx CR2 register value */
  tmpcr2 =  TIMx->CR2;
 8006568:	687b      	ldr	r3, [r7, #4]
 800656a:	685b      	ldr	r3, [r3, #4]
 800656c:	613b      	str	r3, [r7, #16]

  /* Get the TIMx CCMR1 register value */
  tmpccmrx = TIMx->CCMR1;
 800656e:	687b      	ldr	r3, [r7, #4]
 8006570:	699b      	ldr	r3, [r3, #24]
 8006572:	60fb      	str	r3, [r7, #12]

  /* Reset the Output Compare mode and Capture/Compare selection Bits */
  tmpccmrx &= ~TIM_CCMR1_OC2M;
 8006574:	68fb      	ldr	r3, [r7, #12]
 8006576:	f423 43e0 	bic.w	r3, r3, #28672	; 0x7000
 800657a:	60fb      	str	r3, [r7, #12]
  tmpccmrx &= ~TIM_CCMR1_CC2S;
 800657c:	68fb      	ldr	r3, [r7, #12]
 800657e:	f423 7340 	bic.w	r3, r3, #768	; 0x300
 8006582:	60fb      	str	r3, [r7, #12]

  /* Select the Output Compare Mode */
  tmpccmrx |= (OC_Config->OCMode << 8U);
 8006584:	683b      	ldr	r3, [r7, #0]
 8006586:	681b      	ldr	r3, [r3, #0]
 8006588:	021b      	lsls	r3, r3, #8
 800658a:	68fa      	ldr	r2, [r7, #12]
 800658c:	4313      	orrs	r3, r2
 800658e:	60fb      	str	r3, [r7, #12]

  /* Reset the Output Polarity level */
  tmpccer &= ~TIM_CCER_CC2P;
 8006590:	697b      	ldr	r3, [r7, #20]
 8006592:	f023 0320 	bic.w	r3, r3, #32
 8006596:	617b      	str	r3, [r7, #20]
  /* Set the Output Compare Polarity */
  tmpccer |= (OC_Config->OCPolarity << 4U);
 8006598:	683b      	ldr	r3, [r7, #0]
 800659a:	689b      	ldr	r3, [r3, #8]
 800659c:	011b      	lsls	r3, r3, #4
 800659e:	697a      	ldr	r2, [r7, #20]
 80065a0:	4313      	orrs	r3, r2
 80065a2:	617b      	str	r3, [r7, #20]

  if (IS_TIM_CCXN_INSTANCE(TIMx, TIM_CHANNEL_2))
 80065a4:	687b      	ldr	r3, [r7, #4]
 80065a6:	4a1d      	ldr	r2, [pc, #116]	; (800661c <TIM_OC2_SetConfig+0xd0>)
 80065a8:	4293      	cmp	r3, r2
 80065aa:	d10d      	bne.n	80065c8 <TIM_OC2_SetConfig+0x7c>
  {
    assert_param(IS_TIM_OCN_POLARITY(OC_Config->OCNPolarity));

    /* Reset the Output N Polarity level */
    tmpccer &= ~TIM_CCER_CC2NP;
 80065ac:	697b      	ldr	r3, [r7, #20]
 80065ae:	f023 0380 	bic.w	r3, r3, #128	; 0x80
 80065b2:	617b      	str	r3, [r7, #20]
    /* Set the Output N Polarity */
    tmpccer |= (OC_Config->OCNPolarity << 4U);
 80065b4:	683b      	ldr	r3, [r7, #0]
 80065b6:	68db      	ldr	r3, [r3, #12]
 80065b8:	011b      	lsls	r3, r3, #4
 80065ba:	697a      	ldr	r2, [r7, #20]
 80065bc:	4313      	orrs	r3, r2
 80065be:	617b      	str	r3, [r7, #20]
    /* Reset the Output N State */
    tmpccer &= ~TIM_CCER_CC2NE;
 80065c0:	697b      	ldr	r3, [r7, #20]
 80065c2:	f023 0340 	bic.w	r3, r3, #64	; 0x40
 80065c6:	617b      	str	r3, [r7, #20]

  }

  if (IS_TIM_BREAK_INSTANCE(TIMx))
 80065c8:	687b      	ldr	r3, [r7, #4]
 80065ca:	4a14      	ldr	r2, [pc, #80]	; (800661c <TIM_OC2_SetConfig+0xd0>)
 80065cc:	4293      	cmp	r3, r2
 80065ce:	d113      	bne.n	80065f8 <TIM_OC2_SetConfig+0xac>
    /* Check parameters */
    assert_param(IS_TIM_OCNIDLE_STATE(OC_Config->OCNIdleState));
    assert_param(IS_TIM_OCIDLE_STATE(OC_Config->OCIdleState));

    /* Reset the Output Compare and Output Compare N IDLE State */
    tmpcr2 &= ~TIM_CR2_OIS2;
 80065d0:	693b      	ldr	r3, [r7, #16]
 80065d2:	f423 6380 	bic.w	r3, r3, #1024	; 0x400
 80065d6:	613b      	str	r3, [r7, #16]
    tmpcr2 &= ~TIM_CR2_OIS2N;
 80065d8:	693b      	ldr	r3, [r7, #16]
 80065da:	f423 6300 	bic.w	r3, r3, #2048	; 0x800
 80065de:	613b      	str	r3, [r7, #16]
    /* Set the Output Idle state */
    tmpcr2 |= (OC_Config->OCIdleState << 2U);
 80065e0:	683b      	ldr	r3, [r7, #0]
 80065e2:	695b      	ldr	r3, [r3, #20]
 80065e4:	009b      	lsls	r3, r3, #2
 80065e6:	693a      	ldr	r2, [r7, #16]
 80065e8:	4313      	orrs	r3, r2
 80065ea:	613b      	str	r3, [r7, #16]
    /* Set the Output N Idle state */
    tmpcr2 |= (OC_Config->OCNIdleState << 2U);
 80065ec:	683b      	ldr	r3, [r7, #0]
 80065ee:	699b      	ldr	r3, [r3, #24]
 80065f0:	009b      	lsls	r3, r3, #2
 80065f2:	693a      	ldr	r2, [r7, #16]
 80065f4:	4313      	orrs	r3, r2
 80065f6:	613b      	str	r3, [r7, #16]
  }

  /* Write to TIMx CR2 */
  TIMx->CR2 = tmpcr2;
 80065f8:	687b      	ldr	r3, [r7, #4]
 80065fa:	693a      	ldr	r2, [r7, #16]
 80065fc:	605a      	str	r2, [r3, #4]

  /* Write to TIMx CCMR1 */
  TIMx->CCMR1 = tmpccmrx;
 80065fe:	687b      	ldr	r3, [r7, #4]
 8006600:	68fa      	ldr	r2, [r7, #12]
 8006602:	619a      	str	r2, [r3, #24]

  /* Set the Capture Compare Register value */
  TIMx->CCR2 = OC_Config->Pulse;
 8006604:	683b      	ldr	r3, [r7, #0]
 8006606:	685a      	ldr	r2, [r3, #4]
 8006608:	687b      	ldr	r3, [r7, #4]
 800660a:	639a      	str	r2, [r3, #56]	; 0x38

  /* Write to TIMx CCER */
  TIMx->CCER = tmpccer;
 800660c:	687b      	ldr	r3, [r7, #4]
 800660e:	697a      	ldr	r2, [r7, #20]
 8006610:	621a      	str	r2, [r3, #32]
}
 8006612:	bf00      	nop
 8006614:	371c      	adds	r7, #28
 8006616:	46bd      	mov	sp, r7
 8006618:	bc80      	pop	{r7}
 800661a:	4770      	bx	lr
 800661c:	40012c00 	.word	0x40012c00

08006620 <TIM_OC3_SetConfig>:
  * @param  TIMx to select the TIM peripheral
  * @param  OC_Config The output configuration structure
  * @retval None
  */
static void TIM_OC3_SetConfig(TIM_TypeDef *TIMx, TIM_OC_InitTypeDef *OC_Config)
{
 8006620:	b480      	push	{r7}
 8006622:	b087      	sub	sp, #28
 8006624:	af00      	add	r7, sp, #0
 8006626:	6078      	str	r0, [r7, #4]
 8006628:	6039      	str	r1, [r7, #0]
  uint32_t tmpccmrx;
  uint32_t tmpccer;
  uint32_t tmpcr2;

  /* Disable the Channel 3: Reset the CC2E Bit */
  TIMx->CCER &= ~TIM_CCER_CC3E;
 800662a:	687b      	ldr	r3, [r7, #4]
 800662c:	6a1b      	ldr	r3, [r3, #32]
 800662e:	f423 7280 	bic.w	r2, r3, #256	; 0x100
 8006632:	687b      	ldr	r3, [r7, #4]
 8006634:	621a      	str	r2, [r3, #32]

  /* Get the TIMx CCER register value */
  tmpccer = TIMx->CCER;
 8006636:	687b      	ldr	r3, [r7, #4]
 8006638:	6a1b      	ldr	r3, [r3, #32]
 800663a:	617b      	str	r3, [r7, #20]
  /* Get the TIMx CR2 register value */
  tmpcr2 =  TIMx->CR2;
 800663c:	687b      	ldr	r3, [r7, #4]
 800663e:	685b      	ldr	r3, [r3, #4]
 8006640:	613b      	str	r3, [r7, #16]

  /* Get the TIMx CCMR2 register value */
  tmpccmrx = TIMx->CCMR2;
 8006642:	687b      	ldr	r3, [r7, #4]
 8006644:	69db      	ldr	r3, [r3, #28]
 8006646:	60fb      	str	r3, [r7, #12]

  /* Reset the Output Compare mode and Capture/Compare selection Bits */
  tmpccmrx &= ~TIM_CCMR2_OC3M;
 8006648:	68fb      	ldr	r3, [r7, #12]
 800664a:	f023 0370 	bic.w	r3, r3, #112	; 0x70
 800664e:	60fb      	str	r3, [r7, #12]
  tmpccmrx &= ~TIM_CCMR2_CC3S;
 8006650:	68fb      	ldr	r3, [r7, #12]
 8006652:	f023 0303 	bic.w	r3, r3, #3
 8006656:	60fb      	str	r3, [r7, #12]
  /* Select the Output Compare Mode */
  tmpccmrx |= OC_Config->OCMode;
 8006658:	683b      	ldr	r3, [r7, #0]
 800665a:	681b      	ldr	r3, [r3, #0]
 800665c:	68fa      	ldr	r2, [r7, #12]
 800665e:	4313      	orrs	r3, r2
 8006660:	60fb      	str	r3, [r7, #12]

  /* Reset the Output Polarity level */
  tmpccer &= ~TIM_CCER_CC3P;
 8006662:	697b      	ldr	r3, [r7, #20]
 8006664:	f423 7300 	bic.w	r3, r3, #512	; 0x200
 8006668:	617b      	str	r3, [r7, #20]
  /* Set the Output Compare Polarity */
  tmpccer |= (OC_Config->OCPolarity << 8U);
 800666a:	683b      	ldr	r3, [r7, #0]
 800666c:	689b      	ldr	r3, [r3, #8]
 800666e:	021b      	lsls	r3, r3, #8
 8006670:	697a      	ldr	r2, [r7, #20]
 8006672:	4313      	orrs	r3, r2
 8006674:	617b      	str	r3, [r7, #20]

  if (IS_TIM_CCXN_INSTANCE(TIMx, TIM_CHANNEL_3))
 8006676:	687b      	ldr	r3, [r7, #4]
 8006678:	4a1d      	ldr	r2, [pc, #116]	; (80066f0 <TIM_OC3_SetConfig+0xd0>)
 800667a:	4293      	cmp	r3, r2
 800667c:	d10d      	bne.n	800669a <TIM_OC3_SetConfig+0x7a>
  {
    assert_param(IS_TIM_OCN_POLARITY(OC_Config->OCNPolarity));

    /* Reset the Output N Polarity level */
    tmpccer &= ~TIM_CCER_CC3NP;
 800667e:	697b      	ldr	r3, [r7, #20]
 8006680:	f423 6300 	bic.w	r3, r3, #2048	; 0x800
 8006684:	617b      	str	r3, [r7, #20]
    /* Set the Output N Polarity */
    tmpccer |= (OC_Config->OCNPolarity << 8U);
 8006686:	683b      	ldr	r3, [r7, #0]
 8006688:	68db      	ldr	r3, [r3, #12]
 800668a:	021b      	lsls	r3, r3, #8
 800668c:	697a      	ldr	r2, [r7, #20]
 800668e:	4313      	orrs	r3, r2
 8006690:	617b      	str	r3, [r7, #20]
    /* Reset the Output N State */
    tmpccer &= ~TIM_CCER_CC3NE;
 8006692:	697b      	ldr	r3, [r7, #20]
 8006694:	f423 6380 	bic.w	r3, r3, #1024	; 0x400
 8006698:	617b      	str	r3, [r7, #20]
  }

  if (IS_TIM_BREAK_INSTANCE(TIMx))
 800669a:	687b      	ldr	r3, [r7, #4]
 800669c:	4a14      	ldr	r2, [pc, #80]	; (80066f0 <TIM_OC3_SetConfig+0xd0>)
 800669e:	4293      	cmp	r3, r2
 80066a0:	d113      	bne.n	80066ca <TIM_OC3_SetConfig+0xaa>
    /* Check parameters */
    assert_param(IS_TIM_OCNIDLE_STATE(OC_Config->OCNIdleState));
    assert_param(IS_TIM_OCIDLE_STATE(OC_Config->OCIdleState));

    /* Reset the Output Compare and Output Compare N IDLE State */
    tmpcr2 &= ~TIM_CR2_OIS3;
 80066a2:	693b      	ldr	r3, [r7, #16]
 80066a4:	f423 5380 	bic.w	r3, r3, #4096	; 0x1000
 80066a8:	613b      	str	r3, [r7, #16]
    tmpcr2 &= ~TIM_CR2_OIS3N;
 80066aa:	693b      	ldr	r3, [r7, #16]
 80066ac:	f423 5300 	bic.w	r3, r3, #8192	; 0x2000
 80066b0:	613b      	str	r3, [r7, #16]
    /* Set the Output Idle state */
    tmpcr2 |= (OC_Config->OCIdleState << 4U);
 80066b2:	683b      	ldr	r3, [r7, #0]
 80066b4:	695b      	ldr	r3, [r3, #20]
 80066b6:	011b      	lsls	r3, r3, #4
 80066b8:	693a      	ldr	r2, [r7, #16]
 80066ba:	4313      	orrs	r3, r2
 80066bc:	613b      	str	r3, [r7, #16]
    /* Set the Output N Idle state */
    tmpcr2 |= (OC_Config->OCNIdleState << 4U);
 80066be:	683b      	ldr	r3, [r7, #0]
 80066c0:	699b      	ldr	r3, [r3, #24]
 80066c2:	011b      	lsls	r3, r3, #4
 80066c4:	693a      	ldr	r2, [r7, #16]
 80066c6:	4313      	orrs	r3, r2
 80066c8:	613b      	str	r3, [r7, #16]
  }

  /* Write to TIMx CR2 */
  TIMx->CR2 = tmpcr2;
 80066ca:	687b      	ldr	r3, [r7, #4]
 80066cc:	693a      	ldr	r2, [r7, #16]
 80066ce:	605a      	str	r2, [r3, #4]

  /* Write to TIMx CCMR2 */
  TIMx->CCMR2 = tmpccmrx;
 80066d0:	687b      	ldr	r3, [r7, #4]
 80066d2:	68fa      	ldr	r2, [r7, #12]
 80066d4:	61da      	str	r2, [r3, #28]

  /* Set the Capture Compare Register value */
  TIMx->CCR3 = OC_Config->Pulse;
 80066d6:	683b      	ldr	r3, [r7, #0]
 80066d8:	685a      	ldr	r2, [r3, #4]
 80066da:	687b      	ldr	r3, [r7, #4]
 80066dc:	63da      	str	r2, [r3, #60]	; 0x3c

  /* Write to TIMx CCER */
  TIMx->CCER = tmpccer;
 80066de:	687b      	ldr	r3, [r7, #4]
 80066e0:	697a      	ldr	r2, [r7, #20]
 80066e2:	621a      	str	r2, [r3, #32]
}
 80066e4:	bf00      	nop
 80066e6:	371c      	adds	r7, #28
 80066e8:	46bd      	mov	sp, r7
 80066ea:	bc80      	pop	{r7}
 80066ec:	4770      	bx	lr
 80066ee:	bf00      	nop
 80066f0:	40012c00 	.word	0x40012c00

080066f4 <TIM_OC4_SetConfig>:
  * @param  TIMx to select the TIM peripheral
  * @param  OC_Config The output configuration structure
  * @retval None
  */
static void TIM_OC4_SetConfig(TIM_TypeDef *TIMx, TIM_OC_InitTypeDef *OC_Config)
{
 80066f4:	b480      	push	{r7}
 80066f6:	b087      	sub	sp, #28
 80066f8:	af00      	add	r7, sp, #0
 80066fa:	6078      	str	r0, [r7, #4]
 80066fc:	6039      	str	r1, [r7, #0]
  uint32_t tmpccmrx;
  uint32_t tmpccer;
  uint32_t tmpcr2;

  /* Disable the Channel 4: Reset the CC4E Bit */
  TIMx->CCER &= ~TIM_CCER_CC4E;
 80066fe:	687b      	ldr	r3, [r7, #4]
 8006700:	6a1b      	ldr	r3, [r3, #32]
 8006702:	f423 5280 	bic.w	r2, r3, #4096	; 0x1000
 8006706:	687b      	ldr	r3, [r7, #4]
 8006708:	621a      	str	r2, [r3, #32]

  /* Get the TIMx CCER register value */
  tmpccer = TIMx->CCER;
 800670a:	687b      	ldr	r3, [r7, #4]
 800670c:	6a1b      	ldr	r3, [r3, #32]
 800670e:	613b      	str	r3, [r7, #16]
  /* Get the TIMx CR2 register value */
  tmpcr2 =  TIMx->CR2;
 8006710:	687b      	ldr	r3, [r7, #4]
 8006712:	685b      	ldr	r3, [r3, #4]
 8006714:	617b      	str	r3, [r7, #20]

  /* Get the TIMx CCMR2 register value */
  tmpccmrx = TIMx->CCMR2;
 8006716:	687b      	ldr	r3, [r7, #4]
 8006718:	69db      	ldr	r3, [r3, #28]
 800671a:	60fb      	str	r3, [r7, #12]

  /* Reset the Output Compare mode and Capture/Compare selection Bits */
  tmpccmrx &= ~TIM_CCMR2_OC4M;
 800671c:	68fb      	ldr	r3, [r7, #12]
 800671e:	f423 43e0 	bic.w	r3, r3, #28672	; 0x7000
 8006722:	60fb      	str	r3, [r7, #12]
  tmpccmrx &= ~TIM_CCMR2_CC4S;
 8006724:	68fb      	ldr	r3, [r7, #12]
 8006726:	f423 7340 	bic.w	r3, r3, #768	; 0x300
 800672a:	60fb      	str	r3, [r7, #12]

  /* Select the Output Compare Mode */
  tmpccmrx |= (OC_Config->OCMode << 8U);
 800672c:	683b      	ldr	r3, [r7, #0]
 800672e:	681b      	ldr	r3, [r3, #0]
 8006730:	021b      	lsls	r3, r3, #8
 8006732:	68fa      	ldr	r2, [r7, #12]
 8006734:	4313      	orrs	r3, r2
 8006736:	60fb      	str	r3, [r7, #12]

  /* Reset the Output Polarity level */
  tmpccer &= ~TIM_CCER_CC4P;
 8006738:	693b      	ldr	r3, [r7, #16]
 800673a:	f423 5300 	bic.w	r3, r3, #8192	; 0x2000
 800673e:	613b      	str	r3, [r7, #16]
  /* Set the Output Compare Polarity */
  tmpccer |= (OC_Config->OCPolarity << 12U);
 8006740:	683b      	ldr	r3, [r7, #0]
 8006742:	689b      	ldr	r3, [r3, #8]
 8006744:	031b      	lsls	r3, r3, #12
 8006746:	693a      	ldr	r2, [r7, #16]
 8006748:	4313      	orrs	r3, r2
 800674a:	613b      	str	r3, [r7, #16]

  if (IS_TIM_BREAK_INSTANCE(TIMx))
 800674c:	687b      	ldr	r3, [r7, #4]
 800674e:	4a0f      	ldr	r2, [pc, #60]	; (800678c <TIM_OC4_SetConfig+0x98>)
 8006750:	4293      	cmp	r3, r2
 8006752:	d109      	bne.n	8006768 <TIM_OC4_SetConfig+0x74>
  {
    /* Check parameters */
    assert_param(IS_TIM_OCIDLE_STATE(OC_Config->OCIdleState));

    /* Reset the Output Compare IDLE State */
    tmpcr2 &= ~TIM_CR2_OIS4;
 8006754:	697b      	ldr	r3, [r7, #20]
 8006756:	f423 4380 	bic.w	r3, r3, #16384	; 0x4000
 800675a:	617b      	str	r3, [r7, #20]

    /* Set the Output Idle state */
    tmpcr2 |= (OC_Config->OCIdleState << 6U);
 800675c:	683b      	ldr	r3, [r7, #0]
 800675e:	695b      	ldr	r3, [r3, #20]
 8006760:	019b      	lsls	r3, r3, #6
 8006762:	697a      	ldr	r2, [r7, #20]
 8006764:	4313      	orrs	r3, r2
 8006766:	617b      	str	r3, [r7, #20]
  }

  /* Write to TIMx CR2 */
  TIMx->CR2 = tmpcr2;
 8006768:	687b      	ldr	r3, [r7, #4]
 800676a:	697a      	ldr	r2, [r7, #20]
 800676c:	605a      	str	r2, [r3, #4]

  /* Write to TIMx CCMR2 */
  TIMx->CCMR2 = tmpccmrx;
 800676e:	687b      	ldr	r3, [r7, #4]
 8006770:	68fa      	ldr	r2, [r7, #12]
 8006772:	61da      	str	r2, [r3, #28]

  /* Set the Capture Compare Register value */
  TIMx->CCR4 = OC_Config->Pulse;
 8006774:	683b      	ldr	r3, [r7, #0]
 8006776:	685a      	ldr	r2, [r3, #4]
 8006778:	687b      	ldr	r3, [r7, #4]
 800677a:	641a      	str	r2, [r3, #64]	; 0x40

  /* Write to TIMx CCER */
  TIMx->CCER = tmpccer;
 800677c:	687b      	ldr	r3, [r7, #4]
 800677e:	693a      	ldr	r2, [r7, #16]
 8006780:	621a      	str	r2, [r3, #32]
}
 8006782:	bf00      	nop
 8006784:	371c      	adds	r7, #28
 8006786:	46bd      	mov	sp, r7
 8006788:	bc80      	pop	{r7}
 800678a:	4770      	bx	lr
 800678c:	40012c00 	.word	0x40012c00

08006790 <TIM_CCxChannelCmd>:
  * @param  ChannelState specifies the TIM Channel CCxE bit new state.
  *          This parameter can be: TIM_CCx_ENABLE or TIM_CCx_DISABLE.
  * @retval None
  */
void TIM_CCxChannelCmd(TIM_TypeDef *TIMx, uint32_t Channel, uint32_t ChannelState)
{
 8006790:	b480      	push	{r7}
 8006792:	b087      	sub	sp, #28
 8006794:	af00      	add	r7, sp, #0
 8006796:	60f8      	str	r0, [r7, #12]
 8006798:	60b9      	str	r1, [r7, #8]
 800679a:	607a      	str	r2, [r7, #4]

  /* Check the parameters */
  assert_param(IS_TIM_CC1_INSTANCE(TIMx));
  assert_param(IS_TIM_CHANNELS(Channel));

  tmp = TIM_CCER_CC1E << (Channel & 0x1FU); /* 0x1FU = 31 bits max shift */
 800679c:	68bb      	ldr	r3, [r7, #8]
 800679e:	f003 031f 	and.w	r3, r3, #31
 80067a2:	2201      	movs	r2, #1
 80067a4:	fa02 f303 	lsl.w	r3, r2, r3
 80067a8:	617b      	str	r3, [r7, #20]

  /* Reset the CCxE Bit */
  TIMx->CCER &= ~tmp;
 80067aa:	68fb      	ldr	r3, [r7, #12]
 80067ac:	6a1a      	ldr	r2, [r3, #32]
 80067ae:	697b      	ldr	r3, [r7, #20]
 80067b0:	43db      	mvns	r3, r3
 80067b2:	401a      	ands	r2, r3
 80067b4:	68fb      	ldr	r3, [r7, #12]
 80067b6:	621a      	str	r2, [r3, #32]

  /* Set or reset the CCxE Bit */
  TIMx->CCER |= (uint32_t)(ChannelState << (Channel & 0x1FU)); /* 0x1FU = 31 bits max shift */
 80067b8:	68fb      	ldr	r3, [r7, #12]
 80067ba:	6a1a      	ldr	r2, [r3, #32]
 80067bc:	68bb      	ldr	r3, [r7, #8]
 80067be:	f003 031f 	and.w	r3, r3, #31
 80067c2:	6879      	ldr	r1, [r7, #4]
 80067c4:	fa01 f303 	lsl.w	r3, r1, r3
 80067c8:	431a      	orrs	r2, r3
 80067ca:	68fb      	ldr	r3, [r7, #12]
 80067cc:	621a      	str	r2, [r3, #32]
}
 80067ce:	bf00      	nop
 80067d0:	371c      	adds	r7, #28
 80067d2:	46bd      	mov	sp, r7
 80067d4:	bc80      	pop	{r7}
 80067d6:	4770      	bx	lr

080067d8 <HAL_TIMEx_MasterConfigSynchronization>:
  *         mode.
  * @retval HAL status
  */
HAL_StatusTypeDef HAL_TIMEx_MasterConfigSynchronization(TIM_HandleTypeDef *htim,
                                                        TIM_MasterConfigTypeDef *sMasterConfig)
{
 80067d8:	b480      	push	{r7}
 80067da:	b085      	sub	sp, #20
 80067dc:	af00      	add	r7, sp, #0
 80067de:	6078      	str	r0, [r7, #4]
 80067e0:	6039      	str	r1, [r7, #0]
  assert_param(IS_TIM_MASTER_INSTANCE(htim->Instance));
  assert_param(IS_TIM_TRGO_SOURCE(sMasterConfig->MasterOutputTrigger));
  assert_param(IS_TIM_MSM_STATE(sMasterConfig->MasterSlaveMode));

  /* Check input state */
  __HAL_LOCK(htim);
 80067e2:	687b      	ldr	r3, [r7, #4]
 80067e4:	f893 303c 	ldrb.w	r3, [r3, #60]	; 0x3c
 80067e8:	2b01      	cmp	r3, #1
 80067ea:	d101      	bne.n	80067f0 <HAL_TIMEx_MasterConfigSynchronization+0x18>
 80067ec:	2302      	movs	r3, #2
 80067ee:	e046      	b.n	800687e <HAL_TIMEx_MasterConfigSynchronization+0xa6>
 80067f0:	687b      	ldr	r3, [r7, #4]
 80067f2:	2201      	movs	r2, #1
 80067f4:	f883 203c 	strb.w	r2, [r3, #60]	; 0x3c

  /* Change the handler state */
  htim->State = HAL_TIM_STATE_BUSY;
 80067f8:	687b      	ldr	r3, [r7, #4]
 80067fa:	2202      	movs	r2, #2
 80067fc:	f883 203d 	strb.w	r2, [r3, #61]	; 0x3d

  /* Get the TIMx CR2 register value */
  tmpcr2 = htim->Instance->CR2;
 8006800:	687b      	ldr	r3, [r7, #4]
 8006802:	681b      	ldr	r3, [r3, #0]
 8006804:	685b      	ldr	r3, [r3, #4]
 8006806:	60fb      	str	r3, [r7, #12]

  /* Get the TIMx SMCR register value */
  tmpsmcr = htim->Instance->SMCR;
 8006808:	687b      	ldr	r3, [r7, #4]
 800680a:	681b      	ldr	r3, [r3, #0]
 800680c:	689b      	ldr	r3, [r3, #8]
 800680e:	60bb      	str	r3, [r7, #8]

  /* Reset the MMS Bits */
  tmpcr2 &= ~TIM_CR2_MMS;
 8006810:	68fb      	ldr	r3, [r7, #12]
 8006812:	f023 0370 	bic.w	r3, r3, #112	; 0x70
 8006816:	60fb      	str	r3, [r7, #12]
  /* Select the TRGO source */
  tmpcr2 |=  sMasterConfig->MasterOutputTrigger;
 8006818:	683b      	ldr	r3, [r7, #0]
 800681a:	681b      	ldr	r3, [r3, #0]
 800681c:	68fa      	ldr	r2, [r7, #12]
 800681e:	4313      	orrs	r3, r2
 8006820:	60fb      	str	r3, [r7, #12]

  /* Update TIMx CR2 */
  htim->Instance->CR2 = tmpcr2;
 8006822:	687b      	ldr	r3, [r7, #4]
 8006824:	681b      	ldr	r3, [r3, #0]
 8006826:	68fa      	ldr	r2, [r7, #12]
 8006828:	605a      	str	r2, [r3, #4]

  if (IS_TIM_SLAVE_INSTANCE(htim->Instance))
 800682a:	687b      	ldr	r3, [r7, #4]
 800682c:	681b      	ldr	r3, [r3, #0]
 800682e:	4a16      	ldr	r2, [pc, #88]	; (8006888 <HAL_TIMEx_MasterConfigSynchronization+0xb0>)
 8006830:	4293      	cmp	r3, r2
 8006832:	d00e      	beq.n	8006852 <HAL_TIMEx_MasterConfigSynchronization+0x7a>
 8006834:	687b      	ldr	r3, [r7, #4]
 8006836:	681b      	ldr	r3, [r3, #0]
 8006838:	f1b3 4f80 	cmp.w	r3, #1073741824	; 0x40000000
 800683c:	d009      	beq.n	8006852 <HAL_TIMEx_MasterConfigSynchronization+0x7a>
 800683e:	687b      	ldr	r3, [r7, #4]
 8006840:	681b      	ldr	r3, [r3, #0]
 8006842:	4a12      	ldr	r2, [pc, #72]	; (800688c <HAL_TIMEx_MasterConfigSynchronization+0xb4>)
 8006844:	4293      	cmp	r3, r2
 8006846:	d004      	beq.n	8006852 <HAL_TIMEx_MasterConfigSynchronization+0x7a>
 8006848:	687b      	ldr	r3, [r7, #4]
 800684a:	681b      	ldr	r3, [r3, #0]
 800684c:	4a10      	ldr	r2, [pc, #64]	; (8006890 <HAL_TIMEx_MasterConfigSynchronization+0xb8>)
 800684e:	4293      	cmp	r3, r2
 8006850:	d10c      	bne.n	800686c <HAL_TIMEx_MasterConfigSynchronization+0x94>
  {
    /* Reset the MSM Bit */
    tmpsmcr &= ~TIM_SMCR_MSM;
 8006852:	68bb      	ldr	r3, [r7, #8]
 8006854:	f023 0380 	bic.w	r3, r3, #128	; 0x80
 8006858:	60bb      	str	r3, [r7, #8]
    /* Set master mode */
    tmpsmcr |= sMasterConfig->MasterSlaveMode;
 800685a:	683b      	ldr	r3, [r7, #0]
 800685c:	685b      	ldr	r3, [r3, #4]
 800685e:	68ba      	ldr	r2, [r7, #8]
 8006860:	4313      	orrs	r3, r2
 8006862:	60bb      	str	r3, [r7, #8]

    /* Update TIMx SMCR */
    htim->Instance->SMCR = tmpsmcr;
 8006864:	687b      	ldr	r3, [r7, #4]
 8006866:	681b      	ldr	r3, [r3, #0]
 8006868:	68ba      	ldr	r2, [r7, #8]
 800686a:	609a      	str	r2, [r3, #8]
  }

  /* Change the htim state */
  htim->State = HAL_TIM_STATE_READY;
 800686c:	687b      	ldr	r3, [r7, #4]
 800686e:	2201      	movs	r2, #1
 8006870:	f883 203d 	strb.w	r2, [r3, #61]	; 0x3d

  __HAL_UNLOCK(htim);
 8006874:	687b      	ldr	r3, [r7, #4]
 8006876:	2200      	movs	r2, #0
 8006878:	f883 203c 	strb.w	r2, [r3, #60]	; 0x3c

  return HAL_OK;
 800687c:	2300      	movs	r3, #0
}
 800687e:	4618      	mov	r0, r3
 8006880:	3714      	adds	r7, #20
 8006882:	46bd      	mov	sp, r7
 8006884:	bc80      	pop	{r7}
 8006886:	4770      	bx	lr
 8006888:	40012c00 	.word	0x40012c00
 800688c:	40000400 	.word	0x40000400
 8006890:	40000800 	.word	0x40000800

08006894 <__errno>:
 8006894:	4b01      	ldr	r3, [pc, #4]	; (800689c <__errno+0x8>)
 8006896:	6818      	ldr	r0, [r3, #0]
 8006898:	4770      	bx	lr
 800689a:	bf00      	nop
 800689c:	20000020 	.word	0x20000020

080068a0 <__libc_init_array>:
 80068a0:	b570      	push	{r4, r5, r6, lr}
 80068a2:	2600      	movs	r6, #0
 80068a4:	4d0c      	ldr	r5, [pc, #48]	; (80068d8 <__libc_init_array+0x38>)
 80068a6:	4c0d      	ldr	r4, [pc, #52]	; (80068dc <__libc_init_array+0x3c>)
 80068a8:	1b64      	subs	r4, r4, r5
 80068aa:	10a4      	asrs	r4, r4, #2
 80068ac:	42a6      	cmp	r6, r4
 80068ae:	d109      	bne.n	80068c4 <__libc_init_array+0x24>
 80068b0:	f000 fa72 	bl	8006d98 <_init>
 80068b4:	2600      	movs	r6, #0
 80068b6:	4d0a      	ldr	r5, [pc, #40]	; (80068e0 <__libc_init_array+0x40>)
 80068b8:	4c0a      	ldr	r4, [pc, #40]	; (80068e4 <__libc_init_array+0x44>)
 80068ba:	1b64      	subs	r4, r4, r5
 80068bc:	10a4      	asrs	r4, r4, #2
 80068be:	42a6      	cmp	r6, r4
 80068c0:	d105      	bne.n	80068ce <__libc_init_array+0x2e>
 80068c2:	bd70      	pop	{r4, r5, r6, pc}
 80068c4:	f855 3b04 	ldr.w	r3, [r5], #4
 80068c8:	4798      	blx	r3
 80068ca:	3601      	adds	r6, #1
 80068cc:	e7ee      	b.n	80068ac <__libc_init_array+0xc>
 80068ce:	f855 3b04 	ldr.w	r3, [r5], #4
 80068d2:	4798      	blx	r3
 80068d4:	3601      	adds	r6, #1
 80068d6:	e7f2      	b.n	80068be <__libc_init_array+0x1e>
 80068d8:	08007b74 	.word	0x08007b74
 80068dc:	08007b74 	.word	0x08007b74
 80068e0:	08007b74 	.word	0x08007b74
 80068e4:	08007b78 	.word	0x08007b78

080068e8 <__itoa>:
 80068e8:	1e93      	subs	r3, r2, #2
 80068ea:	2b22      	cmp	r3, #34	; 0x22
 80068ec:	b510      	push	{r4, lr}
 80068ee:	460c      	mov	r4, r1
 80068f0:	d904      	bls.n	80068fc <__itoa+0x14>
 80068f2:	2300      	movs	r3, #0
 80068f4:	461c      	mov	r4, r3
 80068f6:	700b      	strb	r3, [r1, #0]
 80068f8:	4620      	mov	r0, r4
 80068fa:	bd10      	pop	{r4, pc}
 80068fc:	2a0a      	cmp	r2, #10
 80068fe:	d109      	bne.n	8006914 <__itoa+0x2c>
 8006900:	2800      	cmp	r0, #0
 8006902:	da07      	bge.n	8006914 <__itoa+0x2c>
 8006904:	232d      	movs	r3, #45	; 0x2d
 8006906:	700b      	strb	r3, [r1, #0]
 8006908:	2101      	movs	r1, #1
 800690a:	4240      	negs	r0, r0
 800690c:	4421      	add	r1, r4
 800690e:	f000 f80d 	bl	800692c <__utoa>
 8006912:	e7f1      	b.n	80068f8 <__itoa+0x10>
 8006914:	2100      	movs	r1, #0
 8006916:	e7f9      	b.n	800690c <__itoa+0x24>

08006918 <itoa>:
 8006918:	f7ff bfe6 	b.w	80068e8 <__itoa>

0800691c <memset>:
 800691c:	4603      	mov	r3, r0
 800691e:	4402      	add	r2, r0
 8006920:	4293      	cmp	r3, r2
 8006922:	d100      	bne.n	8006926 <memset+0xa>
 8006924:	4770      	bx	lr
 8006926:	f803 1b01 	strb.w	r1, [r3], #1
 800692a:	e7f9      	b.n	8006920 <memset+0x4>

0800692c <__utoa>:
 800692c:	b5f0      	push	{r4, r5, r6, r7, lr}
 800692e:	b08b      	sub	sp, #44	; 0x2c
 8006930:	4605      	mov	r5, r0
 8006932:	460b      	mov	r3, r1
 8006934:	466e      	mov	r6, sp
 8006936:	4c1d      	ldr	r4, [pc, #116]	; (80069ac <__utoa+0x80>)
 8006938:	f104 0c20 	add.w	ip, r4, #32
 800693c:	4637      	mov	r7, r6
 800693e:	6820      	ldr	r0, [r4, #0]
 8006940:	6861      	ldr	r1, [r4, #4]
 8006942:	3408      	adds	r4, #8
 8006944:	c703      	stmia	r7!, {r0, r1}
 8006946:	4564      	cmp	r4, ip
 8006948:	463e      	mov	r6, r7
 800694a:	d1f7      	bne.n	800693c <__utoa+0x10>
 800694c:	7921      	ldrb	r1, [r4, #4]
 800694e:	6820      	ldr	r0, [r4, #0]
 8006950:	7139      	strb	r1, [r7, #4]
 8006952:	1e91      	subs	r1, r2, #2
 8006954:	2922      	cmp	r1, #34	; 0x22
 8006956:	6038      	str	r0, [r7, #0]
 8006958:	f04f 0100 	mov.w	r1, #0
 800695c:	d904      	bls.n	8006968 <__utoa+0x3c>
 800695e:	7019      	strb	r1, [r3, #0]
 8006960:	460b      	mov	r3, r1
 8006962:	4618      	mov	r0, r3
 8006964:	b00b      	add	sp, #44	; 0x2c
 8006966:	bdf0      	pop	{r4, r5, r6, r7, pc}
 8006968:	1e58      	subs	r0, r3, #1
 800696a:	4684      	mov	ip, r0
 800696c:	fbb5 f7f2 	udiv	r7, r5, r2
 8006970:	fb02 5617 	mls	r6, r2, r7, r5
 8006974:	f10d 0e28 	add.w	lr, sp, #40	; 0x28
 8006978:	4476      	add	r6, lr
 800697a:	f816 6c28 	ldrb.w	r6, [r6, #-40]
 800697e:	460c      	mov	r4, r1
 8006980:	f80c 6f01 	strb.w	r6, [ip, #1]!
 8006984:	462e      	mov	r6, r5
 8006986:	42b2      	cmp	r2, r6
 8006988:	463d      	mov	r5, r7
 800698a:	f101 0101 	add.w	r1, r1, #1
 800698e:	d9ed      	bls.n	800696c <__utoa+0x40>
 8006990:	2200      	movs	r2, #0
 8006992:	545a      	strb	r2, [r3, r1]
 8006994:	1919      	adds	r1, r3, r4
 8006996:	1aa5      	subs	r5, r4, r2
 8006998:	42aa      	cmp	r2, r5
 800699a:	dae2      	bge.n	8006962 <__utoa+0x36>
 800699c:	f810 5f01 	ldrb.w	r5, [r0, #1]!
 80069a0:	780e      	ldrb	r6, [r1, #0]
 80069a2:	3201      	adds	r2, #1
 80069a4:	7006      	strb	r6, [r0, #0]
 80069a6:	f801 5901 	strb.w	r5, [r1], #-1
 80069aa:	e7f4      	b.n	8006996 <__utoa+0x6a>
 80069ac:	08007b4c 	.word	0x08007b4c

080069b0 <log>:
 80069b0:	b5f8      	push	{r3, r4, r5, r6, r7, lr}
 80069b2:	4604      	mov	r4, r0
 80069b4:	460d      	mov	r5, r1
 80069b6:	f000 f837 	bl	8006a28 <__ieee754_log>
 80069ba:	4b17      	ldr	r3, [pc, #92]	; (8006a18 <log+0x68>)
 80069bc:	4606      	mov	r6, r0
 80069be:	f993 3000 	ldrsb.w	r3, [r3]
 80069c2:	460f      	mov	r7, r1
 80069c4:	3301      	adds	r3, #1
 80069c6:	d01a      	beq.n	80069fe <log+0x4e>
 80069c8:	4622      	mov	r2, r4
 80069ca:	462b      	mov	r3, r5
 80069cc:	4620      	mov	r0, r4
 80069ce:	4629      	mov	r1, r5
 80069d0:	f7fa f814 	bl	80009fc <__aeabi_dcmpun>
 80069d4:	b998      	cbnz	r0, 80069fe <log+0x4e>
 80069d6:	2200      	movs	r2, #0
 80069d8:	2300      	movs	r3, #0
 80069da:	4620      	mov	r0, r4
 80069dc:	4629      	mov	r1, r5
 80069de:	f7fa f803 	bl	80009e8 <__aeabi_dcmpgt>
 80069e2:	b960      	cbnz	r0, 80069fe <log+0x4e>
 80069e4:	2200      	movs	r2, #0
 80069e6:	2300      	movs	r3, #0
 80069e8:	4620      	mov	r0, r4
 80069ea:	4629      	mov	r1, r5
 80069ec:	f7f9 ffd4 	bl	8000998 <__aeabi_dcmpeq>
 80069f0:	b140      	cbz	r0, 8006a04 <log+0x54>
 80069f2:	f7ff ff4f 	bl	8006894 <__errno>
 80069f6:	2322      	movs	r3, #34	; 0x22
 80069f8:	2600      	movs	r6, #0
 80069fa:	4f08      	ldr	r7, [pc, #32]	; (8006a1c <log+0x6c>)
 80069fc:	6003      	str	r3, [r0, #0]
 80069fe:	4630      	mov	r0, r6
 8006a00:	4639      	mov	r1, r7
 8006a02:	bdf8      	pop	{r3, r4, r5, r6, r7, pc}
 8006a04:	f7ff ff46 	bl	8006894 <__errno>
 8006a08:	2321      	movs	r3, #33	; 0x21
 8006a0a:	6003      	str	r3, [r0, #0]
 8006a0c:	4804      	ldr	r0, [pc, #16]	; (8006a20 <log+0x70>)
 8006a0e:	e8bd 40f8 	ldmia.w	sp!, {r3, r4, r5, r6, r7, lr}
 8006a12:	f000 b9bb 	b.w	8006d8c <nan>
 8006a16:	bf00      	nop
 8006a18:	20000084 	.word	0x20000084
 8006a1c:	fff00000 	.word	0xfff00000
 8006a20:	08007b70 	.word	0x08007b70
 8006a24:	00000000 	.word	0x00000000

08006a28 <__ieee754_log>:
 8006a28:	e92d 4ff0 	stmdb	sp!, {r4, r5, r6, r7, r8, r9, sl, fp, lr}
 8006a2c:	f5b1 1f80 	cmp.w	r1, #1048576	; 0x100000
 8006a30:	4602      	mov	r2, r0
 8006a32:	460b      	mov	r3, r1
 8006a34:	460d      	mov	r5, r1
 8006a36:	b087      	sub	sp, #28
 8006a38:	da24      	bge.n	8006a84 <__ieee754_log+0x5c>
 8006a3a:	f021 4400 	bic.w	r4, r1, #2147483648	; 0x80000000
 8006a3e:	4304      	orrs	r4, r0
 8006a40:	d108      	bne.n	8006a54 <__ieee754_log+0x2c>
 8006a42:	2200      	movs	r2, #0
 8006a44:	2300      	movs	r3, #0
 8006a46:	2000      	movs	r0, #0
 8006a48:	49cb      	ldr	r1, [pc, #812]	; (8006d78 <__ieee754_log+0x350>)
 8006a4a:	f7f9 fe67 	bl	800071c <__aeabi_ddiv>
 8006a4e:	b007      	add	sp, #28
 8006a50:	e8bd 8ff0 	ldmia.w	sp!, {r4, r5, r6, r7, r8, r9, sl, fp, pc}
 8006a54:	2900      	cmp	r1, #0
 8006a56:	da04      	bge.n	8006a62 <__ieee754_log+0x3a>
 8006a58:	f7f9 fb7e 	bl	8000158 <__aeabi_dsub>
 8006a5c:	2200      	movs	r2, #0
 8006a5e:	2300      	movs	r3, #0
 8006a60:	e7f3      	b.n	8006a4a <__ieee754_log+0x22>
 8006a62:	2200      	movs	r2, #0
 8006a64:	4bc5      	ldr	r3, [pc, #788]	; (8006d7c <__ieee754_log+0x354>)
 8006a66:	f7f9 fd2f 	bl	80004c8 <__aeabi_dmul>
 8006a6a:	f06f 0635 	mvn.w	r6, #53	; 0x35
 8006a6e:	4602      	mov	r2, r0
 8006a70:	460b      	mov	r3, r1
 8006a72:	460d      	mov	r5, r1
 8006a74:	49c2      	ldr	r1, [pc, #776]	; (8006d80 <__ieee754_log+0x358>)
 8006a76:	428d      	cmp	r5, r1
 8006a78:	dd06      	ble.n	8006a88 <__ieee754_log+0x60>
 8006a7a:	4610      	mov	r0, r2
 8006a7c:	4619      	mov	r1, r3
 8006a7e:	f7f9 fb6d 	bl	800015c <__adddf3>
 8006a82:	e7e4      	b.n	8006a4e <__ieee754_log+0x26>
 8006a84:	2600      	movs	r6, #0
 8006a86:	e7f5      	b.n	8006a74 <__ieee754_log+0x4c>
 8006a88:	152c      	asrs	r4, r5, #20
 8006a8a:	f3c5 0513 	ubfx	r5, r5, #0, #20
 8006a8e:	f505 2115 	add.w	r1, r5, #610304	; 0x95000
 8006a92:	f2a4 34ff 	subw	r4, r4, #1023	; 0x3ff
 8006a96:	f601 7164 	addw	r1, r1, #3940	; 0xf64
 8006a9a:	4426      	add	r6, r4
 8006a9c:	f401 1480 	and.w	r4, r1, #1048576	; 0x100000
 8006aa0:	f084 517f 	eor.w	r1, r4, #1069547520	; 0x3fc00000
 8006aa4:	f481 1140 	eor.w	r1, r1, #3145728	; 0x300000
 8006aa8:	ea41 0305 	orr.w	r3, r1, r5
 8006aac:	4610      	mov	r0, r2
 8006aae:	4619      	mov	r1, r3
 8006ab0:	2200      	movs	r2, #0
 8006ab2:	4bb4      	ldr	r3, [pc, #720]	; (8006d84 <__ieee754_log+0x35c>)
 8006ab4:	f7f9 fb50 	bl	8000158 <__aeabi_dsub>
 8006ab8:	1cab      	adds	r3, r5, #2
 8006aba:	f3c3 0313 	ubfx	r3, r3, #0, #20
 8006abe:	2b02      	cmp	r3, #2
 8006ac0:	4682      	mov	sl, r0
 8006ac2:	468b      	mov	fp, r1
 8006ac4:	f04f 0200 	mov.w	r2, #0
 8006ac8:	eb06 5414 	add.w	r4, r6, r4, lsr #20
 8006acc:	dc53      	bgt.n	8006b76 <__ieee754_log+0x14e>
 8006ace:	2300      	movs	r3, #0
 8006ad0:	f7f9 ff62 	bl	8000998 <__aeabi_dcmpeq>
 8006ad4:	b1d0      	cbz	r0, 8006b0c <__ieee754_log+0xe4>
 8006ad6:	2c00      	cmp	r4, #0
 8006ad8:	f000 8122 	beq.w	8006d20 <__ieee754_log+0x2f8>
 8006adc:	4620      	mov	r0, r4
 8006ade:	f7f9 fc89 	bl	80003f4 <__aeabi_i2d>
 8006ae2:	a391      	add	r3, pc, #580	; (adr r3, 8006d28 <__ieee754_log+0x300>)
 8006ae4:	e9d3 2300 	ldrd	r2, r3, [r3]
 8006ae8:	4606      	mov	r6, r0
 8006aea:	460f      	mov	r7, r1
 8006aec:	f7f9 fcec 	bl	80004c8 <__aeabi_dmul>
 8006af0:	a38f      	add	r3, pc, #572	; (adr r3, 8006d30 <__ieee754_log+0x308>)
 8006af2:	e9d3 2300 	ldrd	r2, r3, [r3]
 8006af6:	4604      	mov	r4, r0
 8006af8:	460d      	mov	r5, r1
 8006afa:	4630      	mov	r0, r6
 8006afc:	4639      	mov	r1, r7
 8006afe:	f7f9 fce3 	bl	80004c8 <__aeabi_dmul>
 8006b02:	4602      	mov	r2, r0
 8006b04:	460b      	mov	r3, r1
 8006b06:	4620      	mov	r0, r4
 8006b08:	4629      	mov	r1, r5
 8006b0a:	e7b8      	b.n	8006a7e <__ieee754_log+0x56>
 8006b0c:	a38a      	add	r3, pc, #552	; (adr r3, 8006d38 <__ieee754_log+0x310>)
 8006b0e:	e9d3 2300 	ldrd	r2, r3, [r3]
 8006b12:	4650      	mov	r0, sl
 8006b14:	4659      	mov	r1, fp
 8006b16:	f7f9 fcd7 	bl	80004c8 <__aeabi_dmul>
 8006b1a:	4602      	mov	r2, r0
 8006b1c:	460b      	mov	r3, r1
 8006b1e:	2000      	movs	r0, #0
 8006b20:	4999      	ldr	r1, [pc, #612]	; (8006d88 <__ieee754_log+0x360>)
 8006b22:	f7f9 fb19 	bl	8000158 <__aeabi_dsub>
 8006b26:	4652      	mov	r2, sl
 8006b28:	4606      	mov	r6, r0
 8006b2a:	460f      	mov	r7, r1
 8006b2c:	465b      	mov	r3, fp
 8006b2e:	4650      	mov	r0, sl
 8006b30:	4659      	mov	r1, fp
 8006b32:	f7f9 fcc9 	bl	80004c8 <__aeabi_dmul>
 8006b36:	4602      	mov	r2, r0
 8006b38:	460b      	mov	r3, r1
 8006b3a:	4630      	mov	r0, r6
 8006b3c:	4639      	mov	r1, r7
 8006b3e:	f7f9 fcc3 	bl	80004c8 <__aeabi_dmul>
 8006b42:	4606      	mov	r6, r0
 8006b44:	460f      	mov	r7, r1
 8006b46:	b914      	cbnz	r4, 8006b4e <__ieee754_log+0x126>
 8006b48:	4632      	mov	r2, r6
 8006b4a:	463b      	mov	r3, r7
 8006b4c:	e0a2      	b.n	8006c94 <__ieee754_log+0x26c>
 8006b4e:	4620      	mov	r0, r4
 8006b50:	f7f9 fc50 	bl	80003f4 <__aeabi_i2d>
 8006b54:	a374      	add	r3, pc, #464	; (adr r3, 8006d28 <__ieee754_log+0x300>)
 8006b56:	e9d3 2300 	ldrd	r2, r3, [r3]
 8006b5a:	4680      	mov	r8, r0
 8006b5c:	4689      	mov	r9, r1
 8006b5e:	f7f9 fcb3 	bl	80004c8 <__aeabi_dmul>
 8006b62:	a373      	add	r3, pc, #460	; (adr r3, 8006d30 <__ieee754_log+0x308>)
 8006b64:	e9d3 2300 	ldrd	r2, r3, [r3]
 8006b68:	4604      	mov	r4, r0
 8006b6a:	460d      	mov	r5, r1
 8006b6c:	4640      	mov	r0, r8
 8006b6e:	4649      	mov	r1, r9
 8006b70:	f7f9 fcaa 	bl	80004c8 <__aeabi_dmul>
 8006b74:	e0a7      	b.n	8006cc6 <__ieee754_log+0x29e>
 8006b76:	f04f 4380 	mov.w	r3, #1073741824	; 0x40000000
 8006b7a:	f7f9 faef 	bl	800015c <__adddf3>
 8006b7e:	4602      	mov	r2, r0
 8006b80:	460b      	mov	r3, r1
 8006b82:	4650      	mov	r0, sl
 8006b84:	4659      	mov	r1, fp
 8006b86:	f7f9 fdc9 	bl	800071c <__aeabi_ddiv>
 8006b8a:	e9cd 0100 	strd	r0, r1, [sp]
 8006b8e:	4620      	mov	r0, r4
 8006b90:	f7f9 fc30 	bl	80003f4 <__aeabi_i2d>
 8006b94:	e9dd 2300 	ldrd	r2, r3, [sp]
 8006b98:	e9cd 0102 	strd	r0, r1, [sp, #8]
 8006b9c:	4610      	mov	r0, r2
 8006b9e:	4619      	mov	r1, r3
 8006ba0:	f7f9 fc92 	bl	80004c8 <__aeabi_dmul>
 8006ba4:	f5a5 23c2 	sub.w	r3, r5, #397312	; 0x61000
 8006ba8:	f2a3 437a 	subw	r3, r3, #1146	; 0x47a
 8006bac:	4602      	mov	r2, r0
 8006bae:	9305      	str	r3, [sp, #20]
 8006bb0:	460b      	mov	r3, r1
 8006bb2:	4606      	mov	r6, r0
 8006bb4:	460f      	mov	r7, r1
 8006bb6:	f7f9 fc87 	bl	80004c8 <__aeabi_dmul>
 8006bba:	a361      	add	r3, pc, #388	; (adr r3, 8006d40 <__ieee754_log+0x318>)
 8006bbc:	e9d3 2300 	ldrd	r2, r3, [r3]
 8006bc0:	4680      	mov	r8, r0
 8006bc2:	4689      	mov	r9, r1
 8006bc4:	f7f9 fc80 	bl	80004c8 <__aeabi_dmul>
 8006bc8:	a35f      	add	r3, pc, #380	; (adr r3, 8006d48 <__ieee754_log+0x320>)
 8006bca:	e9d3 2300 	ldrd	r2, r3, [r3]
 8006bce:	f7f9 fac5 	bl	800015c <__adddf3>
 8006bd2:	4642      	mov	r2, r8
 8006bd4:	464b      	mov	r3, r9
 8006bd6:	f7f9 fc77 	bl	80004c8 <__aeabi_dmul>
 8006bda:	a35d      	add	r3, pc, #372	; (adr r3, 8006d50 <__ieee754_log+0x328>)
 8006bdc:	e9d3 2300 	ldrd	r2, r3, [r3]
 8006be0:	f7f9 fabc 	bl	800015c <__adddf3>
 8006be4:	4642      	mov	r2, r8
 8006be6:	464b      	mov	r3, r9
 8006be8:	f7f9 fc6e 	bl	80004c8 <__aeabi_dmul>
 8006bec:	a35a      	add	r3, pc, #360	; (adr r3, 8006d58 <__ieee754_log+0x330>)
 8006bee:	e9d3 2300 	ldrd	r2, r3, [r3]
 8006bf2:	f7f9 fab3 	bl	800015c <__adddf3>
 8006bf6:	4632      	mov	r2, r6
 8006bf8:	463b      	mov	r3, r7
 8006bfa:	f7f9 fc65 	bl	80004c8 <__aeabi_dmul>
 8006bfe:	a358      	add	r3, pc, #352	; (adr r3, 8006d60 <__ieee754_log+0x338>)
 8006c00:	e9d3 2300 	ldrd	r2, r3, [r3]
 8006c04:	4606      	mov	r6, r0
 8006c06:	460f      	mov	r7, r1
 8006c08:	4640      	mov	r0, r8
 8006c0a:	4649      	mov	r1, r9
 8006c0c:	f7f9 fc5c 	bl	80004c8 <__aeabi_dmul>
 8006c10:	a355      	add	r3, pc, #340	; (adr r3, 8006d68 <__ieee754_log+0x340>)
 8006c12:	e9d3 2300 	ldrd	r2, r3, [r3]
 8006c16:	f7f9 faa1 	bl	800015c <__adddf3>
 8006c1a:	4642      	mov	r2, r8
 8006c1c:	464b      	mov	r3, r9
 8006c1e:	f7f9 fc53 	bl	80004c8 <__aeabi_dmul>
 8006c22:	a353      	add	r3, pc, #332	; (adr r3, 8006d70 <__ieee754_log+0x348>)
 8006c24:	e9d3 2300 	ldrd	r2, r3, [r3]
 8006c28:	f7f9 fa98 	bl	800015c <__adddf3>
 8006c2c:	4642      	mov	r2, r8
 8006c2e:	464b      	mov	r3, r9
 8006c30:	f7f9 fc4a 	bl	80004c8 <__aeabi_dmul>
 8006c34:	460b      	mov	r3, r1
 8006c36:	4602      	mov	r2, r0
 8006c38:	4639      	mov	r1, r7
 8006c3a:	4630      	mov	r0, r6
 8006c3c:	f7f9 fa8e 	bl	800015c <__adddf3>
 8006c40:	f5c5 25d7 	rsb	r5, r5, #440320	; 0x6b800
 8006c44:	9b05      	ldr	r3, [sp, #20]
 8006c46:	3551      	adds	r5, #81	; 0x51
 8006c48:	431d      	orrs	r5, r3
 8006c4a:	2d00      	cmp	r5, #0
 8006c4c:	4680      	mov	r8, r0
 8006c4e:	4689      	mov	r9, r1
 8006c50:	dd48      	ble.n	8006ce4 <__ieee754_log+0x2bc>
 8006c52:	2200      	movs	r2, #0
 8006c54:	4b4c      	ldr	r3, [pc, #304]	; (8006d88 <__ieee754_log+0x360>)
 8006c56:	4650      	mov	r0, sl
 8006c58:	4659      	mov	r1, fp
 8006c5a:	f7f9 fc35 	bl	80004c8 <__aeabi_dmul>
 8006c5e:	4652      	mov	r2, sl
 8006c60:	465b      	mov	r3, fp
 8006c62:	f7f9 fc31 	bl	80004c8 <__aeabi_dmul>
 8006c66:	4602      	mov	r2, r0
 8006c68:	460b      	mov	r3, r1
 8006c6a:	4606      	mov	r6, r0
 8006c6c:	460f      	mov	r7, r1
 8006c6e:	4640      	mov	r0, r8
 8006c70:	4649      	mov	r1, r9
 8006c72:	f7f9 fa73 	bl	800015c <__adddf3>
 8006c76:	e9dd 2300 	ldrd	r2, r3, [sp]
 8006c7a:	f7f9 fc25 	bl	80004c8 <__aeabi_dmul>
 8006c7e:	4680      	mov	r8, r0
 8006c80:	4689      	mov	r9, r1
 8006c82:	b964      	cbnz	r4, 8006c9e <__ieee754_log+0x276>
 8006c84:	4602      	mov	r2, r0
 8006c86:	460b      	mov	r3, r1
 8006c88:	4630      	mov	r0, r6
 8006c8a:	4639      	mov	r1, r7
 8006c8c:	f7f9 fa64 	bl	8000158 <__aeabi_dsub>
 8006c90:	4602      	mov	r2, r0
 8006c92:	460b      	mov	r3, r1
 8006c94:	4650      	mov	r0, sl
 8006c96:	4659      	mov	r1, fp
 8006c98:	f7f9 fa5e 	bl	8000158 <__aeabi_dsub>
 8006c9c:	e6d7      	b.n	8006a4e <__ieee754_log+0x26>
 8006c9e:	a322      	add	r3, pc, #136	; (adr r3, 8006d28 <__ieee754_log+0x300>)
 8006ca0:	e9d3 2300 	ldrd	r2, r3, [r3]
 8006ca4:	e9dd 0102 	ldrd	r0, r1, [sp, #8]
 8006ca8:	f7f9 fc0e 	bl	80004c8 <__aeabi_dmul>
 8006cac:	a320      	add	r3, pc, #128	; (adr r3, 8006d30 <__ieee754_log+0x308>)
 8006cae:	e9d3 2300 	ldrd	r2, r3, [r3]
 8006cb2:	4604      	mov	r4, r0
 8006cb4:	460d      	mov	r5, r1
 8006cb6:	e9dd 0102 	ldrd	r0, r1, [sp, #8]
 8006cba:	f7f9 fc05 	bl	80004c8 <__aeabi_dmul>
 8006cbe:	4642      	mov	r2, r8
 8006cc0:	464b      	mov	r3, r9
 8006cc2:	f7f9 fa4b 	bl	800015c <__adddf3>
 8006cc6:	4602      	mov	r2, r0
 8006cc8:	460b      	mov	r3, r1
 8006cca:	4630      	mov	r0, r6
 8006ccc:	4639      	mov	r1, r7
 8006cce:	f7f9 fa43 	bl	8000158 <__aeabi_dsub>
 8006cd2:	4652      	mov	r2, sl
 8006cd4:	465b      	mov	r3, fp
 8006cd6:	f7f9 fa3f 	bl	8000158 <__aeabi_dsub>
 8006cda:	4602      	mov	r2, r0
 8006cdc:	460b      	mov	r3, r1
 8006cde:	4620      	mov	r0, r4
 8006ce0:	4629      	mov	r1, r5
 8006ce2:	e7d9      	b.n	8006c98 <__ieee754_log+0x270>
 8006ce4:	4602      	mov	r2, r0
 8006ce6:	460b      	mov	r3, r1
 8006ce8:	4650      	mov	r0, sl
 8006cea:	4659      	mov	r1, fp
 8006cec:	f7f9 fa34 	bl	8000158 <__aeabi_dsub>
 8006cf0:	e9dd 2300 	ldrd	r2, r3, [sp]
 8006cf4:	f7f9 fbe8 	bl	80004c8 <__aeabi_dmul>
 8006cf8:	4606      	mov	r6, r0
 8006cfa:	460f      	mov	r7, r1
 8006cfc:	2c00      	cmp	r4, #0
 8006cfe:	f43f af23 	beq.w	8006b48 <__ieee754_log+0x120>
 8006d02:	a309      	add	r3, pc, #36	; (adr r3, 8006d28 <__ieee754_log+0x300>)
 8006d04:	e9d3 2300 	ldrd	r2, r3, [r3]
 8006d08:	e9dd 0102 	ldrd	r0, r1, [sp, #8]
 8006d0c:	f7f9 fbdc 	bl	80004c8 <__aeabi_dmul>
 8006d10:	a307      	add	r3, pc, #28	; (adr r3, 8006d30 <__ieee754_log+0x308>)
 8006d12:	e9d3 2300 	ldrd	r2, r3, [r3]
 8006d16:	4604      	mov	r4, r0
 8006d18:	460d      	mov	r5, r1
 8006d1a:	e9dd 0102 	ldrd	r0, r1, [sp, #8]
 8006d1e:	e727      	b.n	8006b70 <__ieee754_log+0x148>
 8006d20:	2000      	movs	r0, #0
 8006d22:	2100      	movs	r1, #0
 8006d24:	e693      	b.n	8006a4e <__ieee754_log+0x26>
 8006d26:	bf00      	nop
 8006d28:	fee00000 	.word	0xfee00000
 8006d2c:	3fe62e42 	.word	0x3fe62e42
 8006d30:	35793c76 	.word	0x35793c76
 8006d34:	3dea39ef 	.word	0x3dea39ef
 8006d38:	55555555 	.word	0x55555555
 8006d3c:	3fd55555 	.word	0x3fd55555
 8006d40:	df3e5244 	.word	0xdf3e5244
 8006d44:	3fc2f112 	.word	0x3fc2f112
 8006d48:	96cb03de 	.word	0x96cb03de
 8006d4c:	3fc74664 	.word	0x3fc74664
 8006d50:	94229359 	.word	0x94229359
 8006d54:	3fd24924 	.word	0x3fd24924
 8006d58:	55555593 	.word	0x55555593
 8006d5c:	3fe55555 	.word	0x3fe55555
 8006d60:	d078c69f 	.word	0xd078c69f
 8006d64:	3fc39a09 	.word	0x3fc39a09
 8006d68:	1d8e78af 	.word	0x1d8e78af
 8006d6c:	3fcc71c5 	.word	0x3fcc71c5
 8006d70:	9997fa04 	.word	0x9997fa04
 8006d74:	3fd99999 	.word	0x3fd99999
 8006d78:	c3500000 	.word	0xc3500000
 8006d7c:	43500000 	.word	0x43500000
 8006d80:	7fefffff 	.word	0x7fefffff
 8006d84:	3ff00000 	.word	0x3ff00000
 8006d88:	3fe00000 	.word	0x3fe00000

08006d8c <nan>:
 8006d8c:	2000      	movs	r0, #0
 8006d8e:	4901      	ldr	r1, [pc, #4]	; (8006d94 <nan+0x8>)
 8006d90:	4770      	bx	lr
 8006d92:	bf00      	nop
 8006d94:	7ff80000 	.word	0x7ff80000

08006d98 <_init>:
 8006d98:	b5f8      	push	{r3, r4, r5, r6, r7, lr}
 8006d9a:	bf00      	nop
 8006d9c:	bcf8      	pop	{r3, r4, r5, r6, r7}
 8006d9e:	bc08      	pop	{r3}
 8006da0:	469e      	mov	lr, r3
 8006da2:	4770      	bx	lr

08006da4 <_fini>:
 8006da4:	b5f8      	push	{r3, r4, r5, r6, r7, lr}
 8006da6:	bf00      	nop
 8006da8:	bcf8      	pop	{r3, r4, r5, r6, r7}
 8006daa:	bc08      	pop	{r3}
 8006dac:	469e      	mov	lr, r3
 8006dae:	4770      	bx	lr
